(dp1
S'Chroma 2'
p2
(lp3
(i__main__
skin
p4
(dp5
S'statTrak'
p6
I00
sS'case'
p7
g2
sS'priceMed'
p8
F0.32000000000000001
sS'name'
p9
S'Elite Build'
p10
sS'url'
p11
S'http://steamcommunity.com/market/priceoverview/?currency=13&appid=730&market_hash_name=AK-47%20%7C%20Elite%20Build%20%28Well-Worn%29'
p12
sS'weapon'
p13
S'AK-47'
p14
sS'volume'
p15
I0
sS'priceLow'
p16
F0.29999999999999999
sS'quality'
p17
S'Well-Worn'
p18
sS'colour'
p19
S'Blue'
p20
sba(i__main__
skin
p21
(dp22
g6
I00
sg7
S'Chroma 2'
p23
sg8
F0.12
sg9
S'Armor Core'
p24
sg11
S'http://steamcommunity.com/market/priceoverview/?currency=13&appid=730&market_hash_name=MP7%20%7C%20Armor%20Core%20%28Well-Worn%29'
p25
sg13
S'MP7'
p26
sg15
I149
sg16
F0.12
sg17
g18
sg19
g20
sba(i__main__
skin
p27
(dp28
g6
I00
sg7
S'Chroma 2'
p29
sg8
F0.14000000000000001
sg9
S'Bronze Deco'
p30
sg11
S'http://steamcommunity.com/market/priceoverview/?currency=13&appid=730&market_hash_name=Desert Eagle%20%7C%20Bronze%20Deco%20%28Well-Worn%29'
p31
sg13
S'Desert Eagle'
p32
sg15
I313
sg16
F0.14000000000000001
sg17
g18
sg19
g20
sba(i__main__
skin
p33
(dp34
g6
I00
sg7
S'Chroma 2'
p35
sg8
F0.14999999999999999
sg9
S'Valence'
p36
sg11
S'http://steamcommunity.com/market/priceoverview/?currency=13&appid=730&market_hash_name=P250%20%7C%20Valence%20%28Well-Worn%29'
p37
sg13
S'P250'
p38
sg15
I267
sg16
F0.14999999999999999
sg17
g18
sg19
g20
sba(i__main__
skin
p39
(dp40
g6
I00
sg7
S'Chroma 2'
p41
sg9
S"Man-o'-war"
p42
sg11
S'http://steamcommunity.com/market/priceoverview/?currency=13&appid=730&market_hash_name=Negev%20%7C%20Man-o%27-war%20%28Well-Worn%29'
p43
sg13
S'Negev'
p44
sg17
g18
sg19
g20
sba(i__main__
skin
p45
(dp46
g6
I00
sg7
S'Chroma 2'
p47
sg8
F0.12
sg9
S'Origami'
p48
sg11
S'http://steamcommunity.com/market/priceoverview/?currency=13&appid=730&market_hash_name=Sawed-Off%20%7C%20Origami%20%28Well-Worn%29'
p49
sg13
S'Sawed-Off'
p50
sg15
I167
sg16
F0.12
sg17
g18
sg19
g20
sba(i__main__
skin
p51
(dp52
g6
I00
sg7
S'Chroma 2'
p53
sg8
F1.46
sg9
S'Worm God'
p54
sg11
S'http://steamcommunity.com/market/priceoverview/?currency=13&appid=730&market_hash_name=AWP%20%7C%20Worm%20God%20%28Well-Worn%29'
p55
sg13
S'AWP'
p56
sg15
I345
sg16
F1.55
sg17
g18
sg19
S'Purple'
p57
sba(i__main__
skin
p58
(dp59
g6
I00
sg7
S'Chroma 2'
p60
sg8
F0.35999999999999999
sg9
S'Heat'
p61
sg11
S'http://steamcommunity.com/market/priceoverview/?currency=13&appid=730&market_hash_name=MAG-7%20%7C%20Heat%20%28Well-Worn%29'
p62
sg13
S'MAG-7'
p63
sg15
I472
sg16
F0.35999999999999999
sg17
g18
sg19
g57
sba(i__main__
skin
p64
(dp65
g6
I00
sg7
S'Chroma 2'
p66
sg8
F0.63
sg9
S'Pole Position'
p67
sg11
S'http://steamcommunity.com/market/priceoverview/?currency=13&appid=730&market_hash_name=CZ75-Auto%20%7C%20Pole%20Position%20%28Well-Worn%29'
p68
sg13
S'CZ75-Auto'
p69
sg15
I88
sg16
F0.60999999999999999
sg17
g18
sg19
g57
sba(i__main__
skin
p70
(dp71
g6
I00
sg7
S'Chroma 2'
p72
sg9
S'Grand Prix'
p73
sg11
S'http://steamcommunity.com/market/priceoverview/?currency=13&appid=730&market_hash_name=UMP-45%20%7C%20Grand%20Prix%20%28Well-Worn%29'
p74
sg13
S'UMP-45'
p75
sg17
g18
sg19
g57
sba(i__main__
skin
p76
(dp77
g6
I00
sg7
S'Chroma 2'
p78
sg8
F2.0600000000000001
sg9
S'Monkey Business'
p79
sg11
S'http://steamcommunity.com/market/priceoverview/?currency=13&appid=730&market_hash_name=Five-SeveN%20%7C%20Monkey%20Business%20%28Well-Worn%29'
p80
sg13
S'Five-SeveN'
p81
sg15
I539
sg16
F2.1400000000000001
sg17
g18
sg19
S'Pink'
p82
sba(i__main__
skin
p83
(dp84
g6
I00
sg7
S'Chroma 2'
p85
sg8
F2
sg9
S'Eco'
p86
sg11
S'http://steamcommunity.com/market/priceoverview/?currency=13&appid=730&market_hash_name=Galil AR%20%7C%20Eco%20%28Well-Worn%29'
p87
sg13
S'Galil AR'
p88
sg15
I206
sg16
F1.95
sg17
g18
sg19
g82
sba(i__main__
skin
p89
(dp90
g6
I00
sg7
S'Chroma 2'
p91
sg8
F2.0099999999999998
sg9
S'Djinn'
p92
sg11
S'http://steamcommunity.com/market/priceoverview/?currency=13&appid=730&market_hash_name=FAMAS%20%7C%20Djinn%20%28Well-Worn%29'
p93
sg13
S'FAMAS'
p94
sg15
I266
sg16
F1.8500000000000001
sg17
g18
sg19
g82
sba(i__main__
skin
p95
(dp96
g6
I00
sg7
S'Chroma 2'
p97
sg8
F16.210000000000001
sg9
S'Hyper Beast'
p98
sg11
S'http://steamcommunity.com/market/priceoverview/?currency=13&appid=730&market_hash_name=M4A1-S%20%7C%20Hyper%20Beast%20%28Well-Worn%29'
p99
sg13
S'M4A1-S'
p100
sg15
I347
sg16
F15.57
sg17
g18
sg19
S'Red'
p101
sba(i__main__
skin
p102
(dp103
g6
I00
sg7
S'Chroma 2'
p104
sg8
F2.7200000000000002
sg9
S'Neon Rider'
p105
sg11
S'http://steamcommunity.com/market/priceoverview/?currency=13&appid=730&market_hash_name=MAC-10%20%7C%20Neon%20Rider%20%28Well-Worn%29'
p106
sg13
S'MAC-10'
p107
sg15
I54
sg16
F3.0099999999999998
sg17
g18
sg19
g101
sbasS'Wildfire'
p108
(lp109
(i__main__
skin
p110
(dp111
g6
I00
sg7
S'Wildfire'
p112
sg8
F0.22
sg9
S'Photic Zone'
p113
sg11
S'http://steamcommunity.com/market/priceoverview/?currency=13&appid=730&market_hash_name=PP-Bizon%20%7C%20Photic%20Zone%20%28Well-Worn%29'
p114
sg13
S'PP-Bizon'
p115
sg15
I745
sg16
F0.20999999999999999
sg17
S'Well-Worn'
p116
sg19
S'Blue'
p117
sba(i__main__
skin
p118
(dp119
g6
I00
sg7
S'Wildfire'
p120
sg8
F0.20000000000000001
sg9
S'Cartel'
p121
sg11
S'http://steamcommunity.com/market/priceoverview/?currency=13&appid=730&market_hash_name=Dual Berettas%20%7C%20Cartel%20%28Well-Worn%29'
p122
sg13
S'Dual Berettas'
p123
sg15
I592
sg16
F0.20999999999999999
sg17
g116
sg19
g117
sba(i__main__
skin
p124
(dp125
g6
I00
sg7
S'Wildfire'
p126
sg8
F0.22
sg9
S'Lapis Gator'
p127
sg11
S'http://steamcommunity.com/market/priceoverview/?currency=13&appid=730&market_hash_name=MAC-10%20%7C%20Lapis%20Gator%20%28Well-Worn%29'
p128
sg13
S'MAC-10'
p129
sg15
I115
sg16
F0.25
sg17
g116
sg19
g117
sba(i__main__
skin
p130
(dp131
g6
I00
sg7
S'Wildfire'
p132
sg8
F0.34000000000000002
sg9
S'Necropos'
p133
sg11
S'http://steamcommunity.com/market/priceoverview/?currency=13&appid=730&market_hash_name=SSG 08%20%7C%20Necropos%20%28Well-Worn%29'
p134
sg13
S'SSG 08'
p135
sg15
I791
sg16
F0.34000000000000002
sg17
g116
sg19
g117
sba(i__main__
skin
p136
(dp137
g6
I00
sg7
S'Wildfire'
p138
sg8
F0.22
sg9
S'Jambiya'
p139
sg11
S'http://steamcommunity.com/market/priceoverview/?currency=13&appid=730&market_hash_name=Tec-9%20%7C%20Jambiya%20%28Well-Worn%29'
p140
sg13
S'Tec-9'
p141
sg15
I700
sg16
F0.20000000000000001
sg17
g116
sg19
g117
sba(i__main__
skin
p142
(dp143
g6
I00
sg7
S'Wildfire'
p144
sg8
F0.44
sg9
S'Lead Conduit'
p145
sg11
S'http://steamcommunity.com/market/priceoverview/?currency=13&appid=730&market_hash_name=USP-S%20%7C%20Lead%20Conduit%20%28Well-Worn%29'
p146
sg13
S'USP-S'
p147
sg15
I0
sg16
F0.41999999999999998
sg17
g116
sg19
g117
sba(i__main__
skin
p148
(dp149
g6
I00
sg7
S'Wildfire'
p150
sg8
F3.6099999999999999
sg9
S'Valence'
p151
sg11
S'http://steamcommunity.com/market/priceoverview/?currency=13&appid=730&market_hash_name=FAMAS%20%7C%20Valence%20%28Well-Worn%29'
p152
sg13
S'FAMAS'
p153
sg15
I33
sg16
F3.54
sg17
g116
sg19
S'Purple'
p154
sba(i__main__
skin
p155
(dp156
g6
I00
sg7
S'Wildfire'
p157
sg8
F1.46
sg9
S'Triumvirate'
p158
sg11
S'http://steamcommunity.com/market/priceoverview/?currency=13&appid=730&market_hash_name=Five-SeveN%20%7C%20Triumvirate%20%28Well-Worn%29'
p159
sg13
S'Five-SeveN'
p160
sg15
I63
sg16
F1.47
sg17
g116
sg19
g154
sba(i__main__
skin
p161
(dp162
g6
I00
sg7
S'Wildfire'
p163
sg8
F1.4099999999999999
sg9
S'Royal Legion'
p164
sg11
S'http://steamcommunity.com/market/priceoverview/?currency=13&appid=730&market_hash_name=Glock-18%20%7C%20Royal%20Legion%20%28Well-Worn%29'
p165
sg13
S'Glock-18'
p166
sg15
I308
sg16
F1.4199999999999999
sg17
g116
sg19
g154
sba(i__main__
skin
p167
(dp168
g6
I00
sg7
S'Wildfire'
p169
sg8
F1.22
sg9
S'Praetorian'
p170
sg11
S'http://steamcommunity.com/market/priceoverview/?currency=13&appid=730&market_hash_name=MAG-7%20%7C%20Praetorian%20%28Well-Worn%29'
p171
sg13
S'MAG-7'
p172
sg15
I70
sg16
F1.3400000000000001
sg17
g116
sg19
g154
sba(i__main__
skin
p173
(dp174
g6
I00
sg7
S'Wildfire'
p175
sg8
F1.1899999999999999
sg9
S'Impire'
p176
sg11
S'http://steamcommunity.com/market/priceoverview/?currency=13&appid=730&market_hash_name=MP7%20%7C%20Impire%20%28Well-Worn%29'
p177
sg13
S'MP7'
p178
sg15
I14
sg16
F1.6299999999999999
sg17
g116
sg19
g154
sba(i__main__
skin
p179
(dp180
g6
I00
sg7
S'Wildfire'
p181
sg8
F9.5199999999999996
sg9
S'Elite Build'
p182
sg11
S'http://steamcommunity.com/market/priceoverview/?currency=13&appid=730&market_hash_name=AWP%20%7C%20Elite%20Build%20%28Well-Worn%29'
p183
sg13
S'AWP'
p184
sg15
I160
sg16
F9.7899999999999991
sg17
g116
sg19
S'Pink'
p185
sba(i__main__
skin
p186
(dp187
g6
I00
sg7
S'Wildfire'
p188
sg8
F17.260000000000002
sg9
S'Kumicho Dragon'
p189
sg11
S'http://steamcommunity.com/market/priceoverview/?currency=13&appid=730&market_hash_name=Desert Eagle%20%7C%20Kumicho%20Dragon%20%28Well-Worn%29'
p190
sg13
S'Desert Eagle'
p191
sg15
I19
sg16
F17.68
sg17
g116
sg19
g185
sba(i__main__
skin
p192
(dp193
g6
I00
sg7
S'Wildfire'
p194
sg8
F7.0800000000000001
sg9
S'Hyper Beast'
p195
sg11
S'http://steamcommunity.com/market/priceoverview/?currency=13&appid=730&market_hash_name=Nova%20%7C%20Hyper%20Beast%20%28Well-Worn%29'
p196
sg13
S'Nova'
p197
sg15
I19
sg16
F7.6399999999999997
sg17
g116
sg19
g185
sba(i__main__
skin
p198
(dp199
g6
I00
sg7
S'Wildfire'
p200
sg8
F43.75
sg9
S'Fuel Injector'
p201
sg11
S'http://steamcommunity.com/market/priceoverview/?currency=13&appid=730&market_hash_name=AK-47%20%7C%20Fuel%20Injector%20%28Well-Worn%29'
p202
sg13
S'AK-47'
p203
sg15
I32
sg16
F46.890000000000001
sg17
g116
sg19
S'Red'
p204
sba(i__main__
skin
p205
(dp206
g6
I00
sg7
S'Wildfire'
p207
sg8
F18.760000000000002
sg9
S'The Battlestar'
p208
sg11
S'http://steamcommunity.com/market/priceoverview/?currency=13&appid=730&market_hash_name=M4A4%20%7C%20The%20Battlestar%20%28Well-Worn%29'
p209
sg13
S'M4A4'
p210
sg15
I9
sg16
F15.66
sg17
g116
sg19
g204
sbasS'eSports 2014 Summer'
p211
(lp212
(i__main__
skin
p213
(dp214
g6
I00
sg7
g211
sg9
S'Dark Water'
p215
sg11
S'http://steamcommunity.com/market/priceoverview/?currency=13&appid=730&market_hash_name=SSG 08%20%7C%20Dark%20Water%20%28Well-Worn%29'
p216
sg13
S'SSG 08'
p217
sg17
g18
sg19
g20
sba(i__main__
skin
p218
(dp219
g6
I00
sg7
S'eSports 2014 Summer'
p220
sg8
F0.34999999999999998
sg9
S'Ultraviolet'
p221
sg11
S'http://steamcommunity.com/market/priceoverview/?currency=13&appid=730&market_hash_name=MAC-10%20%7C%20Ultraviolet%20%28Well-Worn%29'
p222
sg13
S'MAC-10'
p223
sg15
I26
sg16
F0.34000000000000002
sg17
g18
sg19
g20
sba(i__main__
skin
p224
(dp225
g6
I00
sg7
S'eSports 2014 Summer'
p226
sg9
S'Blood Tiger'
p227
sg11
S'http://steamcommunity.com/market/priceoverview/?currency=13&appid=730&market_hash_name=USP-S%20%7C%20Blood%20Tiger%20%28Well-Worn%29'
p228
sg13
S'USP-S'
p229
sg17
g18
sg19
g20
sba(i__main__
skin
p230
(dp231
g6
I00
sg7
S'eSports 2014 Summer'
p232
sg8
F0.5
sg9
S'Hexane'
p233
sg11
S'http://steamcommunity.com/market/priceoverview/?currency=13&appid=730&market_hash_name=CZ75-Auto%20%7C%20Hexane%20%28Well-Worn%29'
p234
sg13
S'CZ75-Auto'
p235
sg15
I5
sg16
F0.59999999999999998
sg17
g18
sg19
g20
sba(i__main__
skin
p236
(dp237
g6
I00
sg7
S'eSports 2014 Summer'
p238
sg8
F0.22
sg9
S'Bratatat'
p239
sg11
S'http://steamcommunity.com/market/priceoverview/?currency=13&appid=730&market_hash_name=Negev%20%7C%20Bratatat%20%28Well-Worn%29'
p240
sg13
S'Negev'
p241
sg15
I69
sg16
F0.25
sg17
g18
sg19
g20
sba(i__main__
skin
p242
(dp243
g6
I00
sg7
S'eSports 2014 Summer'
p244
sg8
F0.37
sg9
S'Red Python'
p245
sg11
S'http://steamcommunity.com/market/priceoverview/?currency=13&appid=730&market_hash_name=XM1014%20%7C%20Red%20Python%20%28Well-Worn%29'
p246
sg13
S'XM1014'
p247
sg15
I20
sg16
F0.34999999999999998
sg17
g18
sg19
g20
sba(i__main__
skin
p248
(dp249
g6
I00
sg7
S'eSports 2014 Summer'
p250
sg8
F0.90000000000000002
sg9
S'Blue Streak'
p251
sg11
S'http://steamcommunity.com/market/priceoverview/?currency=13&appid=730&market_hash_name=PP-Bizon%20%7C%20Blue%20Streak%20%28Well-Worn%29'
p252
sg13
S'PP-Bizon'
p253
sg15
I14
sg16
F0.89000000000000001
sg17
g18
sg19
g57
sba(i__main__
skin
p254
(dp255
g6
I00
sg7
S'eSports 2014 Summer'
p256
sg8
F1.02
sg9
S'Virus'
p257
sg11
S'http://steamcommunity.com/market/priceoverview/?currency=13&appid=730&market_hash_name=P90%20%7C%20Virus%20%28Well-Worn%29'
p258
sg13
S'P90'
p259
sg15
I26
sg16
F1.0700000000000001
sg17
g18
sg19
g57
sba(i__main__
skin
p260
(dp261
g6
I00
sg7
S'eSports 2014 Summer'
p262
sg9
S'Ocean Foam'
p263
sg11
S'http://steamcommunity.com/market/priceoverview/?currency=13&appid=730&market_hash_name=MP7%20%7C%20Ocean%20Foam%20%28Well-Worn%29'
p264
sg13
S'MP7'
p265
sg17
g18
sg19
g57
sba(i__main__
skin
p266
(dp267
g6
I00
sg7
S'eSports 2014 Summer'
p268
sg9
S'Steel Disruption'
p269
sg11
S'http://steamcommunity.com/market/priceoverview/?currency=13&appid=730&market_hash_name=Glock-18%20%7C%20Steel%20Disruption%20%28Well-Worn%29'
p270
sg13
S'Glock-18'
p271
sg17
g18
sg19
g57
sba(i__main__
skin
p272
(dp273
g6
I00
sg7
S'eSports 2014 Summer'
p274
sg8
F1.47
sg9
S'Crimson Web'
p275
sg11
S'http://steamcommunity.com/market/priceoverview/?currency=13&appid=730&market_hash_name=Desert Eagle%20%7C%20Crimson%20Web%20%28Well-Worn%29'
p276
sg13
S'Desert Eagle'
p277
sg15
I101
sg16
F1.52
sg17
g18
sg19
g57
sba(i__main__
skin
p278
(dp279
g6
I00
sg7
S'eSports 2014 Summer'
p280
sg8
F2.79
sg9
S'Bengal Tiger'
p281
sg11
S'http://steamcommunity.com/market/priceoverview/?currency=13&appid=730&market_hash_name=AUG%20%7C%20Bengal%20Tiger%20%28Well-Worn%29'
p282
sg13
S'AUG'
p283
sg15
I6
sg16
F2.7999999999999998
sg17
g18
sg19
g82
sba(i__main__
skin
p284
(dp285
g6
I00
sg7
S'eSports 2014 Summer'
p286
sg8
F3.9500000000000002
sg9
S'Bloomstick'
p287
sg11
S'http://steamcommunity.com/market/priceoverview/?currency=13&appid=730&market_hash_name=Nova%20%7C%20Bloomstick%20%28Well-Worn%29'
p288
sg13
S'Nova'
p289
sg15
I3
sg16
F4
sg17
g18
sg19
g82
sba(i__main__
skin
p290
(dp291
g6
I00
sg7
S'eSports 2014 Summer'
p292
sg9
S'Corticera'
p293
sg11
S'http://steamcommunity.com/market/priceoverview/?currency=13&appid=730&market_hash_name=AWP%20%7C%20Corticera%20%28Well-Worn%29'
p294
sg13
S'AWP'
p295
sg17
g18
sg19
g82
sba(i__main__
skin
p296
(dp297
g6
I00
sg7
S'eSports 2014 Summer'
p298
sg9
S'Corticera'
p299
sg11
S'http://steamcommunity.com/market/priceoverview/?currency=13&appid=730&market_hash_name=P2000%20%7C%20Corticera%20%28Well-Worn%29'
p300
sg13
S'P2000'
p301
sg17
g18
sg19
g82
sba(i__main__
skin
p302
(dp303
g6
I00
sg7
S'eSports 2014 Summer'
p304
sg8
F7.2800000000000002
sg9
S'Bullet Rain'
p305
sg11
S'http://steamcommunity.com/market/priceoverview/?currency=13&appid=730&market_hash_name=M4A4%20%7C%20Bullet%20Rain%20%28Well-Worn%29'
p306
sg13
S'M4A4'
p307
sg15
I20
sg16
F8.9199999999999999
sg17
g18
sg19
g101
sba(i__main__
skin
p308
(dp309
g6
I00
sg7
S'eSports 2014 Summer'
p310
sg8
F13.57
sg9
S'Jaguar'
p311
sg11
S'http://steamcommunity.com/market/priceoverview/?currency=13&appid=730&market_hash_name=AK-47%20%7C%20Jaguar%20%28Well-Worn%29'
p312
sg13
S'AK-47'
p313
sg15
I118
sg16
F14.119999999999999
sg17
g18
sg19
g101
sbasS'Italy'
p314
(lp315
(i__main__
skin
p316
(dp317
g6
I00
sg7
g314
sg8
F1.46
sg9
S'Pit Viper'
p318
sg11
S'http://steamcommunity.com/market/priceoverview/?currency=13&appid=730&market_hash_name=AWP%20%7C%20Pit%20Viper%20%28Well-Worn%29'
p319
sg13
S'AWP'
p320
sg15
I191
sg16
F1.75
sg17
S'Well-Worn'
p321
sg19
g57
sba(i__main__
skin
p322
(dp323
g6
I00
sg7
S'Italy'
p324
sg8
F0.33000000000000002
sg9
S'Full Stop'
p325
sg11
S'http://steamcommunity.com/market/priceoverview/?currency=13&appid=730&market_hash_name=Sawed-Off%20%7C%20Full%20Stop%20%28Well-Worn%29'
p326
sg13
S'Sawed-Off'
p327
sg15
I51
sg16
F0.31
sg17
g321
sg19
g20
sba(i__main__
skin
p328
(dp329
g6
I00
sg7
S'Italy'
p330
sg9
S'Candy Apple'
p331
sg11
S'http://steamcommunity.com/market/priceoverview/?currency=13&appid=730&market_hash_name=Glock-18%20%7C%20Candy%20Apple%20%28Well-Worn%29'
p332
sg13
S'Glock-18'
p333
sg17
g321
sg19
g20
sba(i__main__
skin
p334
(dp335
g6
I00
sg7
S'Italy'
p336
sg9
S'Anodized Navy'
p337
sg11
S'http://steamcommunity.com/market/priceoverview/?currency=13&appid=730&market_hash_name=MP7%20%7C%20Anodized%20Navy%20%28Well-Worn%29'
p338
sg13
S'MP7'
p339
sg17
g321
sg19
g20
sba(i__main__
skin
p340
(dp341
g6
I00
sg7
S'Italy'
p342
sg8
F0.080000000000000002
sg9
S'CaliCamo'
p343
sg11
S'http://steamcommunity.com/market/priceoverview/?currency=13&appid=730&market_hash_name=XM1014%20%7C%20CaliCamo%20%28Well-Worn%29'
p344
sg13
S'XM1014'
p345
sg15
I79
sg16
F0.070000000000000007
sg17
g321
sg19
S'Light-Blue'
p346
sba(i__main__
skin
p347
(dp348
g6
I00
sg7
S'Italy'
p349
sg8
F0.26000000000000001
sg9
S'Boreal Forest'
p350
sg11
S'http://steamcommunity.com/market/priceoverview/?currency=13&appid=730&market_hash_name=M4A1-S%20%7C%20Boreal%20Forest%20%28Well-Worn%29'
p351
sg13
S'M4A1-S'
p352
sg15
I603
sg16
F0.26000000000000001
sg17
g321
sg19
g346
sba(i__main__
skin
p353
(dp354
g6
I00
sg7
S'Italy'
p355
sg8
F0.040000000000000001
sg9
S'Gunsmoke'
p356
sg11
S'http://steamcommunity.com/market/priceoverview/?currency=13&appid=730&market_hash_name=UMP-45%20%7C%20Gunsmoke%20%28Well-Worn%29'
p357
sg13
S'UMP-45'
p358
sg15
I241
sg16
F0.059999999999999998
sg17
g321
sg19
g346
sba(i__main__
skin
p359
(dp360
g6
I00
sg7
S'Italy'
p361
sg8
F0.050000000000000003
sg9
S'Granite Marbleized'
p362
sg11
S'http://steamcommunity.com/market/priceoverview/?currency=13&appid=730&market_hash_name=P2000%20%7C%20Granite%20Marbleized%20%28Well-Worn%29'
p363
sg13
S'P2000'
p364
sg15
I229
sg16
F0.059999999999999998
sg17
g321
sg19
g346
sba(i__main__
skin
p365
(dp366
g6
I00
sg7
S'Italy'
p367
sg8
F0.050000000000000003
sg9
S'Stained'
p368
sg11
S'http://steamcommunity.com/market/priceoverview/?currency=13&appid=730&market_hash_name=Dual Berettas%20%7C%20Stained%20%28Well-Worn%29'
p369
sg13
S'Dual Berettas'
p370
sg15
I615
sg16
F0.059999999999999998
sg17
g321
sg19
g346
sba(i__main__
skin
p371
(dp372
g6
I00
sg7
S'Italy'
p373
sg9
S'Candy Apple'
p374
sg11
S'http://steamcommunity.com/market/priceoverview/?currency=13&appid=730&market_hash_name=Nova%20%7C%20Candy%20Apple%20%28Well-Worn%29'
p375
sg13
S'Nova'
p376
sg17
g321
sg19
g346
sba(i__main__
skin
p377
(dp378
g6
I00
sg7
S'Italy'
p379
sg8
F0.02
sg9
S'Groundwater'
p380
sg11
S'http://steamcommunity.com/market/priceoverview/?currency=13&appid=730&market_hash_name=Tec-9%20%7C%20Groundwater%20%28Well-Worn%29'
p381
sg13
S'Tec-9'
p382
sg15
I528
sg16
F0.040000000000000001
sg17
g321
sg19
S'White'
p383
sba(i__main__
skin
p384
(dp385
g6
I00
sg7
S'Italy'
p386
sg8
F0.02
sg9
S'Contractor'
p387
sg11
S'http://steamcommunity.com/market/priceoverview/?currency=13&appid=730&market_hash_name=AUG%20%7C%20Contractor%20%28Well-Worn%29'
p388
sg13
S'AUG'
p389
sg15
I516
sg16
F0.040000000000000001
sg17
g321
sg19
g383
sba(i__main__
skin
p390
(dp391
g6
I00
sg7
S'Italy'
p392
sg8
F0.02
sg9
S'Colony'
p393
sg11
S'http://steamcommunity.com/market/priceoverview/?currency=13&appid=730&market_hash_name=FAMAS%20%7C%20Colony%20%28Well-Worn%29'
p394
sg13
S'FAMAS'
p395
sg15
I381
sg16
F0.040000000000000001
sg17
g321
sg19
g383
sba(i__main__
skin
p396
(dp397
g6
I00
sg7
S'Italy'
p398
sg8
F0.02
sg9
S'Sand Dune'
p399
sg11
S'http://steamcommunity.com/market/priceoverview/?currency=13&appid=730&market_hash_name=Nova%20%7C%20Sand%20Dune%20%28Well-Worn%29'
p400
sg13
S'Nova'
p401
sg15
I411
sg16
F0.040000000000000001
sg17
g321
sg19
g383
sba(i__main__
skin
p402
(dp403
g6
I00
sg7
S'Italy'
p404
sg8
F0.02
sg9
S'Sand Dashed'
p405
sg11
S'http://steamcommunity.com/market/priceoverview/?currency=13&appid=730&market_hash_name=PP-Bizon%20%7C%20Sand%20Dashed%20%28Well-Worn%29'
p406
sg13
S'PP-Bizon'
p407
sg15
I443
sg16
F0.040000000000000001
sg17
g321
sg19
g383
sbasS'Arms Deal'
p408
(lp409
(i__main__
skin
p410
(dp411
g6
I00
sg7
g408
sg9
S'Skulls'
p412
sg11
S'http://steamcommunity.com/market/priceoverview/?currency=13&appid=730&market_hash_name=MP7%20%7C%20Skulls%20%28Well-Worn%29'
p413
sg13
S'MP7'
p414
sg17
g18
sg19
g20
sba(i__main__
skin
p415
(dp416
g6
I00
sg7
S'Arms Deal'
p417
sg8
F1.1899999999999999
sg9
S'Ultraviolet'
p418
sg11
S'http://steamcommunity.com/market/priceoverview/?currency=13&appid=730&market_hash_name=SG 553%20%7C%20Ultraviolet%20%28Well-Worn%29'
p419
sg13
S'SG 553'
p420
sg15
I47
sg16
F1.4199999999999999
sg17
g18
sg19
g20
sba(i__main__
skin
p421
(dp422
g6
I00
sg7
S'Arms Deal'
p423
sg9
S'Wings'
p424
sg11
S'http://steamcommunity.com/market/priceoverview/?currency=13&appid=730&market_hash_name=AUG%20%7C%20Wings%20%28Well-Worn%29'
p425
sg13
S'AUG'
p426
sg17
g18
sg19
g20
sba(i__main__
skin
p427
(dp428
g6
I00
sg7
S'Arms Deal'
p429
sg9
S'Dark Water'
p430
sg11
S'http://steamcommunity.com/market/priceoverview/?currency=13&appid=730&market_hash_name=M4A1-S%20%7C%20Dark%20Water%20%28Well-Worn%29'
p431
sg13
S'M4A1-S'
p432
sg17
g18
sg19
g57
sba(i__main__
skin
p433
(dp434
g6
I00
sg7
S'Arms Deal'
p435
sg9
S'Dark Water'
p436
sg11
S'http://steamcommunity.com/market/priceoverview/?currency=13&appid=730&market_hash_name=USP-S%20%7C%20Dark%20Water%20%28Well-Worn%29'
p437
sg13
S'USP-S'
p438
sg17
g18
sg19
g57
sba(i__main__
skin
p439
(dp440
g6
I00
sg7
S'Arms Deal'
p441
sg9
S'Dragon Tattoo'
p442
sg11
S'http://steamcommunity.com/market/priceoverview/?currency=13&appid=730&market_hash_name=Glock-18%20%7C%20Dragon%20Tattoo%20%28Well-Worn%29'
p443
sg13
S'Glock-18'
p444
sg17
g18
sg19
g57
sba(i__main__
skin
p445
(dp446
g6
I00
sg7
S'Arms Deal'
p447
sg9
S'Hypnotic'
p448
sg11
S'http://steamcommunity.com/market/priceoverview/?currency=13&appid=730&market_hash_name=Desert Eagle%20%7C%20Hypnotic%20%28Well-Worn%29'
p449
sg13
S'Desert Eagle'
p450
sg17
g18
sg19
g82
sba(i__main__
skin
p451
(dp452
g6
I00
sg7
S'Arms Deal'
p453
sg8
F30.02
sg9
S'Case Hardened'
p454
sg11
S'http://steamcommunity.com/market/priceoverview/?currency=13&appid=730&market_hash_name=AK-47%20%7C%20Case%20Hardened%20%28Well-Worn%29'
p455
sg13
S'AK-47'
p456
sg15
I86
sg16
F30.190000000000001
sg17
g18
sg19
g82
sba(i__main__
skin
p457
(dp458
g6
I00
sg7
S'Arms Deal'
p459
sg9
S'Lightning Strike'
p460
sg11
S'http://steamcommunity.com/market/priceoverview/?currency=13&appid=730&market_hash_name=AWP%20%7C%20Lightning%20Strike%20%28Well-Worn%29'
p461
sg13
S'AWP'
p462
sg17
g18
sg19
g101
sbasS'Cache'
p463
(lp464
(i__main__
skin
p465
(dp466
g6
I00
sg7
g463
sg8
F4.2300000000000004
sg9
S'Cerberus'
p467
sg11
S'http://steamcommunity.com/market/priceoverview/?currency=13&appid=730&market_hash_name=Galil AR%20%7C%20Cerberus%20%28Well-Worn%29'
p468
sg13
S'Galil AR'
p469
sg15
I26
sg16
F4.1399999999999997
sg17
g18
sg19
g57
sba(i__main__
skin
p470
(dp471
g6
I00
sg7
S'Cache'
p472
sg8
F2.0499999999999998
sg9
S'Styx'
p473
sg11
S'http://steamcommunity.com/market/priceoverview/?currency=13&appid=730&market_hash_name=FAMAS%20%7C%20Styx%20%28Well-Worn%29'
p474
sg13
S'FAMAS'
p475
sg15
I8
sg16
F2.0299999999999998
sg17
g18
sg19
g57
sba(i__main__
skin
p476
(dp477
g6
I00
sg7
S'Cache'
p478
sg8
F3.9900000000000002
sg9
S'Toxic'
p479
sg11
S'http://steamcommunity.com/market/priceoverview/?currency=13&appid=730&market_hash_name=Tec-9%20%7C%20Toxic%20%28Well-Worn%29'
p480
sg13
S'Tec-9'
p481
sg15
I6
sg16
F4.21
sg17
g18
sg19
g20
sba(i__main__
skin
p482
(dp483
g6
I00
sg7
S'Cache'
p484
sg8
F1
sg9
S'Nuclear Garden'
p485
sg11
S'http://steamcommunity.com/market/priceoverview/?currency=13&appid=730&market_hash_name=MAC-10%20%7C%20Nuclear%20Garden%20%28Well-Worn%29'
p486
sg13
S'MAC-10'
p487
sg15
I5
sg16
F1.3799999999999999
sg17
g18
sg19
g20
sba(i__main__
skin
p488
(dp489
g6
I00
sg7
S'Cache'
p490
sg8
F1.3899999999999999
sg9
S'Bone Machine'
p491
sg11
S'http://steamcommunity.com/market/priceoverview/?currency=13&appid=730&market_hash_name=XM1014%20%7C%20Bone%20Machine%20%28Well-Worn%29'
p492
sg13
S'XM1014'
p493
sg15
I4
sg16
F1.4199999999999999
sg17
g18
sg19
g20
sba(i__main__
skin
p494
(dp495
g6
I00
sg7
S'Cache'
p496
sg8
F0.93999999999999995
sg9
S'Setting Sun'
p497
sg11
S'http://steamcommunity.com/market/priceoverview/?currency=13&appid=730&market_hash_name=MP9%20%7C%20Setting%20Sun%20%28Well-Worn%29'
p498
sg13
S'MP9'
p499
sg15
I15
sg16
F0.93999999999999995
sg17
g18
sg19
g20
sba(i__main__
skin
p500
(dp501
g6
I00
sg7
S'Cache'
p502
sg8
F2.04
sg9
S'Reactor'
p503
sg11
S'http://steamcommunity.com/market/priceoverview/?currency=13&appid=730&market_hash_name=Glock-18%20%7C%20Reactor%20%28Well-Worn%29'
p504
sg13
S'Glock-18'
p505
sg15
I112
sg16
F2.0899999999999999
sg17
g18
sg19
g20
sba(i__main__
skin
p506
(dp507
g6
I00
sg7
S'Cache'
p508
sg8
F0.34000000000000002
sg9
S'Hot Shot'
p509
sg11
S'http://steamcommunity.com/market/priceoverview/?currency=13&appid=730&market_hash_name=Five-SeveN%20%7C%20Hot%20Shot%20%28Well-Worn%29'
p510
sg13
S'Five-SeveN'
p511
sg15
I117
sg16
F0.39000000000000001
sg17
g18
sg19
g346
sba(i__main__
skin
p512
(dp513
g6
I00
sg7
S'Cache'
p514
sg8
F0.55000000000000004
sg9
S'Fallout Warning'
p515
sg11
S'http://steamcommunity.com/market/priceoverview/?currency=13&appid=730&market_hash_name=SG 553%20%7C%20Fallout%20Warning%20%28Well-Worn%29'
p516
sg13
S'SG 553'
p517
sg15
I14
sg16
F0.58999999999999997
sg17
g18
sg19
g346
sba(i__main__
skin
p518
(dp519
g6
I00
sg7
S'Cache'
p520
sg8
F0.40000000000000002
sg9
S'Chemical Green'
p521
sg11
S'http://steamcommunity.com/market/priceoverview/?currency=13&appid=730&market_hash_name=PP-Bizon%20%7C%20Chemical%20Green%20%28Well-Worn%29'
p522
sg13
S'PP-Bizon'
p523
sg15
I49
sg16
F0.39000000000000001
sg17
g18
sg19
g346
sba(i__main__
skin
p524
(dp525
g6
I00
sg7
S'Cache'
p526
sg8
F0.46999999999999997
sg9
S'Radiation Hazard'
p527
sg11
S'http://steamcommunity.com/market/priceoverview/?currency=13&appid=730&market_hash_name=AUG%20%7C%20Radiation%20Hazard%20%28Well-Worn%29'
p528
sg13
S'AUG'
p529
sg15
I28
sg16
F0.5
sg17
g18
sg19
g346
sba(i__main__
skin
p530
(dp531
g6
I00
sg7
S'Cache'
p532
sg8
F0.60999999999999999
sg9
S'Contamination'
p533
sg11
S'http://steamcommunity.com/market/priceoverview/?currency=13&appid=730&market_hash_name=P250%20%7C%20Contamination%20%28Well-Worn%29'
p534
sg13
S'P250'
p535
sg15
I12
sg16
F0.62
sg17
g18
sg19
g346
sba(i__main__
skin
p536
(dp537
g6
I00
sg7
S'Cache'
p538
sg8
F0.53000000000000003
sg9
S'Nuclear Waste'
p539
sg11
S'http://steamcommunity.com/market/priceoverview/?currency=13&appid=730&market_hash_name=Negev%20%7C%20Nuclear%20Waste%20%28Well-Worn%29'
p540
sg13
S'Negev'
p541
sg15
I5
sg16
F0.55000000000000004
sg17
g18
sg19
g346
sbasS'Chroma'
p542
(lp543
(i__main__
skin
p544
(dp545
g6
I00
sg7
g542
sg8
F0.17999999999999999
sg9
S'Catacombs'
p546
sg11
S'http://steamcommunity.com/market/priceoverview/?currency=13&appid=730&market_hash_name=Glock-18%20%7C%20Catacombs%20%28Well-Worn%29'
p547
sg13
S'Glock-18'
p548
sg15
I156
sg16
F0.17000000000000001
sg17
g18
sg19
g20
sba(i__main__
skin
p549
(dp550
g6
I00
sg7
S'Chroma'
p551
sg8
F0.14999999999999999
sg9
S'System Lock'
p552
sg11
S'http://steamcommunity.com/market/priceoverview/?currency=13&appid=730&market_hash_name=M249%20%7C%20System%20Lock%20%28Well-Worn%29'
p553
sg13
S'M249'
p554
sg15
I31
sg16
F0.14000000000000001
sg17
g18
sg19
g20
sba(i__main__
skin
p555
(dp556
g6
I00
sg7
S'Chroma'
p557
sg8
F0.12
sg9
S'Deadly Poison'
p558
sg11
S'http://steamcommunity.com/market/priceoverview/?currency=13&appid=730&market_hash_name=MP9%20%7C%20Deadly%20Poison%20%28Well-Worn%29'
p559
sg13
S'MP9'
p560
sg15
I400
sg16
F0.12
sg17
g18
sg19
g20
sba(i__main__
skin
p561
(dp562
g6
I00
sg7
S'Chroma'
p563
sg8
F0.14000000000000001
sg9
S'Grotto'
p564
sg11
S'http://steamcommunity.com/market/priceoverview/?currency=13&appid=730&market_hash_name=SCAR-20%20%7C%20Grotto%20%28Well-Worn%29'
p565
sg13
S'SCAR-20'
p566
sg15
I60
sg16
F0.12
sg17
g18
sg19
g20
sba(i__main__
skin
p567
(dp568
g6
I00
sg7
S'Chroma'
p569
sg8
F0.10000000000000001
sg9
S'Quicksilver'
p570
sg11
S'http://steamcommunity.com/market/priceoverview/?currency=13&appid=730&market_hash_name=XM1014%20%7C%20Quicksilver%20%28Well-Worn%29'
p571
sg13
S'XM1014'
p572
sg15
I57
sg16
F0.13
sg17
g18
sg19
g20
sba(i__main__
skin
p573
(dp574
g6
I00
sg7
S'Chroma'
p575
sg8
F0.78000000000000003
sg9
S'Urban Shock'
p576
sg11
S'http://steamcommunity.com/market/priceoverview/?currency=13&appid=730&market_hash_name=Dual Berettas%20%7C%20Urban%20Shock%20%28Well-Worn%29'
p577
sg13
S'Dual Berettas'
p578
sg15
I46
sg16
F0.78000000000000003
sg17
g18
sg19
g57
sba(i__main__
skin
p579
(dp580
g6
I00
sg7
S'Chroma'
p581
sg8
F0.51000000000000001
sg9
S'Naga'
p582
sg11
S'http://steamcommunity.com/market/priceoverview/?currency=13&appid=730&market_hash_name=Desert Eagle%20%7C%20Naga%20%28Well-Worn%29'
p583
sg13
S'Desert Eagle'
p584
sg15
I346
sg16
F0.53000000000000003
sg17
g18
sg19
g57
sba(i__main__
skin
p585
(dp586
g6
I00
sg7
S'Chroma'
p587
sg8
F1.1000000000000001
sg9
S'Malachite'
p588
sg11
S'http://steamcommunity.com/market/priceoverview/?currency=13&appid=730&market_hash_name=MAC-10%20%7C%20Malachite%20%28Well-Worn%29'
p589
sg13
S'MAC-10'
p590
sg15
I29
sg16
F1.23
sg17
g18
sg19
g57
sba(i__main__
skin
p591
(dp592
g6
I00
sg7
S'Chroma'
p593
sg8
F0.57999999999999996
sg9
S'Serenity'
p594
sg11
S'http://steamcommunity.com/market/priceoverview/?currency=13&appid=730&market_hash_name=Sawed-Off%20%7C%20Serenity%20%28Well-Worn%29'
p595
sg13
S'Sawed-Off'
p596
sg15
I61
sg16
F0.72999999999999998
sg17
g18
sg19
g57
sba(i__main__
skin
p597
(dp598
g6
I00
sg7
S'Chroma'
p599
sg8
F3.6800000000000002
sg9
S'Cartel'
p600
sg11
S'http://steamcommunity.com/market/priceoverview/?currency=13&appid=730&market_hash_name=AK-47%20%7C%20Cartel%20%28Well-Worn%29'
p601
sg13
S'AK-47'
p602
sg15
I67
sg16
F4.0499999999999998
sg17
g18
sg19
g82
sba(i__main__
skin
p603
(dp604
g6
I00
sg7
S'Chroma'
p605
sg8
F6.0700000000000003
sg9
S'\xe9\xbe\x8d\xe7\x8e\x8b (Dragon King)'
p606
sg11
S'http://steamcommunity.com/market/priceoverview/?currency=13&appid=730&market_hash_name=M4A4%20%7C%20%E9%BE%8D%E7%8E%8B%20%28Dragon%20King%29%20%28Well-Worn%29'
p607
sg13
S'M4A4'
p608
sg15
I52
sg16
F6.1500000000000004
sg17
g18
sg19
g82
sba(i__main__
skin
p609
(dp610
g6
I00
sg7
S'Chroma'
p611
sg8
F3.1699999999999999
sg9
S'Muertos'
p612
sg11
S'http://steamcommunity.com/market/priceoverview/?currency=13&appid=730&market_hash_name=P250%20%7C%20Muertos%20%28Well-Worn%29'
p613
sg13
S'P250'
p614
sg15
I31
sg16
F3.2400000000000002
sg17
g18
sg19
g82
sba(i__main__
skin
p615
(dp616
g6
I00
sg7
S'Chroma'
p617
sg9
S"Man-o'-war"
p618
sg11
S'http://steamcommunity.com/market/priceoverview/?currency=13&appid=730&market_hash_name=AWP%20%7C%20Man-o%27-war%20%28Well-Worn%29'
p619
sg13
S'AWP'
p620
sg17
g18
sg19
g101
sba(i__main__
skin
p621
(dp622
g6
I00
sg7
S'Chroma'
p623
sg8
F4.1200000000000001
sg9
S'Chatterbox'
p624
sg11
S'http://steamcommunity.com/market/priceoverview/?currency=13&appid=730&market_hash_name=Galil AR%20%7C%20Chatterbox%20%28Well-Worn%29'
p625
sg13
S'Galil AR'
p626
sg15
I192
sg16
F3.7400000000000002
sg17
g18
sg19
g101
sbasS'Lake'
p627
(lp628
(i__main__
skin
p629
(dp630
g6
I00
sg7
g627
sg8
F0.57999999999999996
sg9
S'Cobalt Quartz'
p631
sg11
S'http://steamcommunity.com/market/priceoverview/?currency=13&appid=730&market_hash_name=Dual Berettas%20%7C%20Cobalt%20Quartz%20%28Well-Worn%29'
p632
sg13
S'Dual Berettas'
p633
sg15
I73
sg16
F0.58999999999999997
sg17
g18
sg19
g57
sba(i__main__
skin
p634
(dp635
g6
I00
sg7
S'Lake'
p636
sg8
F0.42999999999999999
sg9
S'Night Ops'
p637
sg11
S'http://steamcommunity.com/market/priceoverview/?currency=13&appid=730&market_hash_name=USP-S%20%7C%20Night%20Ops%20%28Well-Worn%29'
p638
sg13
S'USP-S'
p639
sg15
I76
sg16
F0.40999999999999998
sg17
g18
sg19
g20
sba(i__main__
skin
p640
(dp641
g6
I00
sg7
S'Lake'
p642
sg8
F0.28999999999999998
sg9
S'Teardown'
p643
sg11
S'http://steamcommunity.com/market/priceoverview/?currency=13&appid=730&market_hash_name=P90%20%7C%20Teardown%20%28Well-Worn%29'
p644
sg13
S'P90'
p645
sg15
I107
sg16
F0.28000000000000003
sg17
g18
sg19
g20
sba(i__main__
skin
p646
(dp647
g6
I00
sg7
S'Lake'
p648
sg9
S'Anodized Navy'
p649
sg11
S'http://steamcommunity.com/market/priceoverview/?currency=13&appid=730&market_hash_name=SG 553%20%7C%20Anodized%20Navy%20%28Well-Worn%29'
p650
sg13
S'SG 553'
p651
sg17
g18
sg19
g20
sba(i__main__
skin
p652
(dp653
g6
I00
sg7
S'Lake'
p654
sg8
F0.070000000000000007
sg9
S'Mudder'
p655
sg11
S'http://steamcommunity.com/market/priceoverview/?currency=13&appid=730&market_hash_name=Desert Eagle%20%7C%20Mudder%20%28Well-Worn%29'
p656
sg13
S'Desert Eagle'
p657
sg15
I329
sg16
F0.080000000000000002
sg17
g18
sg19
g346
sba(i__main__
skin
p658
(dp659
g6
I00
sg7
S'Lake'
p660
sg8
F0.29999999999999999
sg9
S'Safari Mesh'
p661
sg11
S'http://steamcommunity.com/market/priceoverview/?currency=13&appid=730&market_hash_name=AWP%20%7C%20Safari%20Mesh%20%28Well-Worn%29'
p662
sg13
S'AWP'
p663
sg15
I719
sg16
F0.28999999999999998
sg17
g18
sg19
g346
sba(i__main__
skin
p664
(dp665
g6
I00
sg7
S'Lake'
p666
sg8
F0.080000000000000002
sg9
S'Night Ops'
p667
sg11
S'http://steamcommunity.com/market/priceoverview/?currency=13&appid=730&market_hash_name=PP-Bizon%20%7C%20Night%20Ops%20%28Well-Worn%29'
p668
sg13
S'PP-Bizon'
p669
sg15
I146
sg16
F0.070000000000000007
sg17
g18
sg19
g346
sba(i__main__
skin
p670
(dp671
g6
I00
sg7
S'Lake'
p672
sg8
F0.050000000000000003
sg9
S'Cyanospatter'
p673
sg11
S'http://steamcommunity.com/market/priceoverview/?currency=13&appid=730&market_hash_name=FAMAS%20%7C%20Cyanospatter%20%28Well-Worn%29'
p674
sg13
S'FAMAS'
p675
sg15
I254
sg16
F0.070000000000000007
sg17
g18
sg19
g346
sba(i__main__
skin
p676
(dp677
g6
I00
sg7
S'Lake'
p678
sg8
F0.050000000000000003
sg9
S'Blue Steel'
p679
sg11
S'http://steamcommunity.com/market/priceoverview/?currency=13&appid=730&market_hash_name=XM1014%20%7C%20Blue%20Steel%20%28Well-Worn%29'
p680
sg13
S'XM1014'
p681
sg15
I520
sg16
F0.070000000000000007
sg17
g18
sg19
g346
sba(i__main__
skin
p682
(dp683
g6
I00
sg7
S'Lake'
p684
sg8
F0.029999999999999999
sg9
S'Boreal Forest'
p685
sg11
S'http://steamcommunity.com/market/priceoverview/?currency=13&appid=730&market_hash_name=P250%20%7C%20Boreal%20Forest%20%28Well-Worn%29'
p686
sg13
S'P250'
p687
sg15
I532
sg16
F0.040000000000000001
sg17
g18
sg19
g383
sba(i__main__
skin
p688
(dp689
g6
I00
sg7
S'Lake'
p690
sg8
F0.029999999999999999
sg9
S'Blue Spruce'
p691
sg11
S'http://steamcommunity.com/market/priceoverview/?currency=13&appid=730&market_hash_name=XM1014%20%7C%20Blue%20Spruce%20%28Well-Worn%29'
p692
sg13
S'XM1014'
p693
sg15
I484
sg16
F0.040000000000000001
sg17
g18
sg19
g383
sba(i__main__
skin
p694
(dp695
g6
I00
sg7
S'Lake'
p696
sg8
F0.02
sg9
S'Storm'
p697
sg11
S'http://steamcommunity.com/market/priceoverview/?currency=13&appid=730&market_hash_name=AUG%20%7C%20Storm%20%28Well-Worn%29'
p698
sg13
S'AUG'
p699
sg15
I492
sg16
F0.040000000000000001
sg17
g18
sg19
g383
sba(i__main__
skin
p700
(dp701
g6
I00
sg7
S'Lake'
p702
sg8
F0.02
sg9
S'Sage Spray'
p703
sg11
S'http://steamcommunity.com/market/priceoverview/?currency=13&appid=730&market_hash_name=Galil AR%20%7C%20Sage%20Spray%20%28Well-Worn%29'
p704
sg13
S'Galil AR'
p705
sg15
I498
sg16
F0.040000000000000001
sg17
g18
sg19
g383
sba(i__main__
skin
p706
(dp707
g6
I00
sg7
S'Lake'
p708
sg8
F0.02
sg9
S'Waves Perforated'
p709
sg11
S'http://steamcommunity.com/market/priceoverview/?currency=13&appid=730&market_hash_name=SG 553%20%7C%20Waves%20Perforated%20%28Well-Worn%29'
p710
sg13
S'SG 553'
p711
sg15
I382
sg16
F0.040000000000000001
sg17
g18
sg19
g383
sba(i__main__
skin
p712
(dp713
g6
I00
sg7
S'Lake'
p714
sg8
F0.02
sg9
S'Jungle Dashed'
p715
sg11
S'http://steamcommunity.com/market/priceoverview/?currency=13&appid=730&market_hash_name=G3SG1%20%7C%20Jungle%20Dashed%20%28Well-Worn%29'
p716
sg13
S'G3SG1'
p717
sg15
I364
sg16
F0.040000000000000001
sg17
g18
sg19
g383
sbasS'Breakout'
p718
(lp719
(i__main__
skin
p720
(dp721
g6
I00
sg7
g718
sg8
F0.12
sg9
S'Urban Hazard'
p722
sg11
S'http://steamcommunity.com/market/priceoverview/?currency=13&appid=730&market_hash_name=MP7%20%7C%20Urban%20Hazard%20%28Well-Worn%29'
p723
sg13
S'MP7'
p724
sg15
I160
sg16
F0.12
sg17
g18
sg19
g20
sba(i__main__
skin
p725
(dp726
g6
I00
sg7
S'Breakout'
p727
sg8
F0.11
sg9
S'Desert-Strike'
p728
sg11
S'http://steamcommunity.com/market/priceoverview/?currency=13&appid=730&market_hash_name=Negev%20%7C%20Desert-Strike%20%28Well-Worn%29'
p729
sg13
S'Negev'
p730
sg15
I119
sg16
F0.12
sg17
g18
sg19
g20
sba(i__main__
skin
p731
(dp732
g6
I00
sg7
S'Breakout'
p733
sg8
F0.12
sg9
S'Ivory'
p734
sg11
S'http://steamcommunity.com/market/priceoverview/?currency=13&appid=730&market_hash_name=P2000%20%7C%20Ivory%20%28Well-Worn%29'
p735
sg13
S'P2000'
p736
sg15
I821
sg16
F0.12
sg17
g18
sg19
g20
sba(i__main__
skin
p737
(dp738
g6
I00
sg7
S'Breakout'
p739
sg8
F0.12
sg9
S'Abyss'
p740
sg11
S'http://steamcommunity.com/market/priceoverview/?currency=13&appid=730&market_hash_name=SSG 08%20%7C%20Abyss%20%28Well-Worn%29'
p741
sg13
S'SSG 08'
p742
sg15
I0
sg16
F0.12
sg17
g18
sg19
g20
sba(i__main__
skin
p743
(dp744
g6
I00
sg7
S'Breakout'
p745
sg8
F0.13
sg9
S'Labyrinth'
p746
sg11
S'http://steamcommunity.com/market/priceoverview/?currency=13&appid=730&market_hash_name=UMP-45%20%7C%20Labyrinth%20%28Well-Worn%29'
p747
sg13
S'UMP-45'
p748
sg15
I42
sg16
F0.13
sg17
g18
sg19
g20
sba(i__main__
skin
p749
(dp750
g6
I00
sg7
S'Breakout'
p751
sg8
F0.45000000000000001
sg9
S'Osiris'
p752
sg11
S'http://steamcommunity.com/market/priceoverview/?currency=13&appid=730&market_hash_name=PP-Bizon%20%7C%20Osiris%20%28Well-Worn%29'
p753
sg13
S'PP-Bizon'
p754
sg15
I82
sg16
F0.62
sg17
g18
sg19
g57
sba(i__main__
skin
p755
(dp756
g6
I00
sg7
S'Breakout'
p757
sg8
F0.38
sg9
S'Tigris'
p758
sg11
S'http://steamcommunity.com/market/priceoverview/?currency=13&appid=730&market_hash_name=CZ75-Auto%20%7C%20Tigris%20%28Well-Worn%29'
p759
sg13
S'CZ75-Auto'
p760
sg15
I364
sg16
F0.39000000000000001
sg17
g18
sg19
g57
sba(i__main__
skin
p761
(dp762
g6
I00
sg7
S'Breakout'
p763
sg9
S'Koi'
p764
sg11
S'http://steamcommunity.com/market/priceoverview/?currency=13&appid=730&market_hash_name=Nova%20%7C%20Koi%20%28Well-Worn%29'
p765
sg13
S'Nova'
p766
sg17
g18
sg19
g57
sba(i__main__
skin
p767
(dp768
g6
I00
sg7
S'Breakout'
p769
sg8
F0.87
sg9
S'Supernova'
p770
sg11
S'http://steamcommunity.com/market/priceoverview/?currency=13&appid=730&market_hash_name=P250%20%7C%20Supernova%20%28Well-Worn%29'
p771
sg13
S'P250'
p772
sg15
I54
sg16
F0.88
sg17
g18
sg19
g57
sba(i__main__
skin
p773
(dp774
g6
I00
sg7
S'Breakout'
p775
sg9
S'Conspiracy'
p776
sg11
S'http://steamcommunity.com/market/priceoverview/?currency=13&appid=730&market_hash_name=Desert Eagle%20%7C%20Conspiracy%20%28Well-Worn%29'
p777
sg13
S'Desert Eagle'
p778
sg17
g18
sg19
g82
sba(i__main__
skin
p779
(dp780
g6
I00
sg7
S'Breakout'
p781
sg8
F1.9099999999999999
sg9
S'Fowl Play'
p782
sg11
S'http://steamcommunity.com/market/priceoverview/?currency=13&appid=730&market_hash_name=Five-SeveN%20%7C%20Fowl%20Play%20%28Well-Worn%29'
p783
sg13
S'Five-SeveN'
p784
sg15
I100
sg16
F2.04
sg17
g18
sg19
g82
sba(i__main__
skin
p785
(dp786
g6
I00
sg7
S'Breakout'
p787
sg8
F4.6299999999999999
sg9
S'Water Elemental'
p788
sg11
S'http://steamcommunity.com/market/priceoverview/?currency=13&appid=730&market_hash_name=Glock-18%20%7C%20Water%20Elemental%20%28Well-Worn%29'
p789
sg13
S'Glock-18'
p790
sg15
I98
sg16
F4.8700000000000001
sg17
g18
sg19
g82
sba(i__main__
skin
p791
(dp792
g6
I00
sg7
S'Breakout'
p793
sg8
F7.79
sg9
S'Asiimov'
p794
sg11
S'http://steamcommunity.com/market/priceoverview/?currency=13&appid=730&market_hash_name=P90%20%7C%20Asiimov%20%28Well-Worn%29'
p795
sg13
S'P90'
p796
sg15
I155
sg16
F7.6500000000000004
sg17
g18
sg19
g101
sba(i__main__
skin
p797
(dp798
g6
I00
sg7
S'Breakout'
p799
sg8
F13.039999999999999
sg9
S'Cyrex'
p800
sg11
S'http://steamcommunity.com/market/priceoverview/?currency=13&appid=730&market_hash_name=M4A1-S%20%7C%20Cyrex%20%28Well-Worn%29'
p801
sg13
S'M4A1-S'
p802
sg15
I71
sg16
F13.119999999999999
sg17
g18
sg19
g101
sbasS'Rising Sun'
p803
(lp804
(i__main__
skin
p805
(dp806
g6
I00
sg7
g803
sg8
F0.32000000000000001
sg9
S'Bamboo Print'
p807
sg11
S'http://steamcommunity.com/market/priceoverview/?currency=13&appid=730&market_hash_name=PP-Bizon%20%7C%20Bamboo%20Print%20%28Well-Worn%29'
p808
sg13
S'PP-Bizon'
p809
sg15
I36
sg16
F0.32000000000000001
sg17
g18
sg19
g383
sba(i__main__
skin
p810
(dp811
g6
I00
sg7
S'Rising Sun'
p812
sg8
F0.28000000000000003
sg9
S'Bamboo Shadow'
p813
sg11
S'http://steamcommunity.com/market/priceoverview/?currency=13&appid=730&market_hash_name=Sawed-Off%20%7C%20Bamboo%20Shadow%20%28Well-Worn%29'
p814
sg13
S'Sawed-Off'
p815
sg15
I22
sg16
F0.32000000000000001
sg17
g18
sg19
g383
sba(i__main__
skin
p816
(dp817
g6
I00
sg7
S'Rising Sun'
p818
sg8
F0.42999999999999999
sg9
S'Bamboo Forest'
p819
sg11
S'http://steamcommunity.com/market/priceoverview/?currency=13&appid=730&market_hash_name=Tec-9%20%7C%20Bamboo%20Forest%20%28Well-Worn%29'
p820
sg13
S'Tec-9'
p821
sg15
I89
sg16
F0.40000000000000002
sg17
g18
sg19
g383
sba(i__main__
skin
p822
(dp823
g6
I00
sg7
S'Rising Sun'
p824
sg8
F0.29999999999999999
sg9
S'Orange Kimono'
p825
sg11
S'http://steamcommunity.com/market/priceoverview/?currency=13&appid=730&market_hash_name=G3SG1%20%7C%20Orange%20Kimono%20%28Well-Worn%29'
p826
sg13
S'G3SG1'
p827
sg15
I37
sg16
F0.32000000000000001
sg17
g18
sg19
g383
sba(i__main__
skin
p828
(dp829
g6
I00
sg7
S'Rising Sun'
p830
sg8
F0.35999999999999999
sg9
S'Mint Kimono'
p831
sg11
S'http://steamcommunity.com/market/priceoverview/?currency=13&appid=730&market_hash_name=P250%20%7C%20Mint%20Kimono%20%28Well-Worn%29'
p832
sg13
S'P250'
p833
sg15
I15
sg16
F0.37
sg17
g18
sg19
g383
sba(i__main__
skin
p834
(dp835
g6
I00
sg7
S'Rising Sun'
p836
sg8
F1.0800000000000001
sg9
S'Crimson Kimono'
p837
sg11
S'http://steamcommunity.com/market/priceoverview/?currency=13&appid=730&market_hash_name=P250%20%7C%20Crimson%20Kimono%20%28Well-Worn%29'
p838
sg13
S'P250'
p839
sg15
I7
sg16
F0.84999999999999998
sg17
g18
sg19
g346
sba(i__main__
skin
p840
(dp841
g6
I00
sg7
S'Rising Sun'
p842
sg8
F1.8
sg9
S'Midnight Storm'
p843
sg11
S'http://steamcommunity.com/market/priceoverview/?currency=13&appid=730&market_hash_name=Desert Eagle%20%7C%20Midnight%20Storm%20%28Well-Worn%29'
p844
sg13
S'Desert Eagle'
p845
sg15
I36
sg16
F2.0899999999999999
sg17
g18
sg19
g346
sba(i__main__
skin
p846
(dp847
g6
I00
sg7
S'Rising Sun'
p848
sg8
I-1
sg9
S'Aqua Terrace'
p849
sg11
S'http://steamcommunity.com/market/priceoverview/?currency=13&appid=730&market_hash_name=Galil AR%20%7C%20Aqua%20Terrace%20%28Well-Worn%29'
p850
sg13
S'Galil AR'
p851
sg15
I0
sg16
F7.0499999999999998
sg17
g18
sg19
g20
sba(i__main__
skin
p852
(dp853
g6
I00
sg7
S'Rising Sun'
p854
sg8
I-1
sg9
S'Counter Terrace'
p855
sg11
S'http://steamcommunity.com/market/priceoverview/?currency=13&appid=730&market_hash_name=MAG-7%20%7C%20Counter%20Terrace%20%28Well-Worn%29'
p856
sg13
S'MAG-7'
p857
sg15
I0
sg16
F9.8900000000000006
sg17
g18
sg19
g20
sba(i__main__
skin
p858
(dp859
g6
I00
sg7
S'Rising Sun'
p860
sg8
F5.1500000000000004
sg9
S'Terrace'
p861
sg11
S'http://steamcommunity.com/market/priceoverview/?currency=13&appid=730&market_hash_name=Tec-9%20%7C%20Terrace%20%28Well-Worn%29'
p862
sg13
S'Tec-9'
p863
sg15
I4
sg16
F6.1600000000000001
sg17
g18
sg19
g20
sba(i__main__
skin
p864
(dp865
g6
I00
sg7
S'Rising Sun'
p866
sg8
I-1
sg9
S'Neon Kimono'
p867
sg11
S'http://steamcommunity.com/market/priceoverview/?currency=13&appid=730&market_hash_name=Five-SeveN%20%7C%20Neon%20Kimono%20%28Well-Worn%29'
p868
sg13
S'Five-SeveN'
p869
sg15
I0
sg16
F25.699999999999999
sg17
g18
sg19
g57
sba(i__main__
skin
p870
(dp871
g6
I00
sg7
S'Rising Sun'
p872
sg8
I-1
sg9
S'Sunset Storm \xe5\xa3\xb1'
p873
sg11
S'http://steamcommunity.com/market/priceoverview/?currency=13&appid=730&market_hash_name=Desert Eagle%20%7C%20Sunset%20Storm%20%E5%A3%B1%20%28Well-Worn%29'
p874
sg13
S'Desert Eagle'
p875
sg15
I0
sg16
F52.490000000000002
sg17
g18
sg19
g57
sba(i__main__
skin
p876
(dp877
g6
I00
sg7
S'Rising Sun'
p878
sg8
I-1
sg9
S'Sunset Storm \xe5\xbc\x90'
p879
sg11
S'http://steamcommunity.com/market/priceoverview/?currency=13&appid=730&market_hash_name=Desert Eagle%20%7C%20Sunset%20Storm%20%E5%BC%90%20%28Well-Worn%29'
p880
sg13
S'Desert Eagle'
p881
sg15
I0
sg16
F24.5
sg17
g18
sg19
g57
sba(i__main__
skin
p882
(dp883
g6
I00
sg7
S'Rising Sun'
p884
sg8
I-1
sg9
S'Daybreak'
p885
sg11
S'http://steamcommunity.com/market/priceoverview/?currency=13&appid=730&market_hash_name=M4A4%20%7C%20Daybreak%20%28Well-Worn%29'
p886
sg13
S'M4A4'
p887
sg15
I0
sg16
F29.149999999999999
sg17
g18
sg19
g57
sba(i__main__
skin
p888
(dp889
g6
I00
sg7
S'Rising Sun'
p890
sg8
I-1
sg9
S'Akihabara Accept'
p891
sg11
S'http://steamcommunity.com/market/priceoverview/?currency=13&appid=730&market_hash_name=AUG%20%7C%20Akihabara%20Accept%20%28Well-Worn%29'
p892
sg13
S'AUG'
p893
sg15
I0
sg16
F104.89
sg17
g18
sg19
g101
sba(i__main__
skin
p894
(dp895
g6
I00
sg7
S'Rising Sun'
p896
sg8
F85.590000000000003
sg9
S'Hydroponic'
p897
sg11
S'http://steamcommunity.com/market/priceoverview/?currency=13&appid=730&market_hash_name=AK-47%20%7C%20Hydroponic%20%28Well-Worn%29'
p898
sg13
S'AK-47'
p899
sg15
I2
sg16
F93.629999999999995
sg17
g18
sg19
g82
sbasS'Inferno'
p900
(lp901
(i__main__
skin
p902
(dp903
g6
I00
sg7
g900
sg8
F0.89000000000000001
sg9
S'Brass'
p904
sg11
S'http://steamcommunity.com/market/priceoverview/?currency=13&appid=730&market_hash_name=Tec-9%20%7C%20Brass%20%28Well-Worn%29'
p905
sg13
S'Tec-9'
p906
sg15
I43
sg16
F0.88
sg17
g18
sg19
g20
sba(i__main__
skin
p907
(dp908
g6
I00
sg7
S'Inferno'
p909
sg9
S'Anodized Navy'
p910
sg11
S'http://steamcommunity.com/market/priceoverview/?currency=13&appid=730&market_hash_name=Dual Berettas%20%7C%20Anodized%20Navy%20%28Well-Worn%29'
p911
sg13
S'Dual Berettas'
p912
sg17
g18
sg19
g20
sba(i__main__
skin
p913
(dp914
g6
I00
sg7
S'Inferno'
p915
sg8
F1.0700000000000001
sg9
S'Tornado'
p916
sg11
S'http://steamcommunity.com/market/priceoverview/?currency=13&appid=730&market_hash_name=M4A4%20%7C%20Tornado%20%28Well-Worn%29'
p917
sg13
S'M4A4'
p918
sg15
I26
sg16
F1.05
sg17
g18
sg19
g346
sba(i__main__
skin
p919
(dp920
g6
I00
sg7
S'Inferno'
p921
sg8
F0.51000000000000001
sg9
S'Gunsmoke'
p922
sg11
S'http://steamcommunity.com/market/priceoverview/?currency=13&appid=730&market_hash_name=P250%20%7C%20Gunsmoke%20%28Well-Worn%29'
p923
sg13
S'P250'
p924
sg15
I19
sg16
F0.48999999999999999
sg17
g18
sg19
g346
sba(i__main__
skin
p925
(dp926
g6
I00
sg7
S'Inferno'
p927
sg8
F0.42999999999999999
sg9
S'Walnut'
p928
sg11
S'http://steamcommunity.com/market/priceoverview/?currency=13&appid=730&market_hash_name=Nova%20%7C%20Walnut%20%28Well-Worn%29'
p929
sg13
S'Nova'
p930
sg15
I15
sg16
F0.46999999999999997
sg17
g18
sg19
g383
sba(i__main__
skin
p931
(dp932
g6
I00
sg7
S'Inferno'
p933
sg8
F0.22
sg9
S'Sand Dune'
p934
sg11
S'http://steamcommunity.com/market/priceoverview/?currency=13&appid=730&market_hash_name=MAG-7%20%7C%20Sand%20Dune%20%28Well-Worn%29'
p935
sg13
S'MAG-7'
p936
sg15
I4
sg16
F0.26000000000000001
sg17
g18
sg19
g383
sbasS'Shadow Case'
p937
(lp938
(i__main__
skin
p939
(dp940
g6
I00
sg7
g937
sg8
F0.13
sg9
S'Dualing Dragons'
p941
sg11
S'http://steamcommunity.com/market/priceoverview/?currency=13&appid=730&market_hash_name=Dual Berettas%20%7C%20Dualing%20Dragons%20%28Well-Worn%29'
p942
sg13
S'Dual Berettas'
p943
sg15
I768
sg16
F0.13
sg17
g18
sg19
g20
sba(i__main__
skin
p944
(dp945
g6
I00
sg7
S'Shadow Case'
p946
sg8
F0.17000000000000001
sg9
S'Survivor Z'
p947
sg11
S'http://steamcommunity.com/market/priceoverview/?currency=13&appid=730&market_hash_name=FAMAS%20%7C%20Survivor%20Z%20%28Well-Worn%29'
p948
sg13
S'FAMAS'
p949
sg15
I166
sg16
F0.19
sg17
g18
sg19
g20
sba(i__main__
skin
p950
(dp951
g6
I00
sg7
S'Shadow Case'
p952
sg8
F0.25
sg9
S'Wraiths'
p953
sg11
S'http://steamcommunity.com/market/priceoverview/?currency=13&appid=730&market_hash_name=Glock-18%20%7C%20Wraiths%20%28Well-Worn%29'
p954
sg13
S'Glock-18'
p955
sg15
I205
sg16
F0.20999999999999999
sg17
g18
sg19
g20
sba(i__main__
skin
p956
(dp957
g6
I00
sg7
S'Shadow Case'
p958
sg8
F0.10000000000000001
sg9
S'Rangeen'
p959
sg11
S'http://steamcommunity.com/market/priceoverview/?currency=13&appid=730&market_hash_name=MAC-10%20%7C%20Rangeen%20%28Well-Worn%29'
p960
sg13
S'MAC-10'
p961
sg15
I91
sg16
F0.12
sg17
g18
sg19
g20
sba(i__main__
skin
p962
(dp963
g6
I00
sg7
S'Shadow Case'
p964
sg8
F0.14999999999999999
sg9
S'Cobalt Core'
p965
sg11
S'http://steamcommunity.com/market/priceoverview/?currency=13&appid=730&market_hash_name=MAG-7%20%7C%20Cobalt%20Core%20%28Well-Worn%29'
p966
sg13
S'MAG-7'
p967
sg15
I81
sg16
F0.12
sg17
g18
sg19
g20
sba(i__main__
skin
p968
(dp969
g6
I00
sg7
S'Shadow Case'
p970
sg8
F0.14999999999999999
sg9
S'Green Marine'
p971
sg11
S'http://steamcommunity.com/market/priceoverview/?currency=13&appid=730&market_hash_name=SCAR-20%20%7C%20Green%20Marine%20%28Well-Worn%29'
p972
sg13
S'SCAR-20'
p973
sg15
I72
sg16
F0.13
sg17
g18
sg19
g20
sba(i__main__
skin
p974
(dp975
g6
I00
sg7
S'Shadow Case'
p976
sg8
F0.11
sg9
S'Scumbria'
p977
sg11
S'http://steamcommunity.com/market/priceoverview/?currency=13&appid=730&market_hash_name=XM1014%20%7C%20Scumbria%20%28Well-Worn%29'
p978
sg13
S'XM1014'
p979
sg15
I499
sg16
F0.12
sg17
g18
sg19
g20
sba(i__main__
skin
p980
(dp981
g6
I00
sg7
S'Shadow Case'
p982
sg8
F0.69999999999999996
sg9
S'Stone Cold'
p983
sg11
S'http://steamcommunity.com/market/priceoverview/?currency=13&appid=730&market_hash_name=Galil AR%20%7C%20Stone%20Cold%20%28Well-Worn%29'
p984
sg13
S'Galil AR'
p985
sg15
I233
sg16
F0.68999999999999995
sg17
g18
sg19
g57
sba(i__main__
skin
p986
(dp987
g6
I00
sg7
S'Shadow Case'
p988
sg8
F0.68000000000000005
sg9
S'Nebula Crusader'
p989
sg11
S'http://steamcommunity.com/market/priceoverview/?currency=13&appid=730&market_hash_name=M249%20%7C%20Nebula%20Crusader%20%28Well-Worn%29'
p990
sg13
S'M249'
p991
sg15
I322
sg16
F0.69999999999999996
sg17
g18
sg19
g57
sba(i__main__
skin
p992
(dp993
g6
I00
sg7
S'Shadow Case'
p994
sg8
F0.56000000000000005
sg9
S'Special Delivery'
p995
sg11
S'http://steamcommunity.com/market/priceoverview/?currency=13&appid=730&market_hash_name=MP7%20%7C%20Special%20Delivery%20%28Well-Worn%29'
p996
sg13
S'MP7'
p997
sg15
I50
sg16
F0.71999999999999997
sg17
g18
sg19
g57
sba(i__main__
skin
p998
(dp999
g6
I00
sg7
S'Shadow Case'
p1000
sg8
F0.72999999999999998
sg9
S'Wingshot'
p1001
sg11
S'http://steamcommunity.com/market/priceoverview/?currency=13&appid=730&market_hash_name=P250%20%7C%20Wingshot%20%28Well-Worn%29'
p1002
sg13
S'P250'
p1003
sg15
I268
sg16
F0.75
sg17
g18
sg19
g57
sba(i__main__
skin
p1004
(dp1005
g6
I00
sg7
S'Shadow Case'
p1006
sg8
F12.369999999999999
sg9
S'Frontside Misty'
p1007
sg11
S'http://steamcommunity.com/market/priceoverview/?currency=13&appid=730&market_hash_name=AK-47%20%7C%20Frontside%20Misty%20%28Well-Worn%29'
p1008
sg13
S'AK-47'
p1009
sg15
I207
sg16
F12.92
sg17
g18
sg19
g82
sba(i__main__
skin
p1010
(dp1011
g6
I00
sg7
S'Shadow Case'
p1012
sg8
F3.4300000000000002
sg9
S'Flux'
p1013
sg11
S'http://steamcommunity.com/market/priceoverview/?currency=13&appid=730&market_hash_name=G3SG1%20%7C%20Flux%20%28Well-Worn%29'
p1014
sg13
S'G3SG1'
p1015
sg15
I62
sg16
F3.3599999999999999
sg17
g18
sg19
g82
sba(i__main__
skin
p1016
(dp1017
g6
I00
sg7
S'Shadow Case'
p1018
sg8
F4.1799999999999997
sg9
S'Big Iron'
p1019
sg11
S'http://steamcommunity.com/market/priceoverview/?currency=13&appid=730&market_hash_name=SSG 08%20%7C%20Big%20Iron%20%28Well-Worn%29'
p1020
sg13
S'SSG 08'
p1021
sg15
I36
sg16
F4.1799999999999997
sg17
g18
sg19
g82
sba(i__main__
skin
p1022
(dp1023
g6
I00
sg7
S'Shadow Case'
p1024
sg8
F28.59
sg9
S'Golden Coil'
p1025
sg11
S'http://steamcommunity.com/market/priceoverview/?currency=13&appid=730&market_hash_name=M4A1-S%20%7C%20Golden%20Coil%20%28Well-Worn%29'
p1026
sg13
S'M4A1-S'
p1027
sg15
I114
sg16
F28.129999999999999
sg17
g18
sg19
g101
sba(i__main__
skin
p1028
(dp1029
g6
I00
sg7
S'Shadow Case'
p1030
sg8
F23.309999999999999
sg9
S'Kill Confirmed'
p1031
sg11
S'http://steamcommunity.com/market/priceoverview/?currency=13&appid=730&market_hash_name=USP-S%20%7C%20Kill%20Confirmed%20%28Well-Worn%29'
p1032
sg13
S'USP-S'
p1033
sg15
I110
sg16
F23.460000000000001
sg17
g18
sg19
g101
sbasS'eSports 2013'
p1034
(lp1035
(i__main__
skin
p1036
(dp1037
g6
I00
sg7
g1034
sg8
F0.78000000000000003
sg9
S'Faded Zebra'
p1038
sg11
S'http://steamcommunity.com/market/priceoverview/?currency=13&appid=730&market_hash_name=M4A4%20%7C%20Faded%20Zebra%20%28Well-Worn%29'
p1039
sg13
S'M4A4'
p1040
sg15
I28
sg16
F0.87
sg17
g18
sg19
g20
sba(i__main__
skin
p1041
(dp1042
g6
I00
sg7
S'eSports 2013'
p1043
sg9
S'Doomkitty'
p1044
sg11
S'http://steamcommunity.com/market/priceoverview/?currency=13&appid=730&market_hash_name=FAMAS%20%7C%20Doomkitty%20%28Well-Worn%29'
p1045
sg13
S'FAMAS'
p1046
sg17
g18
sg19
g20
sba(i__main__
skin
p1047
(dp1048
g6
I00
sg7
S'eSports 2013'
p1049
sg9
S'Memento'
p1050
sg11
S'http://steamcommunity.com/market/priceoverview/?currency=13&appid=730&market_hash_name=MAG-7%20%7C%20Memento%20%28Well-Worn%29'
p1051
sg13
S'MAG-7'
p1052
sg17
g18
sg19
g20
sba(i__main__
skin
p1053
(dp1054
g6
I00
sg7
S'eSports 2013'
p1055
sg8
F2.8300000000000001
sg9
S'Orange DDPAT'
p1056
sg11
S'http://steamcommunity.com/market/priceoverview/?currency=13&appid=730&market_hash_name=Sawed-Off%20%7C%20Orange%20DDPAT%20%28Well-Worn%29'
p1057
sg13
S'Sawed-Off'
p1058
sg15
I2
sg16
F4.0199999999999996
sg17
g18
sg19
g57
sba(i__main__
skin
p1059
(dp1060
g6
I00
sg7
S'eSports 2013'
p1061
sg9
S'Splash'
p1062
sg11
S'http://steamcommunity.com/market/priceoverview/?currency=13&appid=730&market_hash_name=P250%20%7C%20Splash%20%28Well-Worn%29'
p1063
sg13
S'P250'
p1064
sg17
g18
sg19
g57
sba(i__main__
skin
p1065
(dp1066
g6
I00
sg7
S'eSports 2013'
p1067
sg8
F2.8700000000000001
sg9
S'Orange DDPAT'
p1068
sg11
S'http://steamcommunity.com/market/priceoverview/?currency=13&appid=730&market_hash_name=Galil AR%20%7C%20Orange%20DDPAT%20%28Well-Worn%29'
p1069
sg13
S'Galil AR'
p1070
sg15
I1
sg16
F3.5600000000000001
sg17
g18
sg19
g57
sba(i__main__
skin
p1071
(dp1072
g6
I00
sg7
S'eSports 2013'
p1073
sg8
F9.2100000000000009
sg9
S'Red Laminate'
p1074
sg11
S'http://steamcommunity.com/market/priceoverview/?currency=13&appid=730&market_hash_name=AK-47%20%7C%20Red%20Laminate%20%28Well-Worn%29'
p1075
sg13
S'AK-47'
p1076
sg15
I19
sg16
F9.6899999999999995
sg17
g18
sg19
g82
sba(i__main__
skin
p1077
(dp1078
g6
I00
sg7
S'eSports 2013'
p1079
sg9
S'BOOM'
p1080
sg11
S'http://steamcommunity.com/market/priceoverview/?currency=13&appid=730&market_hash_name=AWP%20%7C%20BOOM%20%28Well-Worn%29'
p1081
sg13
S'AWP'
p1082
sg17
g18
sg19
g82
sba(i__main__
skin
p1083
(dp1084
g6
I00
sg7
S'eSports 2013'
p1085
sg9
S'Death by Kitty'
p1086
sg11
S'http://steamcommunity.com/market/priceoverview/?currency=13&appid=730&market_hash_name=P90%20%7C%20Death%20by%20Kitty%20%28Well-Worn%29'
p1087
sg13
S'P90'
p1088
sg17
g18
sg19
g101
sbasS'Phoenix'
p1089
(lp1090
(i__main__
skin
p1091
(dp1092
g6
I00
sg7
g1089
sg8
F0.080000000000000002
sg9
S'Corporal'
p1093
sg11
S'http://steamcommunity.com/market/priceoverview/?currency=13&appid=730&market_hash_name=UMP-45%20%7C%20Corporal%20%28Well-Worn%29'
p1094
sg13
S'UMP-45'
p1095
sg15
I75
sg16
F0.12
sg17
g18
sg19
g20
sba(i__main__
skin
p1096
(dp1097
g6
I00
sg7
S'Phoenix'
p1098
sg8
F0.080000000000000002
sg9
S'Terrain'
p1099
sg11
S'http://steamcommunity.com/market/priceoverview/?currency=13&appid=730&market_hash_name=Negev%20%7C%20Terrain%20%28Well-Worn%29'
p1100
sg13
S'Negev'
p1101
sg15
I94
sg16
F0.13
sg17
g18
sg19
g20
sba(i__main__
skin
p1102
(dp1103
g6
I00
sg7
S'Phoenix'
p1104
sg8
F0.20999999999999999
sg9
S'Sandstorm'
p1105
sg11
S'http://steamcommunity.com/market/priceoverview/?currency=13&appid=730&market_hash_name=Tec-9%20%7C%20Sandstorm%20%28Well-Worn%29'
p1106
sg13
S'Tec-9'
p1107
sg15
I251
sg16
F0.20999999999999999
sg17
g18
sg19
g20
sba(i__main__
skin
p1108
(dp1109
g6
I00
sg7
S'Phoenix'
p1110
sg8
F0.13
sg9
S'Heaven Guard'
p1111
sg11
S'http://steamcommunity.com/market/priceoverview/?currency=13&appid=730&market_hash_name=MAG-7%20%7C%20Heaven%20Guard%20%28Well-Worn%29'
p1112
sg13
S'MAG-7'
p1113
sg15
I34
sg16
F0.14000000000000001
sg17
g18
sg19
g20
sba(i__main__
skin
p1114
(dp1115
g6
I00
sg7
S'Phoenix'
p1116
sg8
F0.56000000000000005
sg9
S'Heat'
p1117
sg11
S'http://steamcommunity.com/market/priceoverview/?currency=13&appid=730&market_hash_name=MAC-10%20%7C%20Heat%20%28Well-Worn%29'
p1118
sg13
S'MAC-10'
p1119
sg15
I210
sg16
F0.55000000000000004
sg17
g18
sg19
g57
sba(i__main__
skin
p1120
(dp1121
g6
I00
sg7
S'Phoenix'
p1122
sg8
F0.81999999999999995
sg9
S'Pulse'
p1123
sg11
S'http://steamcommunity.com/market/priceoverview/?currency=13&appid=730&market_hash_name=SG 553%20%7C%20Pulse%20%28Well-Worn%29'
p1124
sg13
S'SG 553'
p1125
sg15
I104
sg16
F0.87
sg17
g18
sg19
g57
sba(i__main__
skin
p1126
(dp1127
g6
I00
sg7
S'Phoenix'
p1128
sg8
F0.47999999999999998
sg9
S'Sergeant'
p1129
sg11
S'http://steamcommunity.com/market/priceoverview/?currency=13&appid=730&market_hash_name=FAMAS%20%7C%20Sergeant%20%28Well-Worn%29'
p1130
sg13
S'FAMAS'
p1131
sg15
I136
sg16
F0.48999999999999999
sg17
g18
sg19
g57
sba(i__main__
skin
p1132
(dp1133
g6
I00
sg7
S'Phoenix'
p1134
sg9
S'Guardian'
p1135
sg11
S'http://steamcommunity.com/market/priceoverview/?currency=13&appid=730&market_hash_name=USP-S%20%7C%20Guardian%20%28Well-Worn%29'
p1136
sg13
S'USP-S'
p1137
sg17
g18
sg19
g57
sba(i__main__
skin
p1138
(dp1139
g6
I00
sg7
S'Phoenix'
p1140
sg8
F7.8300000000000001
sg9
S'Redline'
p1141
sg11
S'http://steamcommunity.com/market/priceoverview/?currency=13&appid=730&market_hash_name=AK-47%20%7C%20Redline%20%28Well-Worn%29'
p1142
sg13
S'AK-47'
p1143
sg15
I191
sg16
F6.7000000000000002
sg17
g18
sg19
g82
sba(i__main__
skin
p1144
(dp1145
g6
I00
sg7
S'Phoenix'
p1146
sg8
F4.2000000000000002
sg9
S'Trigon'
p1147
sg11
S'http://steamcommunity.com/market/priceoverview/?currency=13&appid=730&market_hash_name=P90%20%7C%20Trigon%20%28Well-Worn%29'
p1148
sg13
S'P90'
p1149
sg15
I44
sg16
F3.9199999999999999
sg17
g18
sg19
g82
sba(i__main__
skin
p1150
(dp1151
g6
I00
sg7
S'Phoenix'
p1152
sg9
S'Antique'
p1153
sg11
S'http://steamcommunity.com/market/priceoverview/?currency=13&appid=730&market_hash_name=Nova%20%7C%20Antique%20%28Well-Worn%29'
p1154
sg13
S'Nova'
p1155
sg17
g18
sg19
g82
sba(i__main__
skin
p1156
(dp1157
g6
I00
sg7
S'Phoenix'
p1158
sg8
F42.5
sg9
S'Asiimov'
p1159
sg11
S'http://steamcommunity.com/market/priceoverview/?currency=13&appid=730&market_hash_name=AWP%20%7C%20Asiimov%20%28Well-Worn%29'
p1160
sg13
S'AWP'
p1161
sg15
I251
sg16
F39.740000000000002
sg17
g18
sg19
g101
sba(i__main__
skin
p1162
(dp1163
g6
I00
sg7
S'Phoenix'
p1164
sg8
F1.8899999999999999
sg9
S'Chameleon'
p1165
sg11
S'http://steamcommunity.com/market/priceoverview/?currency=13&appid=730&market_hash_name=AUG%20%7C%20Chameleon%20%28Well-Worn%29'
p1166
sg13
S'AUG'
p1167
sg15
I33
sg16
F2.1899999999999999
sg17
g18
sg19
g101
sbasS'Huntsman'
p1168
(lp1169
(i__main__
skin
p1170
(dp1171
g6
I00
sg7
g1168
sg8
F0.38
sg9
S'Isaac'
p1172
sg11
S'http://steamcommunity.com/market/priceoverview/?currency=13&appid=730&market_hash_name=Tec-9%20%7C%20Isaac%20%28Well-Worn%29'
p1173
sg13
S'Tec-9'
p1174
sg15
I546
sg16
F0.38
sg17
g18
sg19
g20
sba(i__main__
skin
p1175
(dp1176
g6
I00
sg7
S'Huntsman'
p1177
sg8
F0.23999999999999999
sg9
S'Slashed'
p1178
sg11
S'http://steamcommunity.com/market/priceoverview/?currency=13&appid=730&market_hash_name=SSG 08%20%7C%20Slashed%20%28Well-Worn%29'
p1179
sg13
S'SSG 08'
p1180
sg15
I446
sg16
F0.25
sg17
g18
sg19
g20
sba(i__main__
skin
p1181
(dp1182
g6
I00
sg7
S'Huntsman'
p1183
sg9
S'Retribution **'
p1184
sg11
S'http://steamcommunity.com/market/priceoverview/?currency=13&appid=730&market_hash_name=Dual Berettas%20%7C%20Retribution%20%2A%2A%20%28Well-Worn%29'
p1185
sg13
S'Dual Berettas'
p1186
sg17
g18
sg19
g20
sba(i__main__
skin
p1187
(dp1188
g6
I00
sg7
S'Huntsman'
p1189
sg8
F0.16
sg9
S'Kami'
p1190
sg11
S'http://steamcommunity.com/market/priceoverview/?currency=13&appid=730&market_hash_name=Galil AR%20%7C%20Kami%20%28Well-Worn%29'
p1191
sg13
S'Galil AR'
p1192
sg15
I30
sg16
F0.17999999999999999
sg17
g18
sg19
g20
sba(i__main__
skin
p1193
(dp1194
g6
I00
sg7
S'Huntsman'
p1195
sg9
S'Desert Warfare **'
p1196
sg11
S'http://steamcommunity.com/market/priceoverview/?currency=13&appid=730&market_hash_name=P90%20%7C%20Desert%20Warfare%20%2A%2A%20%28Well-Worn%29'
p1197
sg13
S'P90'
p1198
sg17
g18
sg19
g20
sba(i__main__
skin
p1199
(dp1200
g6
I00
sg7
S'Huntsman'
p1201
sg9
S'Poison Dart **'
p1202
sg11
S'http://steamcommunity.com/market/priceoverview/?currency=13&appid=730&market_hash_name=CZ75-Auto%20%7C%20Poison%20Dart%20%2A%2A%20%28Well-Worn%29'
p1203
sg13
S'CZ75-Auto'
p1204
sg17
g18
sg19
g20
sba(i__main__
skin
p1205
(dp1206
g6
I00
sg7
S'Huntsman'
p1207
sg9
S'Twist *'
p1208
sg11
S'http://steamcommunity.com/market/priceoverview/?currency=13&appid=730&market_hash_name=CZ75-Auto%20%7C%20Twist%20%2A%20%28Well-Worn%29'
p1209
sg13
S'CZ75-Auto'
p1210
sg17
g18
sg19
g20
sba(i__main__
skin
p1211
(dp1212
g6
I00
sg7
S'Huntsman'
p1213
sg9
S'Module *'
p1214
sg11
S'http://steamcommunity.com/market/priceoverview/?currency=13&appid=730&market_hash_name=P90%20%7C%20Module%20%2A%20%28Well-Worn%29'
p1215
sg13
S'P90'
p1216
sg17
g18
sg19
g20
sba(i__main__
skin
p1217
(dp1218
g6
I00
sg7
S'Huntsman'
p1219
sg9
S'Pulse *'
p1220
sg11
S'http://steamcommunity.com/market/priceoverview/?currency=13&appid=730&market_hash_name=P2000%20%7C%20Pulse%20%2A%20%28Well-Worn%29'
p1221
sg13
S'P2000'
p1222
sg17
g18
sg19
g20
sba(i__main__
skin
p1223
(dp1224
g6
I00
sg7
S'Huntsman'
p1225
sg8
F1.3500000000000001
sg9
S'Torque'
p1226
sg11
S'http://steamcommunity.com/market/priceoverview/?currency=13&appid=730&market_hash_name=AUG%20%7C%20Torque%20%28Well-Worn%29'
p1227
sg13
S'AUG'
p1228
sg15
I30
sg16
F1.5700000000000001
sg17
g18
sg19
g57
sba(i__main__
skin
p1229
(dp1230
g6
I00
sg7
S'Huntsman'
p1231
sg8
F1.3999999999999999
sg9
S'Antique'
p1232
sg11
S'http://steamcommunity.com/market/priceoverview/?currency=13&appid=730&market_hash_name=PP-Bizon%20%7C%20Antique%20%28Well-Worn%29'
p1233
sg13
S'PP-Bizon'
p1234
sg15
I20
sg16
F1.4299999999999999
sg17
g18
sg19
g57
sba(i__main__
skin
p1235
(dp1236
g6
I00
sg7
S'Huntsman'
p1237
sg8
F1.1799999999999999
sg9
S'Heaven Guard'
p1238
sg11
S'http://steamcommunity.com/market/priceoverview/?currency=13&appid=730&market_hash_name=XM1014%20%7C%20Heaven%20Guard%20%28Well-Worn%29'
p1239
sg13
S'XM1014'
p1240
sg15
I24
sg16
F1.26
sg17
g18
sg19
g57
sba(i__main__
skin
p1241
(dp1242
g6
I00
sg7
S'Huntsman'
p1243
sg9
S'Curse **'
p1244
sg11
S'http://steamcommunity.com/market/priceoverview/?currency=13&appid=730&market_hash_name=MAC-10%20%7C%20Curse%20%2A%2A%20%28Well-Worn%29'
p1245
sg13
S'MAC-10'
p1246
sg17
g18
sg19
g57
sba(i__main__
skin
p1247
(dp1248
g6
I00
sg7
S'Huntsman'
p1249
sg9
S'Tatter *'
p1250
sg11
S'http://steamcommunity.com/market/priceoverview/?currency=13&appid=730&market_hash_name=MAC-10%20%7C%20Tatter%20%2A%20%28Well-Worn%29'
p1251
sg13
S'MAC-10'
p1252
sg17
g18
sg19
g57
sba(i__main__
skin
p1253
(dp1254
g6
I00
sg7
S'Huntsman'
p1255
sg8
F4.0700000000000003
sg9
S'Atomic Alloy'
p1256
sg11
S'http://steamcommunity.com/market/priceoverview/?currency=13&appid=730&market_hash_name=M4A1-S%20%7C%20Atomic%20Alloy%20%28Well-Worn%29'
p1257
sg13
S'M4A1-S'
p1258
sg15
I164
sg16
F4.2000000000000002
sg17
g18
sg19
g82
sba(i__main__
skin
p1259
(dp1260
g6
I00
sg7
S'Huntsman'
p1261
sg8
F3.2400000000000002
sg9
S'Cyrex'
p1262
sg11
S'http://steamcommunity.com/market/priceoverview/?currency=13&appid=730&market_hash_name=SCAR-20%20%7C%20Cyrex%20%28Well-Worn%29'
p1263
sg13
S'SCAR-20'
p1264
sg15
I12
sg16
F5.6399999999999997
sg17
g18
sg19
g82
sba(i__main__
skin
p1265
(dp1266
g6
I00
sg7
S'Huntsman'
p1267
sg9
S'Orion **'
p1268
sg11
S'http://steamcommunity.com/market/priceoverview/?currency=13&appid=730&market_hash_name=USP-S%20%7C%20Orion%20%2A%2A%20%28Well-Worn%29'
p1269
sg13
S'USP-S'
p1270
sg17
g18
sg19
g82
sba(i__main__
skin
p1271
(dp1272
g6
I00
sg7
S'Huntsman'
p1273
sg9
S'Caiman *'
p1274
sg11
S'http://steamcommunity.com/market/priceoverview/?currency=13&appid=730&market_hash_name=USP-S%20%7C%20Caiman%20%2A%20%28Well-Worn%29'
p1275
sg13
S'USP-S'
p1276
sg17
g18
sg19
g82
sba(i__main__
skin
p1277
(dp1278
g6
I00
sg7
S'Huntsman'
p1279
sg8
F25.100000000000001
sg9
S'Vulcan'
p1280
sg11
S'http://steamcommunity.com/market/priceoverview/?currency=13&appid=730&market_hash_name=AK-47%20%7C%20Vulcan%20%28Well-Worn%29'
p1281
sg13
S'AK-47'
p1282
sg15
I112
sg16
F24.239999999999998
sg17
g18
sg19
g101
sba(i__main__
skin
p1283
(dp1284
g6
I00
sg7
S'Huntsman'
p1285
sg9
S'Desert-Strike *'
p1286
sg11
S'http://steamcommunity.com/market/priceoverview/?currency=13&appid=730&market_hash_name=M4A4%20%7C%20Desert-Strike%20%2A%20%28Well-Worn%29'
p1287
sg13
S'M4A4'
p1288
sg17
g18
sg19
g101
sba(i__main__
skin
p1289
(dp1290
g6
I00
sg7
S'Huntsman'
p1291
sg9
S'Howl **'
p1292
sg11
S'http://steamcommunity.com/market/priceoverview/?currency=13&appid=730&market_hash_name=M4A4%20%7C%20Howl%20%2A%2A%20%28Well-Worn%29'
p1293
sg13
S'M4A4'
p1294
sg17
g18
sg19
S'Brown'
p1295
sbasS'Cobblestone'
p1296
(lp1297
(i__main__
skin
p1298
(dp1299
g6
I00
sg7
g1296
sg8
I-1
sg9
S'Dragon Lore'
p1300
sg11
S'http://steamcommunity.com/market/priceoverview/?currency=13&appid=730&market_hash_name=AWP%20%7C%20Dragon%20Lore%20%28Well-Worn%29'
p1301
sg13
S'AWP'
p1302
sg15
I0
sg16
I-1
sg17
g18
sg19
g101
sba(i__main__
skin
p1303
(dp1304
g6
I00
sg7
S'Cobblestone'
p1305
sg9
S'Knight'
p1306
sg11
S'http://steamcommunity.com/market/priceoverview/?currency=13&appid=730&market_hash_name=M4A1-S%20%7C%20Knight%20%28Well-Worn%29'
p1307
sg13
S'M4A1-S'
p1308
sg17
g18
sg19
g82
sba(i__main__
skin
p1309
(dp1310
g6
I00
sg7
S'Cobblestone'
p1311
sg9
S'Chalice'
p1312
sg11
S'http://steamcommunity.com/market/priceoverview/?currency=13&appid=730&market_hash_name=CZ75-Auto%20%7C%20Chalice%20%28Well-Worn%29'
p1313
sg13
S'CZ75-Auto'
p1314
sg17
g18
sg19
g57
sba(i__main__
skin
p1315
(dp1316
g6
I00
sg7
S'Cobblestone'
p1317
sg8
I-1
sg9
S'Hand Cannon'
p1318
sg11
S'http://steamcommunity.com/market/priceoverview/?currency=13&appid=730&market_hash_name=Desert Eagle%20%7C%20Hand%20Cannon%20%28Well-Worn%29'
p1319
sg13
S'Desert Eagle'
p1320
sg15
I0
sg16
F70.790000000000006
sg17
g18
sg19
g57
sba(i__main__
skin
p1321
(dp1322
g6
I00
sg7
S'Cobblestone'
p1323
sg9
S'Dark Age'
p1324
sg11
S'http://steamcommunity.com/market/priceoverview/?currency=13&appid=730&market_hash_name=MP9%20%7C%20Dark%20Age%20%28Well-Worn%29'
p1325
sg13
S'MP9'
p1326
sg17
g18
sg19
g20
sba(i__main__
skin
p1327
(dp1328
g6
I00
sg7
S'Cobblestone'
p1329
sg9
S'Chainmail'
p1330
sg11
S'http://steamcommunity.com/market/priceoverview/?currency=13&appid=730&market_hash_name=P2000%20%7C%20Chainmail%20%28Well-Worn%29'
p1331
sg13
S'P2000'
p1332
sg17
g18
sg19
g20
sba(i__main__
skin
p1333
(dp1334
g6
I00
sg7
S'Cobblestone'
p1335
sg8
F0.82999999999999996
sg9
S'Rust Coat'
p1336
sg11
S'http://steamcommunity.com/market/priceoverview/?currency=13&appid=730&market_hash_name=Sawed-Off%20%7C%20Rust%20Coat%20%28Well-Worn%29'
p1337
sg13
S'Sawed-Off'
p1338
sg15
I3
sg16
F1.03
sg17
g18
sg19
g346
sba(i__main__
skin
p1339
(dp1340
g6
I00
sg7
S'Cobblestone'
p1341
sg9
S'Silver'
p1342
sg11
S'http://steamcommunity.com/market/priceoverview/?currency=13&appid=730&market_hash_name=MAG-7%20%7C%20Silver%20%28Well-Worn%29'
p1343
sg13
S'MAG-7'
p1344
sg17
g18
sg19
g346
sba(i__main__
skin
p1345
(dp1346
g6
I00
sg7
S'Cobblestone'
p1347
sg9
S'Green Apple'
p1348
sg11
S'http://steamcommunity.com/market/priceoverview/?currency=13&appid=730&market_hash_name=Nova%20%7C%20Green%20Apple%20%28Well-Worn%29'
p1349
sg13
S'Nova'
p1350
sg17
g18
sg19
g346
sba(i__main__
skin
p1351
(dp1352
g6
I00
sg7
S'Cobblestone'
p1353
sg8
F0.93999999999999995
sg9
S'Royal Blue'
p1354
sg11
S'http://steamcommunity.com/market/priceoverview/?currency=13&appid=730&market_hash_name=USP-S%20%7C%20Royal%20Blue%20%28Well-Worn%29'
p1355
sg13
S'USP-S'
p1356
sg15
I62
sg16
F0.94999999999999996
sg17
g18
sg19
g346
sba(i__main__
skin
p1357
(dp1358
g6
I00
sg7
S'Cobblestone'
p1359
sg9
S'Briar'
p1360
sg11
S'http://steamcommunity.com/market/priceoverview/?currency=13&appid=730&market_hash_name=Dual Berettas%20%7C%20Briar%20%28Well-Worn%29'
p1361
sg13
S'Dual Berettas'
p1362
sg17
g18
sg19
g383
sba(i__main__
skin
p1363
(dp1364
g6
I00
sg7
S'Cobblestone'
p1365
sg8
F0.14000000000000001
sg9
S'Storm'
p1366
sg11
S'http://steamcommunity.com/market/priceoverview/?currency=13&appid=730&market_hash_name=SCAR-20%20%7C%20Storm%20%28Well-Worn%29'
p1367
sg13
S'SCAR-20'
p1368
sg15
I12
sg16
F0.14999999999999999
sg17
g18
sg19
g383
sba(i__main__
skin
p1369
(dp1370
g6
I00
sg7
S'Cobblestone'
p1371
sg8
F0.14999999999999999
sg9
S'Indigo'
p1372
sg11
S'http://steamcommunity.com/market/priceoverview/?currency=13&appid=730&market_hash_name=MAC-10%20%7C%20Indigo%20%28Well-Worn%29'
p1373
sg13
S'MAC-10'
p1374
sg15
I37
sg16
F0.17000000000000001
sg17
g18
sg19
g383
sba(i__main__
skin
p1375
(dp1376
g6
I00
sg7
S'Cobblestone'
p1377
sg8
F0.17999999999999999
sg9
S'Indigo'
p1378
sg11
S'http://steamcommunity.com/market/priceoverview/?currency=13&appid=730&market_hash_name=UMP-45%20%7C%20Indigo%20%28Well-Worn%29'
p1379
sg13
S'UMP-45'
p1380
sg15
I60
sg16
F0.16
sg17
g18
sg19
g383
sba(i__main__
skin
p1381
(dp1382
g6
I00
sg7
S'Cobblestone'
p1383
sg8
F0.14000000000000001
sg9
S'Storm'
p1384
sg11
S'http://steamcommunity.com/market/priceoverview/?currency=13&appid=730&market_hash_name=P90%20%7C%20Storm%20%28Well-Worn%29'
p1385
sg13
S'P90'
p1386
sg15
I29
sg16
F0.13
sg17
g18
sg19
g383
sbasS'Assault'
p1387
(lp1388
(i__main__
skin
p1389
(dp1390
g6
I00
sg7
g1387
sg9
S'Fade'
p1391
sg11
S'http://steamcommunity.com/market/priceoverview/?currency=13&appid=730&market_hash_name=Glock-18%20%7C%20Fade%20%28Well-Worn%29'
p1392
sg13
S'Glock-18'
p1393
sg17
g18
sg19
g57
sba(i__main__
skin
p1394
(dp1395
g6
I00
sg7
S'Assault'
p1396
sg8
F5.8300000000000001
sg9
S'Bulldozer'
p1397
sg11
S'http://steamcommunity.com/market/priceoverview/?currency=13&appid=730&market_hash_name=MP9%20%7C%20Bulldozer%20%28Well-Worn%29'
p1398
sg13
S'MP9'
p1399
sg15
I1
sg16
F7.79
sg17
g18
sg19
g57
sba(i__main__
skin
p1400
(dp1401
g6
I00
sg7
S'Assault'
p1402
sg9
S'Anodized Navy'
p1403
sg11
S'http://steamcommunity.com/market/priceoverview/?currency=13&appid=730&market_hash_name=Negev%20%7C%20Anodized%20Navy%20%28Well-Worn%29'
p1404
sg13
S'Negev'
p1405
sg17
g18
sg19
g20
sba(i__main__
skin
p1406
(dp1407
g6
I00
sg7
S'Assault'
p1408
sg9
S'Hot Rod'
p1409
sg11
S'http://steamcommunity.com/market/priceoverview/?currency=13&appid=730&market_hash_name=AUG%20%7C%20Hot%20Rod%20%28Well-Worn%29'
p1410
sg13
S'AUG'
p1411
sg17
g18
sg19
g20
sba(i__main__
skin
p1412
(dp1413
g6
I00
sg7
S'Assault'
p1414
sg9
S'Candy Apple *'
p1415
sg11
S'http://steamcommunity.com/market/priceoverview/?currency=13&appid=730&market_hash_name=Five-SeveN%20%7C%20Candy%20Apple%20%2A%20%28Well-Worn%29'
p1416
sg13
S'Five-SeveN'
p1417
sg17
g18
sg19
g346
sba(i__main__
skin
p1418
(dp1419
g6
I00
sg7
S'Assault'
p1420
sg8
F1.3500000000000001
sg9
S'Caramel'
p1421
sg11
S'http://steamcommunity.com/market/priceoverview/?currency=13&appid=730&market_hash_name=UMP-45%20%7C%20Caramel%20%28Well-Worn%29'
p1422
sg13
S'UMP-45'
p1423
sg15
I3
sg16
F1.4199999999999999
sg17
g18
sg19
g383
sba(i__main__
skin
p1424
(dp1425
g6
I00
sg7
S'Assault'
p1426
sg8
F1.28
sg9
S'Tornado'
p1427
sg11
S'http://steamcommunity.com/market/priceoverview/?currency=13&appid=730&market_hash_name=SG 553%20%7C%20Tornado%20%28Well-Worn%29'
p1428
sg13
S'SG 553'
p1429
sg15
I2
sg16
F1.4299999999999999
sg17
g18
sg19
g383
sbasS'Train'
p1430
(lp1431
(i__main__
skin
p1432
(dp1433
g6
I00
sg7
g1430
sg8
F0.63
sg9
S'Red Quartz'
p1434
sg11
S'http://steamcommunity.com/market/priceoverview/?currency=13&appid=730&market_hash_name=Tec-9%20%7C%20Red%20Quartz%20%28Well-Worn%29'
p1435
sg13
S'Tec-9'
p1436
sg15
I40
sg16
F0.65000000000000002
sg17
g18
sg19
g57
sba(i__main__
skin
p1437
(dp1438
g6
I00
sg7
S'Train'
p1439
sg8
F0.33000000000000002
sg9
S'Urban Rubble'
p1440
sg11
S'http://steamcommunity.com/market/priceoverview/?currency=13&appid=730&market_hash_name=Desert Eagle%20%7C%20Urban%20Rubble%20%28Well-Worn%29'
p1441
sg13
S'Desert Eagle'
p1442
sg15
I77
sg16
F0.32000000000000001
sg17
g18
sg19
g20
sba(i__main__
skin
p1443
(dp1444
g6
I00
sg7
S'Train'
p1445
sg8
F0.32000000000000001
sg9
S'Amber Fade'
p1446
sg11
S'http://steamcommunity.com/market/priceoverview/?currency=13&appid=730&market_hash_name=Sawed-Off%20%7C%20Amber%20Fade%20%28Well-Worn%29'
p1447
sg13
S'Sawed-Off'
p1448
sg15
I9
sg16
F0.31
sg17
g18
sg19
g20
sba(i__main__
skin
p1449
(dp1450
g6
I00
sg7
S'Train'
p1451
sg9
S'Metallic DDPAT'
p1452
sg11
S'http://steamcommunity.com/market/priceoverview/?currency=13&appid=730&market_hash_name=P250%20%7C%20Metallic%20DDPAT%20%28Well-Worn%29'
p1453
sg13
S'P250'
p1454
sg17
g18
sg19
g346
sba(i__main__
skin
p1455
(dp1456
g6
I00
sg7
S'Train'
p1457
sg9
S'Metallic DDPAT'
p1458
sg11
S'http://steamcommunity.com/market/priceoverview/?currency=13&appid=730&market_hash_name=MAG-7%20%7C%20Metallic%20DDPAT%20%28Well-Worn%29'
p1459
sg13
S'MAG-7'
p1460
sg17
g18
sg19
g346
sba(i__main__
skin
p1461
(dp1462
g6
I00
sg7
S'Train'
p1463
sg9
S'Carbon Fiber'
p1464
sg11
S'http://steamcommunity.com/market/priceoverview/?currency=13&appid=730&market_hash_name=SCAR-20%20%7C%20Carbon%20Fiber%20%28Well-Worn%29'
p1465
sg13
S'SCAR-20'
p1466
sg17
g18
sg19
g346
sba(i__main__
skin
p1467
(dp1468
g6
I00
sg7
S'Train'
p1469
sg8
F0.10000000000000001
sg9
S'Ash Wood'
p1470
sg11
S'http://steamcommunity.com/market/priceoverview/?currency=13&appid=730&market_hash_name=P90%20%7C%20Ash%20Wood%20%28Well-Worn%29'
p1471
sg13
S'P90'
p1472
sg15
I112
sg16
F0.080000000000000002
sg17
g18
sg19
g346
sba(i__main__
skin
p1473
(dp1474
g6
I00
sg7
S'Train'
p1475
sg9
S'Candy Apple'
p1476
sg11
S'http://steamcommunity.com/market/priceoverview/?currency=13&appid=730&market_hash_name=MAC-10%20%7C%20Candy%20Apple%20%28Well-Worn%29'
p1477
sg13
S'MAC-10'
p1478
sg17
g18
sg19
g346
sba(i__main__
skin
p1479
(dp1480
g6
I00
sg7
S'Train'
p1481
sg8
F0.19
sg9
S'Urban DDPAT'
p1482
sg11
S'http://steamcommunity.com/market/priceoverview/?currency=13&appid=730&market_hash_name=M4A4%20%7C%20Urban%20DDPAT%20%28Well-Worn%29'
p1483
sg13
S'M4A4'
p1484
sg15
I604
sg16
F0.16
sg17
g18
sg19
g346
sba(i__main__
skin
p1485
(dp1486
g6
I00
sg7
S'Train'
p1487
sg8
F0.050000000000000003
sg9
S'Urban DDPAT'
p1488
sg11
S'http://steamcommunity.com/market/priceoverview/?currency=13&appid=730&market_hash_name=UMP-45%20%7C%20Urban%20DDPAT%20%28Well-Worn%29'
p1489
sg13
S'UMP-45'
p1490
sg15
I414
sg16
F0.040000000000000001
sg17
g18
sg19
g383
sba(i__main__
skin
p1491
(dp1492
g6
I00
sg7
S'Train'
p1493
sg8
F0.02
sg9
S'Colony'
p1494
sg11
S'http://steamcommunity.com/market/priceoverview/?currency=13&appid=730&market_hash_name=Dual Berettas%20%7C%20Colony%20%28Well-Worn%29'
p1495
sg13
S'Dual Berettas'
p1496
sg15
I521
sg16
F0.040000000000000001
sg17
g18
sg19
g383
sba(i__main__
skin
p1497
(dp1498
g6
I00
sg7
S'Train'
p1499
sg8
F0.02
sg9
S'Polar Camo'
p1500
sg11
S'http://steamcommunity.com/market/priceoverview/?currency=13&appid=730&market_hash_name=G3SG1%20%7C%20Polar%20Camo%20%28Well-Worn%29'
p1501
sg13
S'G3SG1'
p1502
sg15
I471
sg16
F0.040000000000000001
sg17
g18
sg19
g383
sba(i__main__
skin
p1503
(dp1504
g6
I00
sg7
S'Train'
p1505
sg8
F0.029999999999999999
sg9
S'Forest Night'
p1506
sg11
S'http://steamcommunity.com/market/priceoverview/?currency=13&appid=730&market_hash_name=Five-SeveN%20%7C%20Forest%20Night%20%28Well-Worn%29'
p1507
sg13
S'Five-SeveN'
p1508
sg15
I780
sg16
F0.040000000000000001
sg17
g18
sg19
g383
sba(i__main__
skin
p1509
(dp1510
g6
I00
sg7
S'Train'
p1511
sg8
F0.02
sg9
S'Polar Mesh'
p1512
sg11
S'http://steamcommunity.com/market/priceoverview/?currency=13&appid=730&market_hash_name=Nova%20%7C%20Polar%20Mesh%20%28Well-Worn%29'
p1513
sg13
S'Nova'
p1514
sg15
I444
sg16
F0.040000000000000001
sg17
g18
sg19
g383
sba(i__main__
skin
p1515
(dp1516
g6
I00
sg7
S'Train'
p1517
sg8
F0.02
sg9
S'Urban Dashed'
p1518
sg11
S'http://steamcommunity.com/market/priceoverview/?currency=13&appid=730&market_hash_name=PP-Bizon%20%7C%20Urban%20Dashed%20%28Well-Worn%29'
p1519
sg13
S'PP-Bizon'
p1520
sg15
I401
sg16
F0.040000000000000001
sg17
g18
sg19
g383
sbasS'Dust'
p1521
(lp1522
(i__main__
skin
p1523
(dp1524
g6
I00
sg7
g1521
sg8
F2.2599999999999998
sg9
S'Brass'
p1525
sg11
S'http://steamcommunity.com/market/priceoverview/?currency=13&appid=730&market_hash_name=Glock-18%20%7C%20Brass%20%28Well-Worn%29'
p1526
sg13
S'Glock-18'
p1527
sg15
I29
sg16
F2.4100000000000001
sg17
g18
sg19
g57
sba(i__main__
skin
p1528
(dp1529
g6
I00
sg7
S'Dust'
p1530
sg9
S'Scorpion'
p1531
sg11
S'http://steamcommunity.com/market/priceoverview/?currency=13&appid=730&market_hash_name=P2000%20%7C%20Scorpion%20%28Well-Worn%29'
p1532
sg13
S'P2000'
p1533
sg17
g18
sg19
g57
sba(i__main__
skin
p1534
(dp1535
g6
I00
sg7
S'Dust'
p1536
sg9
S'Blaze'
p1537
sg11
S'http://steamcommunity.com/market/priceoverview/?currency=13&appid=730&market_hash_name=Desert Eagle%20%7C%20Blaze%20%28Well-Worn%29'
p1538
sg13
S'Desert Eagle'
p1539
sg17
g18
sg19
g57
sba(i__main__
skin
p1540
(dp1541
g6
I00
sg7
S'Dust'
p1542
sg8
I-1
sg9
S'Copper'
p1543
sg11
S'http://steamcommunity.com/market/priceoverview/?currency=13&appid=730&market_hash_name=Sawed-Off%20%7C%20Copper%20%28Well-Worn%29'
p1544
sg13
S'Sawed-Off'
p1545
sg15
I0
sg16
F6.46
sg17
g18
sg19
g20
sba(i__main__
skin
p1546
(dp1547
g6
I00
sg7
S'Dust'
p1548
sg9
S'Copperhead'
p1549
sg11
S'http://steamcommunity.com/market/priceoverview/?currency=13&appid=730&market_hash_name=AUG%20%7C%20Copperhead%20%28Well-Worn%29'
p1550
sg13
S'AUG'
p1551
sg17
g18
sg19
g20
sba(i__main__
skin
p1552
(dp1553
g6
I00
sg7
S'Dust'
p1554
sg8
F6.0499999999999998
sg9
S'Snake Camo'
p1555
sg11
S'http://steamcommunity.com/market/priceoverview/?currency=13&appid=730&market_hash_name=AWP%20%7C%20Snake%20Camo%20%28Well-Worn%29'
p1556
sg13
S'AWP'
p1557
sg15
I3
sg16
F5.8899999999999997
sg17
g18
sg19
g20
sba(i__main__
skin
p1558
(dp1559
g6
I00
sg7
S'Dust'
p1560
sg8
F1.04
sg9
S'Predator'
p1561
sg11
S'http://steamcommunity.com/market/priceoverview/?currency=13&appid=730&market_hash_name=AK-47%20%7C%20Predator%20%28Well-Worn%29'
p1562
sg13
S'AK-47'
p1563
sg15
I106
sg16
F1.0900000000000001
sg17
g18
sg19
g346
sba(i__main__
skin
p1564
(dp1565
g6
I00
sg7
S'Dust'
p1566
sg8
F0.62
sg9
S'Palm'
p1567
sg11
S'http://steamcommunity.com/market/priceoverview/?currency=13&appid=730&market_hash_name=SCAR-20%20%7C%20Palm%20%28Well-Worn%29'
p1568
sg13
S'SCAR-20'
p1569
sg15
I1
sg16
F0.62
sg17
g18
sg19
g346
sba(i__main__
skin
p1570
(dp1571
g6
I00
sg7
S'Dust'
p1572
sg8
F0.67000000000000004
sg9
S'Desert Storm'
p1573
sg11
S'http://steamcommunity.com/market/priceoverview/?currency=13&appid=730&market_hash_name=M4A4%20%7C%20Desert%20Storm%20%28Well-Worn%29'
p1574
sg13
S'M4A4'
p1575
sg15
I53
sg16
F0.92000000000000004
sg17
g18
sg19
g346
sbasS'Alpha'
p1576
(lp1577
(i__main__
skin
p1578
(dp1579
g6
I00
sg7
g1576
sg9
S'Emerald'
p1580
sg11
S'http://steamcommunity.com/market/priceoverview/?currency=13&appid=730&market_hash_name=SCAR-20%20%7C%20Emerald%20%28Well-Worn%29'
p1581
sg13
S'SCAR-20'
p1582
sg17
g18
sg19
g57
sba(i__main__
skin
p1583
(dp1584
g6
I00
sg7
S'Alpha'
p1585
sg8
I-1
sg9
S'Mayan Dreams'
p1586
sg11
S'http://steamcommunity.com/market/priceoverview/?currency=13&appid=730&market_hash_name=SSG 08%20%7C%20Mayan%20Dreams%20%28Well-Worn%29'
p1587
sg13
S'SSG 08'
p1588
sg15
I0
sg16
F0.85999999999999999
sg17
g18
sg19
g346
sba(i__main__
skin
p1589
(dp1590
g6
I00
sg7
S'Alpha'
p1591
sg8
I-1
sg9
S'Palm'
p1592
sg11
S'http://steamcommunity.com/market/priceoverview/?currency=13&appid=730&market_hash_name=Negev%20%7C%20Palm%20%28Well-Worn%29'
p1593
sg13
S'Negev'
p1594
sg15
I0
sg16
F0.84999999999999998
sg17
g18
sg19
g346
sba(i__main__
skin
p1595
(dp1596
g6
I00
sg7
S'Alpha'
p1597
sg8
F0.81000000000000005
sg9
S'Mosaico'
p1598
sg11
S'http://steamcommunity.com/market/priceoverview/?currency=13&appid=730&market_hash_name=Sawed-Off%20%7C%20Mosaico%20%28Well-Worn%29'
p1599
sg13
S'Sawed-Off'
p1600
sg15
I3
sg16
F0.81999999999999995
sg17
g18
sg19
g346
sba(i__main__
skin
p1601
(dp1602
g6
I00
sg7
S'Alpha'
p1603
sg8
F0.68999999999999995
sg9
S'Facets'
p1604
sg11
S'http://steamcommunity.com/market/priceoverview/?currency=13&appid=730&market_hash_name=P250%20%7C%20Facets%20%28Well-Worn%29'
p1605
sg13
S'P250'
p1606
sg15
I2
sg16
F0.81999999999999995
sg17
g18
sg19
g346
sba(i__main__
skin
p1607
(dp1608
g6
I00
sg7
S'Alpha'
p1609
sg9
S'Anodized Navy'
p1610
sg11
S'http://steamcommunity.com/market/priceoverview/?currency=13&appid=730&market_hash_name=AUG%20%7C%20Anodized%20Navy%20%28Well-Worn%29'
p1611
sg13
S'AUG'
p1612
sg17
g18
sg19
g20
sba(i__main__
skin
p1613
(dp1614
g6
I00
sg7
S'Alpha'
p1615
sg8
I-1
sg9
S'Hazard'
p1616
sg11
S'http://steamcommunity.com/market/priceoverview/?currency=13&appid=730&market_hash_name=MAG-7%20%7C%20Hazard%20%28Well-Worn%29'
p1617
sg13
S'MAG-7'
p1618
sg15
I0
sg16
F4.5999999999999996
sg17
g18
sg19
g20
sba(i__main__
skin
p1619
(dp1620
g6
I00
sg7
S'Alpha'
p1621
sg8
I-1
sg9
S'Rust Coat'
p1622
sg11
S'http://steamcommunity.com/market/priceoverview/?currency=13&appid=730&market_hash_name=PP-Bizon%20%7C%20Rust%20Coat%20%28Well-Worn%29'
p1623
sg13
S'PP-Bizon'
p1624
sg15
I0
sg16
F6.25
sg17
g18
sg19
g20
sba(i__main__
skin
p1625
(dp1626
g6
I00
sg7
S'Alpha'
p1627
sg8
F5.9199999999999999
sg9
S'Spitfire'
p1628
sg11
S'http://steamcommunity.com/market/priceoverview/?currency=13&appid=730&market_hash_name=FAMAS%20%7C%20Spitfire%20%28Well-Worn%29'
p1629
sg13
S'FAMAS'
p1630
sg15
I2
sg16
F6.0099999999999998
sg17
g18
sg19
g57
sba(i__main__
skin
p1631
(dp1632
g6
I00
sg7
S'Alpha'
p1633
sg8
F0.62
sg9
S'Sand Dune'
p1634
sg11
S'http://steamcommunity.com/market/priceoverview/?currency=13&appid=730&market_hash_name=Glock-18%20%7C%20Sand%20Dune%20%28Well-Worn%29'
p1635
sg13
S'Glock-18'
p1636
sg15
I8
sg16
F0.81999999999999995
sg17
g18
sg19
g346
sba(i__main__
skin
p1637
(dp1638
g6
I00
sg7
S'Alpha'
p1639
sg8
F0.33000000000000002
sg9
S'Groundwater'
p1640
sg11
S'http://steamcommunity.com/market/priceoverview/?currency=13&appid=730&market_hash_name=MP7%20%7C%20Groundwater%20%28Well-Worn%29'
p1641
sg13
S'MP7'
p1642
sg15
I6
sg16
F0.41999999999999998
sg17
g18
sg19
g383
sba(i__main__
skin
p1643
(dp1644
g6
I00
sg7
S'Alpha'
p1645
sg8
F0.45000000000000001
sg9
S'Jungle'
p1646
sg11
S'http://steamcommunity.com/market/priceoverview/?currency=13&appid=730&market_hash_name=XM1014%20%7C%20Jungle%20%28Well-Worn%29'
p1647
sg13
S'XM1014'
p1648
sg15
I4
sg16
F0.42999999999999999
sg17
g18
sg19
g383
sba(i__main__
skin
p1649
(dp1650
g6
I00
sg7
S'Alpha'
p1651
sg9
S'Anodized Gunmetal'
p1652
sg11
S'http://steamcommunity.com/market/priceoverview/?currency=13&appid=730&market_hash_name=Five-SeveN%20%7C%20Anodized%20Gunmetal%20%28Well-Worn%29'
p1653
sg13
S'Five-SeveN'
p1654
sg17
g18
sg19
g383
sba(i__main__
skin
p1655
(dp1656
g6
I00
sg7
S'Alpha'
p1657
sg8
F0.38
sg9
S'Dry Season'
p1658
sg11
S'http://steamcommunity.com/market/priceoverview/?currency=13&appid=730&market_hash_name=MP9%20%7C%20Dry%20Season%20%28Well-Worn%29'
p1659
sg13
S'MP9'
p1660
sg15
I3
sg16
F0.39000000000000001
sg17
g18
sg19
g383
sba(i__main__
skin
p1661
(dp1662
g6
I00
sg7
S'Alpha'
p1663
sg8
F0.73999999999999999
sg9
S'Tornado'
p1664
sg11
S'http://steamcommunity.com/market/priceoverview/?currency=13&appid=730&market_hash_name=Tec-9%20%7C%20Tornado%20%28Well-Worn%29'
p1665
sg13
S'Tec-9'
p1666
sg15
I4
sg16
F0.73999999999999999
sg17
g18
sg19
g383
sba(i__main__
skin
p1667
(dp1668
g6
I00
sg7
S'Alpha'
p1669
sg8
F0.32000000000000001
sg9
S'Jungle DDPAT'
p1670
sg11
S'http://steamcommunity.com/market/priceoverview/?currency=13&appid=730&market_hash_name=M249%20%7C%20Jungle%20DDPAT%20%28Well-Worn%29'
p1671
sg13
S'M249'
p1672
sg15
I5
sg16
F0.28999999999999998
sg17
g18
sg19
g383
sbasS'Bank'
p1673
(lp1674
(i__main__
skin
p1675
(dp1676
g6
I00
sg7
g1673
sg8
F1.21
sg9
S'Franklin'
p1677
sg11
S'http://steamcommunity.com/market/priceoverview/?currency=13&appid=730&market_hash_name=P250%20%7C%20Franklin%20%28Well-Worn%29'
p1678
sg13
S'P250'
p1679
sg15
I34
sg16
F1.22
sg17
g18
sg19
g82
sba(i__main__
skin
p1680
(dp1681
g6
I00
sg7
S'Bank'
p1682
sg8
F1.4199999999999999
sg9
S'Emerald Pinstripe'
p1683
sg11
S'http://steamcommunity.com/market/priceoverview/?currency=13&appid=730&market_hash_name=AK-47%20%7C%20Emerald%20Pinstripe%20%28Well-Worn%29'
p1684
sg13
S'AK-47'
p1685
sg15
I584
sg16
F1.4299999999999999
sg17
g18
sg19
g57
sba(i__main__
skin
p1686
(dp1687
g6
I00
sg7
S'Bank'
p1688
sg8
F0.45000000000000001
sg9
S'Tuxedo'
p1689
sg11
S'http://steamcommunity.com/market/priceoverview/?currency=13&appid=730&market_hash_name=CZ75-Auto%20%7C%20Tuxedo%20%28Well-Worn%29'
p1690
sg13
S'CZ75-Auto'
p1691
sg15
I55
sg16
F0.42999999999999999
sg17
g18
sg19
g20
sba(i__main__
skin
p1692
(dp1693
g6
I00
sg7
S'Bank'
p1694
sg9
S'Meteorite'
p1695
sg11
S'http://steamcommunity.com/market/priceoverview/?currency=13&appid=730&market_hash_name=Desert Eagle%20%7C%20Meteorite%20%28Well-Worn%29'
p1696
sg13
S'Desert Eagle'
p1697
sg17
g18
sg19
g20
sba(i__main__
skin
p1698
(dp1699
g6
I00
sg7
S'Bank'
p1700
sg8
F0.37
sg9
S'Tuxedo'
p1701
sg11
S'http://steamcommunity.com/market/priceoverview/?currency=13&appid=730&market_hash_name=Galil AR%20%7C%20Tuxedo%20%28Well-Worn%29'
p1702
sg13
S'Galil AR'
p1703
sg15
I46
sg16
F0.41999999999999998
sg17
g18
sg19
g20
sba(i__main__
skin
p1704
(dp1705
g6
I00
sg7
S'Bank'
p1706
sg9
S'Green Apple'
p1707
sg11
S'http://steamcommunity.com/market/priceoverview/?currency=13&appid=730&market_hash_name=G3SG1%20%7C%20Green%20Apple%20%28Well-Worn%29'
p1708
sg13
S'G3SG1'
p1709
sg17
g18
sg19
g346
sba(i__main__
skin
p1710
(dp1711
g6
I00
sg7
S'Bank'
p1712
sg8
F0.089999999999999997
sg9
S'Death Rattle'
p1713
sg11
S'http://steamcommunity.com/market/priceoverview/?currency=13&appid=730&market_hash_name=Glock-18%20%7C%20Death%20Rattle%20%28Well-Worn%29'
p1714
sg13
S'Glock-18'
p1715
sg15
I209
sg16
F0.10000000000000001
sg17
g18
sg19
g346
sba(i__main__
skin
p1716
(dp1717
g6
I00
sg7
S'Bank'
p1718
sg9
S'Silver'
p1719
sg11
S'http://steamcommunity.com/market/priceoverview/?currency=13&appid=730&market_hash_name=MAC-10%20%7C%20Silver%20%28Well-Worn%29'
p1720
sg13
S'MAC-10'
p1721
sg17
g18
sg19
g346
sba(i__main__
skin
p1722
(dp1723
g6
I00
sg7
S'Bank'
p1724
sg9
S'Caged Steel'
p1725
sg11
S'http://steamcommunity.com/market/priceoverview/?currency=13&appid=730&market_hash_name=Nova%20%7C%20Caged%20Steel%20%28Well-Worn%29'
p1726
sg13
S'Nova'
p1727
sg17
g18
sg19
g346
sba(i__main__
skin
p1728
(dp1729
g6
I00
sg7
S'Bank'
p1730
sg9
S'Carbon Fiber'
p1731
sg11
S'http://steamcommunity.com/market/priceoverview/?currency=13&appid=730&market_hash_name=UMP-45%20%7C%20Carbon%20Fiber%20%28Well-Worn%29'
p1732
sg13
S'UMP-45'
p1733
sg17
g18
sg19
g346
sba(i__main__
skin
p1734
(dp1735
g6
I00
sg7
S'Bank'
p1736
sg8
F0.029999999999999999
sg9
S'Bone Mask'
p1737
sg11
S'http://steamcommunity.com/market/priceoverview/?currency=13&appid=730&market_hash_name=R8 Revolver%20%7C%20Bone%20Mask%20%28Well-Worn%29'
p1738
sg13
S'R8 Revolver'
p1739
sg15
I531
sg16
F0.050000000000000003
sg17
g18
sg19
g383
sba(i__main__
skin
p1740
(dp1741
g6
I00
sg7
S'Bank'
p1742
sg8
F0.050000000000000003
sg9
S'Forest DDPAT'
p1743
sg11
S'http://steamcommunity.com/market/priceoverview/?currency=13&appid=730&market_hash_name=MP7%20%7C%20Forest%20DDPAT%20%28Well-Worn%29'
p1744
sg13
S'MP7'
p1745
sg15
I522
sg16
F0.040000000000000001
sg17
g18
sg19
g383
sba(i__main__
skin
p1746
(dp1747
g6
I00
sg7
S'Bank'
p1748
sg9
S'Army Sheen'
p1749
sg11
S'http://steamcommunity.com/market/priceoverview/?currency=13&appid=730&market_hash_name=Negev%20%7C%20Army%20Sheen%20%28Well-Worn%29'
p1750
sg13
S'Negev'
p1751
sg17
g18
sg19
g383
sba(i__main__
skin
p1752
(dp1753
g6
I00
sg7
S'Bank'
p1754
sg8
F0.02
sg9
S'Forest DDPAT'
p1755
sg11
S'http://steamcommunity.com/market/priceoverview/?currency=13&appid=730&market_hash_name=Sawed-Off%20%7C%20Forest%20DDPAT%20%28Well-Worn%29'
p1756
sg13
S'Sawed-Off'
p1757
sg15
I370
sg16
F0.040000000000000001
sg17
g18
sg19
g383
sba(i__main__
skin
p1758
(dp1759
g6
I00
sg7
S'Bank'
p1760
sg9
S'Army Sheen'
p1761
sg11
S'http://steamcommunity.com/market/priceoverview/?currency=13&appid=730&market_hash_name=SG 553%20%7C%20Army%20Sheen%20%28Well-Worn%29'
p1762
sg13
S'SG 553'
p1763
sg17
g18
sg19
g383
sba(i__main__
skin
p1764
(dp1765
g6
I00
sg7
S'Bank'
p1766
sg8
F0.02
sg9
S'Urban DDPAT'
p1767
sg11
S'http://steamcommunity.com/market/priceoverview/?currency=13&appid=730&market_hash_name=Tec-9%20%7C%20Urban%20DDPAT%20%28Well-Worn%29'
p1768
sg13
S'Tec-9'
p1769
sg15
I577
sg16
F0.040000000000000001
sg17
g18
sg19
g383
sbasS'Dust 2'
p1770
(lp1771
(i__main__
skin
p1772
(dp1773
g6
I00
sg7
g1770
sg8
F2.0899999999999999
sg9
S'Amber Fade'
p1774
sg11
S'http://steamcommunity.com/market/priceoverview/?currency=13&appid=730&market_hash_name=R8 Revolver%20%7C%20Amber%20Fade%20%28Well-Worn%29'
p1775
sg13
S'R8 Revolver'
p1776
sg15
I10
sg16
F2.27
sg17
g18
sg19
g82
sba(i__main__
skin
p1777
(dp1778
g6
I00
sg7
S'Dust 2'
p1779
sg8
F0.66000000000000003
sg9
S'Amber Fade'
p1780
sg11
S'http://steamcommunity.com/market/priceoverview/?currency=13&appid=730&market_hash_name=P2000%20%7C%20Amber%20Fade%20%28Well-Worn%29'
p1781
sg13
S'P2000'
p1782
sg15
I27
sg16
F0.69999999999999996
sg17
g18
sg19
g57
sba(i__main__
skin
p1783
(dp1784
g6
I00
sg7
S'Dust 2'
p1785
sg8
F0.12
sg9
S'Damascus Steel'
p1786
sg11
S'http://steamcommunity.com/market/priceoverview/?currency=13&appid=730&market_hash_name=SG 553%20%7C%20Damascus%20Steel%20%28Well-Worn%29'
p1787
sg13
S'SG 553'
p1788
sg15
I206
sg16
F0.12
sg17
g18
sg19
g20
sba(i__main__
skin
p1789
(dp1790
g6
I00
sg7
S'Dust 2'
p1791
sg8
F0.12
sg9
S'Brass'
p1792
sg11
S'http://steamcommunity.com/market/priceoverview/?currency=13&appid=730&market_hash_name=PP-Bizon%20%7C%20Brass%20%28Well-Worn%29'
p1793
sg13
S'PP-Bizon'
p1794
sg15
I265
sg16
F0.12
sg17
g18
sg19
g20
sba(i__main__
skin
p1795
(dp1796
g6
I00
sg7
S'Dust 2'
p1797
sg8
F1.1699999999999999
sg9
S'VariCamo'
p1798
sg11
S'http://steamcommunity.com/market/priceoverview/?currency=13&appid=730&market_hash_name=M4A1-S%20%7C%20VariCamo%20%28Well-Worn%29'
p1799
sg13
S'M4A1-S'
p1800
sg15
I80
sg16
F1.1100000000000001
sg17
g18
sg19
g20
sba(i__main__
skin
p1801
(dp1802
g6
I00
sg7
S'Dust 2'
p1803
sg8
F0.050000000000000003
sg9
S'Snake Camo'
p1804
sg11
S'http://steamcommunity.com/market/priceoverview/?currency=13&appid=730&market_hash_name=Sawed-Off%20%7C%20Snake%20Camo%20%28Well-Worn%29'
p1805
sg13
S'Sawed-Off'
p1806
sg15
I172
sg16
F0.070000000000000007
sg17
g18
sg19
g346
sba(i__main__
skin
p1807
(dp1808
g6
I00
sg7
S'Dust 2'
p1809
sg8
F0.17999999999999999
sg9
S'Safari Mesh'
p1810
sg11
S'http://steamcommunity.com/market/priceoverview/?currency=13&appid=730&market_hash_name=AK-47%20%7C%20Safari%20Mesh%20%28Well-Worn%29'
p1811
sg13
S'AK-47'
p1812
sg15
I580
sg16
F0.17999999999999999
sg17
g18
sg19
g346
sba(i__main__
skin
p1813
(dp1814
g6
I00
sg7
S'Dust 2'
p1815
sg8
F0.089999999999999997
sg9
S'Orange Peel'
p1816
sg11
S'http://steamcommunity.com/market/priceoverview/?currency=13&appid=730&market_hash_name=Five-SeveN%20%7C%20Orange%20Peel%20%28Well-Worn%29'
p1817
sg13
S'Five-SeveN'
p1818
sg15
I398
sg16
F0.10000000000000001
sg17
g18
sg19
g346
sba(i__main__
skin
p1819
(dp1820
g6
I00
sg7
S'Dust 2'
p1821
sg8
F0.080000000000000002
sg9
S'Palm'
p1822
sg11
S'http://steamcommunity.com/market/priceoverview/?currency=13&appid=730&market_hash_name=MAC-10%20%7C%20Palm%20%28Well-Worn%29'
p1823
sg13
S'MAC-10'
p1824
sg15
I216
sg16
F0.080000000000000002
sg17
g18
sg19
g346
sba(i__main__
skin
p1825
(dp1826
g6
I00
sg7
S'Dust 2'
p1827
sg8
F0.080000000000000002
sg9
S'VariCamo'
p1828
sg11
S'http://steamcommunity.com/market/priceoverview/?currency=13&appid=730&market_hash_name=Tec-9%20%7C%20VariCamo%20%28Well-Worn%29'
p1829
sg13
S'Tec-9'
p1830
sg15
I111
sg16
F0.089999999999999997
sg17
g18
sg19
g346
sba(i__main__
skin
p1831
(dp1832
g6
I00
sg7
S'Dust 2'
p1833
sg8
F0.02
sg9
S'Desert Storm'
p1834
sg11
S'http://steamcommunity.com/market/priceoverview/?currency=13&appid=730&market_hash_name=G3SG1%20%7C%20Desert%20Storm%20%28Well-Worn%29'
p1835
sg13
S'G3SG1'
p1836
sg15
I473
sg16
F0.040000000000000001
sg17
g18
sg19
g383
sba(i__main__
skin
p1837
(dp1838
g6
I00
sg7
S'Dust 2'
p1839
sg8
F0.02
sg9
S'Sand Dune'
p1840
sg11
S'http://steamcommunity.com/market/priceoverview/?currency=13&appid=730&market_hash_name=P250%20%7C%20Sand%20Dune%20%28Well-Worn%29'
p1841
sg13
S'P250'
p1842
sg15
I514
sg16
F0.040000000000000001
sg17
g18
sg19
g383
sba(i__main__
skin
p1843
(dp1844
g6
I00
sg7
S'Dust 2'
p1845
sg8
F0.02
sg9
S'Sand Mesh'
p1846
sg11
S'http://steamcommunity.com/market/priceoverview/?currency=13&appid=730&market_hash_name=SCAR-20%20%7C%20Sand%20Mesh%20%28Well-Worn%29'
p1847
sg13
S'SCAR-20'
p1848
sg15
I418
sg16
F0.040000000000000001
sg17
g18
sg19
g383
sba(i__main__
skin
p1849
(dp1850
g6
I00
sg7
S'Dust 2'
p1851
sg8
F0.02
sg9
S'Sand Spray'
p1852
sg11
S'http://steamcommunity.com/market/priceoverview/?currency=13&appid=730&market_hash_name=P90%20%7C%20Sand%20Spray%20%28Well-Worn%29'
p1853
sg13
S'P90'
p1854
sg15
I528
sg16
F0.040000000000000001
sg17
g18
sg19
g383
sba(i__main__
skin
p1855
(dp1856
g6
I00
sg7
S'Dust 2'
p1857
sg8
F0.050000000000000003
sg9
S'Sand Dashed'
p1858
sg11
S'http://steamcommunity.com/market/priceoverview/?currency=13&appid=730&market_hash_name=MP9%20%7C%20Sand%20Dashed%20%28Well-Worn%29'
p1859
sg13
S'MP9'
p1860
sg15
I374
sg16
F0.040000000000000001
sg17
g18
sg19
g383
sba(i__main__
skin
p1861
(dp1862
g6
I00
sg7
S'Dust 2'
p1863
sg8
F0.02
sg9
S'Predator'
p1864
sg11
S'http://steamcommunity.com/market/priceoverview/?currency=13&appid=730&market_hash_name=Nova%20%7C%20Predator%20%28Well-Worn%29'
p1865
sg13
S'Nova'
p1866
sg15
I294
sg16
F0.040000000000000001
sg17
g18
sg19
g383
sbasS'Aztec'
p1867
(lp1868
(i__main__
skin
p1869
(dp1870
g6
I00
sg7
g1867
sg9
S'Ossified'
p1871
sg11
S'http://steamcommunity.com/market/priceoverview/?currency=13&appid=730&market_hash_name=Tec-9%20%7C%20Ossified%20%28Well-Worn%29'
p1872
sg13
S'Tec-9'
p1873
sg17
g18
sg19
g20
sba(i__main__
skin
p1874
(dp1875
g6
I00
sg7
S'Aztec'
p1876
sg8
F0.84999999999999998
sg9
S'Jungle Tiger'
p1877
sg11
S'http://steamcommunity.com/market/priceoverview/?currency=13&appid=730&market_hash_name=M4A4%20%7C%20Jungle%20Tiger%20%28Well-Worn%29'
p1878
sg13
S'M4A4'
p1879
sg15
I34
sg16
F0.84999999999999998
sg17
g18
sg19
g346
sba(i__main__
skin
p1880
(dp1881
g6
I00
sg7
S'Aztec'
p1882
sg8
F1.26
sg9
S'Jungle Spray'
p1883
sg11
S'http://steamcommunity.com/market/priceoverview/?currency=13&appid=730&market_hash_name=AK-47%20%7C%20Jungle%20Spray%20%28Well-Worn%29'
p1884
sg13
S'AK-47'
p1885
sg15
I48
sg16
F1.24
sg17
g18
sg19
g346
sba(i__main__
skin
p1886
(dp1887
g6
I00
sg7
S'Aztec'
p1888
sg8
F0.84999999999999998
sg9
S'Lichen Dashed'
p1889
sg11
S'http://steamcommunity.com/market/priceoverview/?currency=13&appid=730&market_hash_name=SSG 08%20%7C%20Lichen%20Dashed%20%28Well-Worn%29'
p1890
sg13
S'SSG 08'
p1891
sg15
I52
sg16
F0.78000000000000003
sg17
g18
sg19
g383
sba(i__main__
skin
p1892
(dp1893
g6
I00
sg7
S'Aztec'
p1894
sg8
F0.19
sg9
S'Jungle'
p1895
sg11
S'http://steamcommunity.com/market/priceoverview/?currency=13&appid=730&market_hash_name=Five-SeveN%20%7C%20Jungle%20%28Well-Worn%29'
p1896
sg13
S'Five-SeveN'
p1897
sg15
I6
sg16
F0.39000000000000001
sg17
g18
sg19
g383
sba(i__main__
skin
p1898
(dp1899
g6
I00
sg7
S'Aztec'
p1900
sg8
F0.059999999999999998
sg9
S'Forest Leaves'
p1901
sg11
S'http://steamcommunity.com/market/priceoverview/?currency=13&appid=730&market_hash_name=Nova%20%7C%20Forest%20Leaves%20%28Well-Worn%29'
p1902
sg13
S'Nova'
p1903
sg15
I4
sg16
F0.28999999999999998
sg17
g18
sg19
g383
sbasS'Arms Deal 3'
p1904
(lp1905
(i__main__
skin
p1906
(dp1907
g6
I00
sg7
g1904
sg8
F0.5
sg9
S'Crimson Web'
p1908
sg11
S'http://steamcommunity.com/market/priceoverview/?currency=13&appid=730&market_hash_name=CZ75-Auto%20%7C%20Crimson%20Web%20%28Well-Worn%29'
p1909
sg13
S'CZ75-Auto'
p1910
sg15
I49
sg16
F0.52000000000000002
sg17
g18
sg19
g20
sba(i__main__
skin
p1911
(dp1912
g6
I00
sg7
S'Arms Deal 3'
p1913
sg8
F0.44
sg9
S'Red FragCam'
p1914
sg11
S'http://steamcommunity.com/market/priceoverview/?currency=13&appid=730&market_hash_name=P2000%20%7C%20Red%20FragCam%20%28Well-Worn%29'
p1915
sg13
S'P2000'
p1916
sg15
I8
sg16
F0.41999999999999998
sg17
g18
sg19
g20
sba(i__main__
skin
p1917
(dp1918
g6
I00
sg7
S'Arms Deal 3'
p1919
sg8
F0.76000000000000001
sg9
S'Panther'
p1920
sg11
S'http://steamcommunity.com/market/priceoverview/?currency=13&appid=730&market_hash_name=Dual Berettas%20%7C%20Panther%20%28Well-Worn%29'
p1921
sg13
S'Dual Berettas'
p1922
sg15
I9
sg16
F0.81000000000000005
sg17
g18
sg19
g20
sba(i__main__
skin
p1923
(dp1924
g6
I00
sg7
S'Arms Deal 3'
p1925
sg8
F1.77
sg9
S'Stainless'
p1926
sg11
S'http://steamcommunity.com/market/priceoverview/?currency=13&appid=730&market_hash_name=USP-S%20%7C%20Stainless%20%28Well-Worn%29'
p1927
sg13
S'USP-S'
p1928
sg15
I29
sg16
F1.8600000000000001
sg17
g18
sg19
g20
sba(i__main__
skin
p1929
(dp1930
g6
I00
sg7
S'Arms Deal 3'
p1931
sg8
F1.28
sg9
S'Blue Fissure'
p1932
sg11
S'http://steamcommunity.com/market/priceoverview/?currency=13&appid=730&market_hash_name=Glock-18%20%7C%20Blue%20Fissure%20%28Well-Worn%29'
p1933
sg13
S'Glock-18'
p1934
sg15
I29
sg16
F1.26
sg17
g18
sg19
g20
sba(i__main__
skin
p1935
(dp1936
g6
I00
sg7
S'Arms Deal 3'
p1937
sg9
S'Tread Plate'
p1938
sg11
S'http://steamcommunity.com/market/priceoverview/?currency=13&appid=730&market_hash_name=CZ75-Auto%20%7C%20Tread%20Plate%20%28Well-Worn%29'
p1939
sg13
S'CZ75-Auto'
p1940
sg17
g18
sg19
g57
sba(i__main__
skin
p1941
(dp1942
g6
I00
sg7
S'Arms Deal 3'
p1943
sg9
S'Titanium Bit'
p1944
sg11
S'http://steamcommunity.com/market/priceoverview/?currency=13&appid=730&market_hash_name=Tec-9%20%7C%20Titanium%20Bit%20%28Well-Worn%29'
p1945
sg13
S'Tec-9'
p1946
sg17
g18
sg19
g57
sba(i__main__
skin
p1947
(dp1948
g6
I00
sg7
S'Arms Deal 3'
p1949
sg8
F2.3399999999999999
sg9
S'Heirloom'
p1950
sg11
S'http://steamcommunity.com/market/priceoverview/?currency=13&appid=730&market_hash_name=Desert Eagle%20%7C%20Heirloom%20%28Well-Worn%29'
p1951
sg13
S'Desert Eagle'
p1952
sg15
I13
sg16
F2.3300000000000001
sg17
g18
sg19
g57
sba(i__main__
skin
p1953
(dp1954
g6
I00
sg7
S'Arms Deal 3'
p1955
sg9
S'Copper Galaxy'
p1956
sg11
S'http://steamcommunity.com/market/priceoverview/?currency=13&appid=730&market_hash_name=Five-SeveN%20%7C%20Copper%20Galaxy%20%28Well-Worn%29'
p1957
sg13
S'Five-SeveN'
p1958
sg17
g18
sg19
g57
sba(i__main__
skin
p1959
(dp1960
g6
I00
sg7
S'Arms Deal 3'
p1961
sg8
I-1
sg9
S'The Fuschia Is Now'
p1962
sg11
S'http://steamcommunity.com/market/priceoverview/?currency=13&appid=730&market_hash_name=CZ75-Auto%20%7C%20The%20Fuschia%20Is%20Now%20%28Well-Worn%29'
p1963
sg13
S'CZ75-Auto'
p1964
sg15
I0
sg16
F7.1699999999999999
sg17
g18
sg19
g82
sba(i__main__
skin
p1965
(dp1966
g6
I00
sg7
S'Arms Deal 3'
p1967
sg9
S'Undertow'
p1968
sg11
S'http://steamcommunity.com/market/priceoverview/?currency=13&appid=730&market_hash_name=P250%20%7C%20Undertow%20%28Well-Worn%29'
p1969
sg13
S'P250'
p1970
sg17
g18
sg19
g82
sba(i__main__
skin
p1971
(dp1972
g6
I00
sg7
S'Arms Deal 3'
p1973
sg8
F7.0499999999999998
sg9
S'Victoria'
p1974
sg11
S'http://steamcommunity.com/market/priceoverview/?currency=13&appid=730&market_hash_name=CZ75-Auto%20%7C%20Victoria%20%28Well-Worn%29'
p1975
sg13
S'CZ75-Auto'
p1976
sg15
I4
sg16
F7.0099999999999998
sg17
g18
sg19
g101
sbasS'Vanguard'
p1977
(lp1978
(i__main__
skin
p1979
(dp1980
g6
I00
sg7
g1977
sg9
S'Murky'
p1981
sg11
S'http://steamcommunity.com/market/priceoverview/?currency=13&appid=730&market_hash_name=G3SG1%20%7C%20Murky%20%28Well-Worn%29'
p1982
sg13
S'G3SG1'
p1983
sg17
g18
sg19
g20
sba(i__main__
skin
p1984
(dp1985
g6
I00
sg7
S'Vanguard'
p1986
sg8
F0.46000000000000002
sg9
S'Firestarter'
p1987
sg11
S'http://steamcommunity.com/market/priceoverview/?currency=13&appid=730&market_hash_name=MAG-7%20%7C%20Firestarter%20%28Well-Worn%29'
p1988
sg13
S'MAG-7'
p1989
sg15
I40
sg16
F0.41999999999999998
sg17
g18
sg19
g20
sba(i__main__
skin
p1990
(dp1991
g6
I00
sg7
S'Vanguard'
p1992
sg8
F0.47999999999999998
sg9
S'Dart'
p1993
sg11
S'http://steamcommunity.com/market/priceoverview/?currency=13&appid=730&market_hash_name=MP9%20%7C%20Dart%20%28Well-Worn%29'
p1994
sg13
S'MP9'
p1995
sg15
I25
sg16
F0.42999999999999999
sg17
g18
sg19
g20
sba(i__main__
skin
p1996
(dp1997
g6
I00
sg7
S'Vanguard'
p1998
sg9
S'Urban Hazard'
p1999
sg11
S'http://steamcommunity.com/market/priceoverview/?currency=13&appid=730&market_hash_name=Five-SeveN%20%7C%20Urban%20Hazard%20%28Well-Worn%29'
p2000
sg13
S'Five-SeveN'
p2001
sg17
g18
sg19
g20
sba(i__main__
skin
p2002
(dp2003
g6
I00
sg7
S'Vanguard'
p2004
sg9
S'Delusion'
p2005
sg11
S'http://steamcommunity.com/market/priceoverview/?currency=13&appid=730&market_hash_name=UMP-45%20%7C%20Delusion%20%28Well-Worn%29'
p2006
sg13
S'UMP-45'
p2007
sg17
g18
sg19
g20
sba(i__main__
skin
p2008
(dp2009
g6
I00
sg7
S'Vanguard'
p2010
sg9
S'Grinder'
p2011
sg11
S'http://steamcommunity.com/market/priceoverview/?currency=13&appid=730&market_hash_name=Glock-18%20%7C%20Grinder%20%28Well-Worn%29'
p2012
sg13
S'Glock-18'
p2013
sg17
g18
sg19
g57
sba(i__main__
skin
p2014
(dp2015
g6
I00
sg7
S'Vanguard'
p2016
sg8
F2.9100000000000001
sg9
S'Basilisk'
p2017
sg11
S'http://steamcommunity.com/market/priceoverview/?currency=13&appid=730&market_hash_name=M4A1-S%20%7C%20Basilisk%20%28Well-Worn%29'
p2018
sg13
S'M4A1-S'
p2019
sg15
I66
sg16
F2.6800000000000002
sg17
g18
sg19
g57
sba(i__main__
skin
p2020
(dp2021
g6
I00
sg7
S'Vanguard'
p2022
sg8
F2.6899999999999999
sg9
S'Griffin'
p2023
sg11
S'http://steamcommunity.com/market/priceoverview/?currency=13&appid=730&market_hash_name=M4A4%20%7C%20Griffin%20%28Well-Worn%29'
p2024
sg13
S'M4A4'
p2025
sg15
I42
sg16
F2.8100000000000001
sg17
g18
sg19
g57
sba(i__main__
skin
p2026
(dp2027
g6
I00
sg7
S'Vanguard'
p2028
sg8
F0.40000000000000002
sg9
S'Highwayman'
p2029
sg11
S'http://steamcommunity.com/market/priceoverview/?currency=13&appid=730&market_hash_name=Sawed-Off%20%7C%20Highwayman%20%28Well-Worn%29'
p2030
sg13
S'Sawed-Off'
p2031
sg15
I29
sg16
F0.47999999999999998
sg17
g18
sg19
g57
sba(i__main__
skin
p2032
(dp2033
g6
I00
sg7
S'Vanguard'
p2034
sg8
F3.5600000000000001
sg9
S'Cartel'
p2035
sg11
S'http://steamcommunity.com/market/priceoverview/?currency=13&appid=730&market_hash_name=P250%20%7C%20Cartel%20%28Well-Worn%29'
p2036
sg13
S'P250'
p2037
sg15
I6
sg16
F3.4199999999999999
sg17
g18
sg19
g82
sba(i__main__
skin
p2038
(dp2039
g6
I00
sg7
S'Vanguard'
p2040
sg8
F2.9100000000000001
sg9
S'Cardiac'
p2041
sg11
S'http://steamcommunity.com/market/priceoverview/?currency=13&appid=730&market_hash_name=SCAR-20%20%7C%20Cardiac%20%28Well-Worn%29'
p2042
sg13
S'SCAR-20'
p2043
sg15
I42
sg16
F2.7200000000000002
sg17
g18
sg19
g82
sba(i__main__
skin
p2044
(dp2045
g6
I00
sg7
S'Vanguard'
p2046
sg8
F2.9900000000000002
sg9
S'Tranquility'
p2047
sg11
S'http://steamcommunity.com/market/priceoverview/?currency=13&appid=730&market_hash_name=XM1014%20%7C%20Tranquility%20%28Well-Worn%29'
p2048
sg13
S'XM1014'
p2049
sg15
I3
sg16
F2.9900000000000002
sg17
g18
sg19
g82
sba(i__main__
skin
p2050
(dp2051
g6
I00
sg7
S'Vanguard'
p2052
sg8
F22.32
sg9
S'Wasteland Rebel'
p2053
sg11
S'http://steamcommunity.com/market/priceoverview/?currency=13&appid=730&market_hash_name=AK-47%20%7C%20Wasteland%20Rebel%20%28Well-Worn%29'
p2054
sg13
S'AK-47'
p2055
sg15
I22
sg16
F20.93
sg17
g18
sg19
g101
sba(i__main__
skin
p2056
(dp2057
g6
I00
sg7
S'Vanguard'
p2058
sg8
F12.369999999999999
sg9
S'Fire Elemental'
p2059
sg11
S'http://steamcommunity.com/market/priceoverview/?currency=13&appid=730&market_hash_name=P2000%20%7C%20Fire%20Elemental%20%28Well-Worn%29'
p2060
sg13
S'P2000'
p2061
sg15
I11
sg16
F11.18
sg17
g18
sg19
g101
sbasS'Militia'
p2062
(lp2063
(i__main__
skin
p2064
(dp2065
g6
I00
sg7
g2062
sg8
F2.5800000000000001
sg9
S'Splash Jam'
p2066
sg11
S'http://steamcommunity.com/market/priceoverview/?currency=13&appid=730&market_hash_name=SCAR-20%20%7C%20Splash%20Jam%20%28Well-Worn%29'
p2067
sg13
S'SCAR-20'
p2068
sg15
I4
sg16
F2.5499999999999998
sg17
g321
sg19
g82
sba(i__main__
skin
p2069
(dp2070
g6
I00
sg7
S'Militia'
p2071
sg9
S'Modern Hunter *'
p2072
sg11
S'http://steamcommunity.com/market/priceoverview/?currency=13&appid=730&market_hash_name=M4A4%20%7C%20Modern%20Hunter%20%2A%20%28Well-Worn%29'
p2073
sg13
S'M4A4'
p2074
sg17
g321
sg19
g57
sba(i__main__
skin
p2075
(dp2076
g6
I00
sg7
S'Militia'
p2077
sg8
I-1
sg9
S'Modern Hunter'
p2078
sg11
S'http://steamcommunity.com/market/priceoverview/?currency=13&appid=730&market_hash_name=PP-Bizon%20%7C%20Modern%20Hunter%20%28Well-Worn%29'
p2079
sg13
S'PP-Bizon'
p2080
sg15
I0
sg16
F78.609999999999999
sg17
g321
sg19
g20
sba(i__main__
skin
p2081
(dp2082
g6
I00
sg7
S'Militia'
p2083
sg8
F3.0800000000000001
sg9
S'Blaze Orange'
p2084
sg11
S'http://steamcommunity.com/market/priceoverview/?currency=13&appid=730&market_hash_name=XM1014%20%7C%20Blaze%20Orange%20%28Well-Worn%29'
p2085
sg13
S'XM1014'
p2086
sg15
I1
sg16
F9.2100000000000009
sg17
g321
sg19
g20
sba(i__main__
skin
p2087
(dp2088
g6
I00
sg7
S'Militia'
p2089
sg8
F2.6200000000000001
sg9
S'Modern Hunter'
p2090
sg11
S'http://steamcommunity.com/market/priceoverview/?currency=13&appid=730&market_hash_name=P250%20%7C%20Modern%20Hunter%20%28Well-Worn%29'
p2091
sg13
S'P250'
p2092
sg15
I1
sg16
F2.3799999999999999
sg17
g321
sg19
g20
sba(i__main__
skin
p2093
(dp2094
g6
I00
sg7
S'Militia'
p2095
sg8
F5.8600000000000003
sg9
S'Blaze Orange'
p2096
sg11
S'http://steamcommunity.com/market/priceoverview/?currency=13&appid=730&market_hash_name=Nova%20%7C%20Blaze%20Orange%20%28Well-Worn%29'
p2097
sg13
S'Nova'
p2098
sg15
I1
sg16
F7.5599999999999996
sg17
g321
sg19
g20
sba(i__main__
skin
p2099
(dp2100
g6
I00
sg7
S'Militia'
p2101
sg8
I-1
sg9
S'Modern Hunter'
p2102
sg11
S'http://steamcommunity.com/market/priceoverview/?currency=13&appid=730&market_hash_name=Nova%20%7C%20Modern%20Hunter%20%28Well-Worn%29'
p2103
sg13
S'Nova'
p2104
sg15
I0
sg16
F2.5699999999999998
sg17
g321
sg19
g20
sba(i__main__
skin
p2105
(dp2106
g6
I00
sg7
S'Militia'
p2107
sg9
S'Grassland Leaves *'
p2108
sg11
S'http://steamcommunity.com/market/priceoverview/?currency=13&appid=730&market_hash_name=P2000%20%7C%20Grassland%20Leaves%20%2A%20%28Well-Worn%29'
p2109
sg13
S'P2000'
p2110
sg17
g321
sg19
g346
sba(i__main__
skin
p2111
(dp2112
g6
I00
sg7
S'Militia'
p2113
sg8
F0.28000000000000003
sg9
S'Forest Leaves'
p2114
sg11
S'http://steamcommunity.com/market/priceoverview/?currency=13&appid=730&market_hash_name=PP-Bizon%20%7C%20Forest%20Leaves%20%28Well-Worn%29'
p2115
sg13
S'PP-Bizon'
p2116
sg15
I9
sg16
F0.27000000000000002
sg17
g321
sg19
g383
sba(i__main__
skin
p2117
(dp2118
g6
I00
sg7
S'Militia'
p2119
sg8
F0.32000000000000001
sg9
S'Tornado'
p2120
sg11
S'http://steamcommunity.com/market/priceoverview/?currency=13&appid=730&market_hash_name=MAC-10%20%7C%20Tornado%20%28Well-Worn%29'
p2121
sg13
S'MAC-10'
p2122
sg15
I12
sg16
F0.31
sg17
g321
sg19
g383
sba(i__main__
skin
p2123
(dp2124
g6
I00
sg7
S'Militia'
p2125
sg8
F0.34000000000000002
sg9
S'Grassland'
p2126
sg11
S'http://steamcommunity.com/market/priceoverview/?currency=13&appid=730&market_hash_name=XM1014%20%7C%20Grassland%20%28Well-Worn%29'
p2127
sg13
S'XM1014'
p2128
sg15
I7
sg16
F0.34999999999999998
sg17
g321
sg19
g383
sbasS'Revolver Content'
p2129
(lp2130
(i__main__
skin
p2131
(dp2132
g6
I00
sg7
g2129
sg8
F0.17999999999999999
sg9
S'Crimson Web'
p2133
sg11
S'http://steamcommunity.com/market/priceoverview/?currency=13&appid=730&market_hash_name=R8 Revolver%20%7C%20Crimson%20Web%20%28Well-Worn%29'
p2134
sg13
S'R8 Revolver'
p2135
sg15
I477
sg16
F0.17999999999999999
sg17
g18
sg19
g20
sba(i__main__
skin
p2136
(dp2137
g6
I00
sg7
S'Revolver Content'
p2138
sg8
F0.33000000000000002
sg9
S'Ricochet'
p2139
sg11
S'http://steamcommunity.com/market/priceoverview/?currency=13&appid=730&market_hash_name=AUG%20%7C%20Ricochet%20%28Well-Worn%29'
p2140
sg13
S'AUG'
p2141
sg15
I99
sg16
F0.29999999999999999
sg17
g18
sg19
g20
sba(i__main__
skin
p2142
(dp2143
g6
I00
sg7
S'Revolver Content'
p2144
sg8
F0.41999999999999998
sg9
S'Corinthian'
p2145
sg11
S'http://steamcommunity.com/market/priceoverview/?currency=13&appid=730&market_hash_name=Desert Eagle%20%7C%20Corinthian%20%28Well-Worn%29'
p2146
sg13
S'Desert Eagle'
p2147
sg15
I183
sg16
F0.39000000000000001
sg17
g18
sg19
g20
sba(i__main__
skin
p2148
(dp2149
g6
I00
sg7
S'Revolver Content'
p2150
sg9
S'Imperial'
p2151
sg11
S'http://steamcommunity.com/market/priceoverview/?currency=13&appid=730&market_hash_name=P2000%20%7C%20Imperial%20%28Well-Worn%29'
p2152
sg13
S'P2000'
p2153
sg17
g18
sg19
g20
sba(i__main__
skin
p2154
(dp2155
g6
I00
sg7
S'Revolver Content'
p2156
sg8
F0.14999999999999999
sg9
S'Yorick'
p2157
sg11
S'http://steamcommunity.com/market/priceoverview/?currency=13&appid=730&market_hash_name=Sawed-Off%20%7C%20Yorick%20%28Well-Worn%29'
p2158
sg13
S'Sawed-Off'
p2159
sg15
I455
sg16
F0.14000000000000001
sg17
g18
sg19
g20
sba(i__main__
skin
p2160
(dp2161
g6
I00
sg7
S'Revolver Content'
p2162
sg8
F0.81999999999999995
sg9
S'Fuel Rod'
p2163
sg11
S'http://steamcommunity.com/market/priceoverview/?currency=13&appid=730&market_hash_name=PP-Bizon%20%7C%20Fuel%20Rod%20%28Well-Worn%29'
p2164
sg13
S'PP-Bizon'
p2165
sg15
I139
sg16
F0.88
sg17
g18
sg19
g57
sba(i__main__
skin
p2166
(dp2167
g6
I00
sg7
S'Revolver Content'
p2168
sg8
F0.93999999999999995
sg9
S'Retrobution'
p2169
sg11
S'http://steamcommunity.com/market/priceoverview/?currency=13&appid=730&market_hash_name=Five-SeveN%20%7C%20Retrobution%20%28Well-Worn%29'
p2170
sg13
S'Five-SeveN'
p2171
sg15
I306
sg16
F0.97999999999999998
sg17
g18
sg19
g57
sba(i__main__
skin
p2172
(dp2173
g6
I00
sg7
S'Revolver Content'
p2174
sg8
F0.71999999999999997
sg9
S'Power Loader'
p2175
sg11
S'http://steamcommunity.com/market/priceoverview/?currency=13&appid=730&market_hash_name=Negev%20%7C%20Power%20Loader%20%28Well-Worn%29'
p2176
sg13
S'Negev'
p2177
sg15
I137
sg16
F0.84999999999999998
sg17
g18
sg19
g57
sba(i__main__
skin
p2178
(dp2179
g6
I00
sg7
S'Revolver Content'
p2180
sg8
F0.96999999999999997
sg9
S'Tiger Moth'
p2181
sg11
S'http://steamcommunity.com/market/priceoverview/?currency=13&appid=730&market_hash_name=SG 553%20%7C%20Tiger%20Moth%20%28Well-Worn%29'
p2182
sg13
S'SG 553'
p2183
sg15
I204
sg16
F0.87
sg17
g18
sg19
g57
sba(i__main__
skin
p2184
(dp2185
g6
I00
sg7
S'Revolver Content'
p2186
sg8
F1.6399999999999999
sg9
S'Avalanche'
p2187
sg11
S'http://steamcommunity.com/market/priceoverview/?currency=13&appid=730&market_hash_name=Tec-9%20%7C%20Avalanche%20%28Well-Worn%29'
p2188
sg13
S'Tec-9'
p2189
sg15
I255
sg16
F1.72
sg17
g18
sg19
g57
sba(i__main__
skin
p2190
(dp2191
g6
I00
sg7
S'Revolver Content'
p2192
sg8
F0.93000000000000005
sg9
S'Teclu Burner'
p2193
sg11
S'http://steamcommunity.com/market/priceoverview/?currency=13&appid=730&market_hash_name=XM1014%20%7C%20Teclu%20Burner%20%28Well-Worn%29'
p2194
sg13
S'XM1014'
p2195
sg15
I19
sg16
F1.1200000000000001
sg17
g18
sg19
g57
sba(i__main__
skin
p2196
(dp2197
g6
I00
sg7
S'Revolver Content'
p2198
sg8
F15.710000000000001
sg9
S'Point Disarray'
p2199
sg11
S'http://steamcommunity.com/market/priceoverview/?currency=13&appid=730&market_hash_name=AK-47%20%7C%20Point%20Disarray%20%28Well-Worn%29'
p2200
sg13
S'AK-47'
p2201
sg15
I38
sg16
F16.399999999999999
sg17
g18
sg19
g82
sba(i__main__
skin
p2202
(dp2203
g6
I00
sg7
S'Revolver Content'
p2204
sg8
F2.1000000000000001
sg9
S'The Executioner'
p2205
sg11
S'http://steamcommunity.com/market/priceoverview/?currency=13&appid=730&market_hash_name=G3SG1%20%7C%20The%20Executioner%20%28Well-Worn%29'
p2206
sg13
S'G3SG1'
p2207
sg15
I94
sg16
F2.0899999999999999
sg17
g18
sg19
g82
sba(i__main__
skin
p2208
(dp2209
g6
I00
sg7
S'Revolver Content'
p2210
sg8
F2.2400000000000002
sg9
S'Shapewood'
p2211
sg11
S'http://steamcommunity.com/market/priceoverview/?currency=13&appid=730&market_hash_name=P90%20%7C%20Shapewood%20%28Well-Worn%29'
p2212
sg13
S'P90'
p2213
sg15
I161
sg16
F2.3399999999999999
sg17
g18
sg19
g82
sba(i__main__
skin
p2214
(dp2215
g6
I00
sg7
S'Revolver Content'
p2216
sg8
F20.050000000000001
sg9
S'Royal Paladin'
p2217
sg11
S'http://steamcommunity.com/market/priceoverview/?currency=13&appid=730&market_hash_name=M4A4%20%7C%20Royal%20Paladin%20%28Well-Worn%29'
p2218
sg13
S'M4A4'
p2219
sg15
I10
sg16
F20.09
sg17
g18
sg19
g101
sba(i__main__
skin
p2220
(dp2221
g6
I00
sg7
S'Revolver Content'
p2222
sg8
F10.640000000000001
sg9
S'Fade'
p2223
sg11
S'http://steamcommunity.com/market/priceoverview/?currency=13&appid=730&market_hash_name=R8 Revolver%20%7C%20Fade%20%28Well-Worn%29'
p2224
sg13
S'R8 Revolver'
p2225
sg15
I4
sg16
F10.609999999999999
sg17
g18
sg19
g101
sbasS'Gods and Monsters'
p2226
(lp2227
(i__main__
skin
p2228
(dp2229
g6
I00
sg7
g2226
sg8
F0.58999999999999997
sg9
S'Asterion'
p2230
sg11
S'http://steamcommunity.com/market/priceoverview/?currency=13&appid=730&market_hash_name=MP7%20%7C%20Asterion%20%28Well-Worn%29'
p2231
sg13
S'MP7'
p2232
sg15
I22
sg16
F0.65000000000000002
sg17
g18
sg19
g383
sba(i__main__
skin
p2233
(dp2234
g6
I00
sg7
S'Gods and Monsters'
p2235
sg8
F0.58999999999999997
sg9
S'Daedalus'
p2236
sg11
S'http://steamcommunity.com/market/priceoverview/?currency=13&appid=730&market_hash_name=AUG%20%7C%20Daedalus%20%28Well-Worn%29'
p2237
sg13
S'AUG'
p2238
sg15
I17
sg16
F0.59999999999999998
sg17
g18
sg19
g383
sba(i__main__
skin
p2239
(dp2240
g6
I00
sg7
S'Gods and Monsters'
p2241
sg8
F0.70999999999999996
sg9
S'Moon in Libra'
p2242
sg11
S'http://steamcommunity.com/market/priceoverview/?currency=13&appid=730&market_hash_name=Dual Berettas%20%7C%20Moon%20in%20Libra%20%28Well-Worn%29'
p2243
sg13
S'Dual Berettas'
p2244
sg15
I18
sg16
F0.70999999999999996
sg17
g18
sg19
g383
sba(i__main__
skin
p2245
(dp2246
g6
I00
sg7
S'Gods and Monsters'
p2247
sg8
F0.63
sg9
S'Moon in Libra'
p2248
sg11
S'http://steamcommunity.com/market/priceoverview/?currency=13&appid=730&market_hash_name=Nova%20%7C%20Moon%20in%20Libra%20%28Well-Worn%29'
p2249
sg13
S'Nova'
p2250
sg15
I8
sg16
F0.68999999999999995
sg17
g18
sg19
g383
sba(i__main__
skin
p2251
(dp2252
g6
I00
sg7
S'Gods and Monsters'
p2253
sg8
F2.1800000000000002
sg9
S'Hades'
p2254
sg11
S'http://steamcommunity.com/market/priceoverview/?currency=13&appid=730&market_hash_name=Tec-9%20%7C%20Hades%20%28Well-Worn%29'
p2255
sg13
S'Tec-9'
p2256
sg15
I12
sg16
F2.27
sg17
g18
sg19
g346
sba(i__main__
skin
p2257
(dp2258
g6
I00
sg7
S'Gods and Monsters'
p2259
sg9
S'Pathfinder'
p2260
sg11
S'http://steamcommunity.com/market/priceoverview/?currency=13&appid=730&market_hash_name=P2000%20%7C%20Pathfinder%20%28Well-Worn%29'
p2261
sg13
S'P2000'
p2262
sg17
g18
sg19
g346
sba(i__main__
skin
p2263
(dp2264
g6
I00
sg7
S'Gods and Monsters'
p2265
sg8
F5.5800000000000001
sg9
S'Sun in Leo'
p2266
sg11
S'http://steamcommunity.com/market/priceoverview/?currency=13&appid=730&market_hash_name=AWP%20%7C%20Sun%20in%20Leo%20%28Well-Worn%29'
p2267
sg13
S'AWP'
p2268
sg15
I53
sg16
F5.6100000000000003
sg17
g18
sg19
g346
sba(i__main__
skin
p2269
(dp2270
g6
I00
sg7
S'Gods and Monsters'
p2271
sg8
F2.3300000000000001
sg9
S'Shipping Forecast'
p2272
sg11
S'http://steamcommunity.com/market/priceoverview/?currency=13&appid=730&market_hash_name=M249%20%7C%20Shipping%20Forecast%20%28Well-Worn%29'
p2273
sg13
S'M249'
p2274
sg15
I1
sg16
F2.6099999999999999
sg17
g18
sg19
g346
sba(i__main__
skin
p2275
(dp2276
g6
I00
sg7
S'Gods and Monsters'
p2277
sg8
I-1
sg9
S"Minotaur's Labyrinth"
p2278
sg11
S'http://steamcommunity.com/market/priceoverview/?currency=13&appid=730&market_hash_name=UMP-45%20%7C%20Minotaur%27s%20Labyrinth%20%28Well-Worn%29'
p2279
sg13
S'UMP-45'
p2280
sg15
I0
sg16
F24.949999999999999
sg17
g18
sg19
g20
sba(i__main__
skin
p2281
(dp2282
g6
I00
sg7
S'Gods and Monsters'
p2283
sg9
S"Pandora's Box"
p2284
sg11
S'http://steamcommunity.com/market/priceoverview/?currency=13&appid=730&market_hash_name=MP9%20%7C%20Pandora%27s%20Box%20%28Well-Worn%29'
p2285
sg13
S'MP9'
p2286
sg17
g18
sg19
g20
sba(i__main__
skin
p2287
(dp2288
g6
I00
sg7
S'Gods and Monsters'
p2289
sg8
F52.030000000000001
sg9
S'Chronos'
p2290
sg11
S'http://steamcommunity.com/market/priceoverview/?currency=13&appid=730&market_hash_name=G3SG1%20%7C%20Chronos%20%28Well-Worn%29'
p2291
sg13
S'G3SG1'
p2292
sg15
I1
sg16
F190
sg17
g18
sg19
g57
sba(i__main__
skin
p2293
(dp2294
g6
I00
sg7
S'Gods and Monsters'
p2295
sg9
S'Icarus Fell'
p2296
sg11
S'http://steamcommunity.com/market/priceoverview/?currency=13&appid=730&market_hash_name=M4A1-S%20%7C%20Icarus%20Fell%20%28Well-Worn%29'
p2297
sg13
S'M4A1-S'
p2298
sg17
g18
sg19
g57
sba(i__main__
skin
p2299
(dp2300
g6
I00
sg7
S'Gods and Monsters'
p2301
sg9
S'Poseidon'
p2302
sg11
S'http://steamcommunity.com/market/priceoverview/?currency=13&appid=730&market_hash_name=M4A4%20%7C%20Poseidon%20%28Well-Worn%29'
p2303
sg13
S'M4A4'
p2304
sg17
g18
sg19
g82
sba(i__main__
skin
p2305
(dp2306
g6
I00
sg7
S'Gods and Monsters'
p2307
sg8
I-1
sg9
S'Medusa'
p2308
sg11
S'http://steamcommunity.com/market/priceoverview/?currency=13&appid=730&market_hash_name=AWP%20%7C%20Medusa%20%28Well-Worn%29'
p2309
sg13
S'AWP'
p2310
sg15
I0
sg16
I-1
sg17
g18
sg19
g101
sbasS'Vertigo'
p2311
(lp2312
(i__main__
skin
p2313
(dp2314
g6
I00
sg7
g2311
sg8
F1.28
sg9
S'Demolition'
p2315
sg11
S'http://steamcommunity.com/market/priceoverview/?currency=13&appid=730&market_hash_name=Dual Berettas%20%7C%20Demolition%20%28Well-Worn%29'
p2316
sg13
S'Dual Berettas'
p2317
sg15
I25
sg16
F1.29
sg17
g18
sg19
g57
sba(i__main__
skin
p2318
(dp2319
g6
I00
sg7
S'Vertigo'
p2320
sg8
F8.2599999999999998
sg9
S'Black Laminate'
p2321
sg11
S'http://steamcommunity.com/market/priceoverview/?currency=13&appid=730&market_hash_name=AK-47%20%7C%20Black%20Laminate%20%28Well-Worn%29'
p2322
sg13
S'AK-47'
p2323
sg15
I16
sg16
F8.5800000000000001
sg17
g18
sg19
g20
sba(i__main__
skin
p2324
(dp2325
g6
I00
sg7
S'Vertigo'
p2326
sg8
F2.6299999999999999
sg9
S'Glacier Mesh'
p2327
sg11
S'http://steamcommunity.com/market/priceoverview/?currency=13&appid=730&market_hash_name=P90%20%7C%20Glacier%20Mesh%20%28Well-Worn%29'
p2328
sg13
S'P90'
p2329
sg15
I1
sg16
F2.8100000000000001
sg17
g18
sg19
g20
sba(i__main__
skin
p2330
(dp2331
g6
I00
sg7
S'Vertigo'
p2332
sg9
S'Carbon Fiber'
p2333
sg11
S'http://steamcommunity.com/market/priceoverview/?currency=13&appid=730&market_hash_name=PP-Bizon%20%7C%20Carbon%20Fiber%20%28Well-Worn%29'
p2334
sg13
S'PP-Bizon'
p2335
sg17
g18
sg19
g346
sba(i__main__
skin
p2336
(dp2337
g6
I00
sg7
S'Vertigo'
p2338
sg8
F0.68000000000000005
sg9
S'Urban DDPAT'
p2339
sg11
S'http://steamcommunity.com/market/priceoverview/?currency=13&appid=730&market_hash_name=MAC-10%20%7C%20Urban%20DDPAT%20%28Well-Worn%29'
p2340
sg13
S'MAC-10'
p2341
sg15
I4
sg16
F0.69999999999999996
sg17
g18
sg19
g383
sba(i__main__
skin
p2342
(dp2343
g6
I00
sg7
S'Vertigo'
p2344
sg8
F0.68999999999999995
sg9
S'Urban Perforated'
p2345
sg11
S'http://steamcommunity.com/market/priceoverview/?currency=13&appid=730&market_hash_name=XM1014%20%7C%20Urban%20Perforated%20%28Well-Worn%29'
p2346
sg13
S'XM1014'
p2347
sg15
I2
sg16
F0.70999999999999996
sg17
g18
sg19
g383
sbasS'Overpass'
p2348
(lp2349
(i__main__
skin
p2350
(dp2351
g6
I00
sg7
g2348
sg8
F76.400000000000006
sg9
S'Master Piece'
p2352
sg11
S'http://steamcommunity.com/market/priceoverview/?currency=13&appid=730&market_hash_name=M4A1-S%20%7C%20Master%20Piece%20%28Well-Worn%29'
p2353
sg13
S'M4A1-S'
p2354
sg15
I16
sg16
F74.579999999999998
sg17
g18
sg19
g82
sba(i__main__
skin
p2355
(dp2356
g6
I00
sg7
S'Overpass'
p2357
sg8
F19.280000000000001
sg9
S'Road Rash'
p2358
sg11
S'http://steamcommunity.com/market/priceoverview/?currency=13&appid=730&market_hash_name=USP-S%20%7C%20Road%20Rash%20%28Well-Worn%29'
p2359
sg13
S'USP-S'
p2360
sg15
I6
sg16
F19.260000000000002
sg17
g18
sg19
g57
sba(i__main__
skin
p2361
(dp2362
g6
I00
sg7
S'Overpass'
p2363
sg8
F22.600000000000001
sg9
S'Pink DDPAT'
p2364
sg11
S'http://steamcommunity.com/market/priceoverview/?currency=13&appid=730&market_hash_name=AWP%20%7C%20Pink%20DDPAT%20%28Well-Worn%29'
p2365
sg13
S'AWP'
p2366
sg15
I17
sg16
F22.600000000000001
sg17
g18
sg19
g57
sba(i__main__
skin
p2367
(dp2368
g6
I00
sg7
S'Overpass'
p2369
sg8
F5.3399999999999999
sg9
S'VariCamo Blue'
p2370
sg11
S'http://steamcommunity.com/market/priceoverview/?currency=13&appid=730&market_hash_name=XM1014%20%7C%20VariCamo%20Blue%20%28Well-Worn%29'
p2371
sg13
S'XM1014'
p2372
sg15
I2
sg16
F5.6600000000000001
sg17
g18
sg19
g20
sba(i__main__
skin
p2373
(dp2374
g6
I00
sg7
S'Overpass'
p2375
sg8
I-1
sg9
S'Detour'
p2376
sg11
S'http://steamcommunity.com/market/priceoverview/?currency=13&appid=730&market_hash_name=SSG 08%20%7C%20Detour%20%28Well-Worn%29'
p2377
sg13
S'SSG 08'
p2378
sg15
I0
sg16
F5.0099999999999998
sg17
g18
sg19
g20
sba(i__main__
skin
p2379
(dp2380
g6
I00
sg7
S'Overpass'
p2381
sg8
F5.2199999999999998
sg9
S'Nitro'
p2382
sg11
S'http://steamcommunity.com/market/priceoverview/?currency=13&appid=730&market_hash_name=CZ75-Auto%20%7C%20Nitro%20%28Well-Worn%29'
p2383
sg13
S'CZ75-Auto'
p2384
sg15
I3
sg16
F6.5300000000000002
sg17
g18
sg19
g20
sba(i__main__
skin
p2385
(dp2386
g6
I00
sg7
S'Overpass'
p2387
sg8
F0.60999999999999999
sg9
S'Grassland'
p2388
sg11
S'http://steamcommunity.com/market/priceoverview/?currency=13&appid=730&market_hash_name=P2000%20%7C%20Grassland%20%28Well-Worn%29'
p2389
sg13
S'P2000'
p2390
sg15
I8
sg16
F0.60999999999999999
sg17
g18
sg19
g346
sba(i__main__
skin
p2391
(dp2392
g6
I00
sg7
S'Overpass'
p2393
sg8
F0.71999999999999997
sg9
S'Night'
p2394
sg11
S'http://steamcommunity.com/market/priceoverview/?currency=13&appid=730&market_hash_name=Glock-18%20%7C%20Night%20%28Well-Worn%29'
p2395
sg13
S'Glock-18'
p2396
sg15
I34
sg16
F0.71999999999999997
sg17
g18
sg19
g346
sba(i__main__
skin
p2397
(dp2398
g6
I00
sg7
S'Overpass'
p2399
sg8
F0.72999999999999998
sg9
S'Gunsmoke'
p2400
sg11
S'http://steamcommunity.com/market/priceoverview/?currency=13&appid=730&market_hash_name=MP7%20%7C%20Gunsmoke%20%28Well-Worn%29'
p2401
sg13
S'MP7'
p2402
sg15
I18
sg16
F0.71999999999999997
sg17
g18
sg19
g346
sba(i__main__
skin
p2403
(dp2404
g6
I00
sg7
S'Overpass'
p2405
sg8
F0.68000000000000005
sg9
S'Urban DDPAT'
p2406
sg11
S'http://steamcommunity.com/market/priceoverview/?currency=13&appid=730&market_hash_name=Desert Eagle%20%7C%20Urban%20DDPAT%20%28Well-Worn%29'
p2407
sg13
S'Desert Eagle'
p2408
sg15
I45
sg16
F0.64000000000000001
sg17
g18
sg19
g346
sba(i__main__
skin
p2409
(dp2410
g6
I00
sg7
S'Overpass'
p2411
sg8
F0.10000000000000001
sg9
S'Storm'
p2412
sg11
S'http://steamcommunity.com/market/priceoverview/?currency=13&appid=730&market_hash_name=MP9%20%7C%20Storm%20%28Well-Worn%29'
p2413
sg13
S'MP9'
p2414
sg15
I34
sg16
F0.10000000000000001
sg17
g18
sg19
g383
sba(i__main__
skin
p2415
(dp2416
g6
I00
sg7
S'Overpass'
p2417
sg8
F0.080000000000000002
sg9
S'Storm'
p2418
sg11
S'http://steamcommunity.com/market/priceoverview/?currency=13&appid=730&market_hash_name=MAG-7%20%7C%20Storm%20%28Well-Worn%29'
p2419
sg13
S'MAG-7'
p2420
sg15
I46
sg16
F0.10000000000000001
sg17
g18
sg19
g383
sba(i__main__
skin
p2421
(dp2422
g6
I00
sg7
S'Overpass'
p2423
sg8
F0.070000000000000007
sg9
S'Contrast Spray'
p2424
sg11
S'http://steamcommunity.com/market/priceoverview/?currency=13&appid=730&market_hash_name=M249%20%7C%20Contrast%20Spray%20%28Well-Worn%29'
p2425
sg13
S'M249'
p2426
sg15
I32
sg16
F0.089999999999999997
sg17
g18
sg19
g383
sba(i__main__
skin
p2427
(dp2428
g6
I00
sg7
S'Overpass'
p2429
sg8
F0.10000000000000001
sg9
S'Scorched'
p2430
sg11
S'http://steamcommunity.com/market/priceoverview/?currency=13&appid=730&market_hash_name=UMP-45%20%7C%20Scorched%20%28Well-Worn%29'
p2431
sg13
S'UMP-45'
p2432
sg15
I51
sg16
F0.089999999999999997
sg17
g18
sg19
g383
sba(i__main__
skin
p2433
(dp2434
g6
I00
sg7
S'Overpass'
p2435
sg8
F0.080000000000000002
sg9
S'Sage Spray'
p2436
sg11
S'http://steamcommunity.com/market/priceoverview/?currency=13&appid=730&market_hash_name=Sawed-Off%20%7C%20Sage%20Spray%20%28Well-Worn%29'
p2437
sg13
S'Sawed-Off'
p2438
sg15
I19
sg16
F0.10000000000000001
sg17
g18
sg19
g383
sbasS'Arms Deal Two'
p2439
(lp2440
(i__main__
skin
p2441
(dp2442
g6
I00
sg7
g2439
sg9
S'Blue Titanium'
p2443
sg11
S'http://steamcommunity.com/market/priceoverview/?currency=13&appid=730&market_hash_name=Tec-9%20%7C%20Blue%20Titanium%20%28Well-Worn%29'
p2444
sg13
S'Tec-9'
p2445
sg17
g18
sg19
g20
sba(i__main__
skin
p2446
(dp2447
g6
I00
sg7
S'Arms Deal Two'
p2448
sg9
S'Blood Tiger'
p2449
sg11
S'http://steamcommunity.com/market/priceoverview/?currency=13&appid=730&market_hash_name=M4A1-S%20%7C%20Blood%20Tiger%20%28Well-Worn%29'
p2450
sg13
S'M4A1-S'
p2451
sg17
g18
sg19
g20
sba(i__main__
skin
p2452
(dp2453
g6
I00
sg7
S'Arms Deal Two'
p2454
sg8
F0.85999999999999999
sg9
S'Hexane'
p2455
sg11
S'http://steamcommunity.com/market/priceoverview/?currency=13&appid=730&market_hash_name=FAMAS%20%7C%20Hexane%20%28Well-Worn%29'
p2456
sg13
S'FAMAS'
p2457
sg15
I5
sg16
F0.94999999999999996
sg17
g18
sg19
g20
sba(i__main__
skin
p2458
(dp2459
g6
I00
sg7
S'Arms Deal Two'
p2460
sg9
S'Hive'
p2461
sg11
S'http://steamcommunity.com/market/priceoverview/?currency=13&appid=730&market_hash_name=P250%20%7C%20Hive%20%28Well-Worn%29'
p2462
sg13
S'P250'
p2463
sg17
g18
sg19
g20
sba(i__main__
skin
p2464
(dp2465
g6
I00
sg7
S'Arms Deal Two'
p2466
sg8
F0.89000000000000001
sg9
S'Crimson Web'
p2467
sg11
S'http://steamcommunity.com/market/priceoverview/?currency=13&appid=730&market_hash_name=SCAR-20%20%7C%20Crimson%20Web%20%28Well-Worn%29'
p2468
sg13
S'SCAR-20'
p2469
sg15
I20
sg16
F0.75
sg17
g18
sg19
g20
sba(i__main__
skin
p2470
(dp2471
g6
I00
sg7
S'Arms Deal Two'
p2472
sg8
F4.0700000000000003
sg9
S'Case Hardened'
p2473
sg11
S'http://steamcommunity.com/market/priceoverview/?currency=13&appid=730&market_hash_name=Five-SeveN%20%7C%20Case%20Hardened%20%28Well-Worn%29'
p2474
sg13
S'Five-SeveN'
p2475
sg15
I102
sg16
F4.0599999999999996
sg17
g18
sg19
g57
sba(i__main__
skin
p2476
(dp2477
g6
I00
sg7
S'Arms Deal Two'
p2478
sg9
S'Hypnotic'
p2479
sg11
S'http://steamcommunity.com/market/priceoverview/?currency=13&appid=730&market_hash_name=MP9%20%7C%20Hypnotic%20%28Well-Worn%29'
p2480
sg13
S'MP9'
p2481
sg17
g18
sg19
g57
sba(i__main__
skin
p2482
(dp2483
g6
I00
sg7
S'Arms Deal Two'
p2484
sg9
S'Graphite'
p2485
sg11
S'http://steamcommunity.com/market/priceoverview/?currency=13&appid=730&market_hash_name=Nova%20%7C%20Graphite%20%28Well-Worn%29'
p2486
sg13
S'Nova'
p2487
sg17
g18
sg19
g57
sba(i__main__
skin
p2488
(dp2489
g6
I00
sg7
S'Arms Deal Two'
p2490
sg9
S'Hemoglobin'
p2491
sg11
S'http://steamcommunity.com/market/priceoverview/?currency=13&appid=730&market_hash_name=Dual Berettas%20%7C%20Hemoglobin%20%28Well-Worn%29'
p2492
sg13
S'Dual Berettas'
p2493
sg17
g18
sg19
g57
sba(i__main__
skin
p2494
(dp2495
g6
I00
sg7
S'Arms Deal Two'
p2496
sg9
S'Cold Blooded'
p2497
sg11
S'http://steamcommunity.com/market/priceoverview/?currency=13&appid=730&market_hash_name=P90%20%7C%20Cold%20Blooded%20%28Well-Worn%29'
p2498
sg13
S'P90'
p2499
sg17
g18
sg19
g82
sba(i__main__
skin
p2500
(dp2501
g6
I00
sg7
S'Arms Deal Two'
p2502
sg9
S'Serum'
p2503
sg11
S'http://steamcommunity.com/market/priceoverview/?currency=13&appid=730&market_hash_name=USP-S%20%7C%20Serum%20%28Well-Worn%29'
p2504
sg13
S'USP-S'
p2505
sg17
g18
sg19
g82
sba(i__main__
skin
p2506
(dp2507
g6
I00
sg7
S'Arms Deal Two'
p2508
sg9
S'Blood in the Water'
p2509
sg11
S'http://steamcommunity.com/market/priceoverview/?currency=13&appid=730&market_hash_name=SSG 08%20%7C%20Blood%20in%20the%20Water%20%28Well-Worn%29'
p2510
sg13
S'SSG 08'
p2511
sg17
g18
sg19
g101
sbasS'Office'
p2512
(lp2513
(i__main__
skin
p2514
(dp2515
g6
I00
sg7
g2512
sg8
F2.0600000000000001
sg9
S'Whiteout'
p2516
sg11
S'http://steamcommunity.com/market/priceoverview/?currency=13&appid=730&market_hash_name=MP7%20%7C%20Whiteout%20%28Well-Worn%29'
p2517
sg13
S'MP7'
p2518
sg15
I6
sg16
F2.0299999999999998
sg17
g18
sg19
g20
sba(i__main__
skin
p2519
(dp2520
g6
I00
sg7
S'Office'
p2521
sg9
S'Silver'
p2522
sg11
S'http://steamcommunity.com/market/priceoverview/?currency=13&appid=730&market_hash_name=P2000%20%7C%20Silver%20%28Well-Worn%29'
p2523
sg13
S'P2000'
p2524
sg17
g18
sg19
g20
sba(i__main__
skin
p2525
(dp2526
g6
I00
sg7
S'Office'
p2527
sg8
F0.94999999999999996
sg9
S'Blizzard Marbleized'
p2528
sg11
S'http://steamcommunity.com/market/priceoverview/?currency=13&appid=730&market_hash_name=M249%20%7C%20Blizzard%20Marbleized%20%28Well-Worn%29'
p2529
sg13
S'M249'
p2530
sg15
I8
sg16
F1.1799999999999999
sg17
g18
sg19
g346
sba(i__main__
skin
p2531
(dp2532
g6
I00
sg7
S'Office'
p2533
sg8
F0.96999999999999997
sg9
S'Arctic Camo'
p2534
sg11
S'http://steamcommunity.com/market/priceoverview/?currency=13&appid=730&market_hash_name=G3SG1%20%7C%20Arctic%20Camo%20%28Well-Worn%29'
p2535
sg13
S'G3SG1'
p2536
sg15
I3
sg16
F0.96999999999999997
sg17
g18
sg19
g346
sba(i__main__
skin
p2537
(dp2538
g6
I00
sg7
S'Office'
p2539
sg8
F1.24
sg9
S'Winter Forest'
p2540
sg11
S'http://steamcommunity.com/market/priceoverview/?currency=13&appid=730&market_hash_name=Galil AR%20%7C%20Winter%20Forest%20%28Well-Worn%29'
p2541
sg13
S'Galil AR'
p2542
sg15
I2
sg16
F1.2
sg17
g18
sg19
g346
sba(i__main__
skin
p2543
(dp2544
g6
I00
sg7
S'Office'
p2545
sg8
F0.46000000000000002
sg9
S'Contrast Spray'
p2546
sg11
S'http://steamcommunity.com/market/priceoverview/?currency=13&appid=730&market_hash_name=FAMAS%20%7C%20Contrast%20Spray%20%28Well-Worn%29'
p2547
sg13
S'FAMAS'
p2548
sg15
I8
sg16
F0.52000000000000002
sg17
g18
sg19
g383
sbasS'Baggage'
p2549
(lp2550
(i__main__
skin
p2551
(dp2552
g6
I00
sg7
g2549
sg8
F32.549999999999997
sg9
S'Jet Set'
p2553
sg11
S'http://steamcommunity.com/market/priceoverview/?currency=13&appid=730&market_hash_name=AK-47%20%7C%20Jet%20Set%20%28Well-Worn%29'
p2554
sg13
S'AK-47'
p2555
sg15
I9
sg16
F35.200000000000003
sg17
g18
sg19
g82
sba(i__main__
skin
p2556
(dp2557
g6
I00
sg7
S'Baggage'
p2558
sg8
F10.85
sg9
S'Pilot'
p2559
sg11
S'http://steamcommunity.com/market/priceoverview/?currency=13&appid=730&market_hash_name=Desert Eagle%20%7C%20Pilot%20%28Well-Worn%29'
p2560
sg13
S'Desert Eagle'
p2561
sg15
I3
sg16
F11.4
sg17
g18
sg19
g57
sba(i__main__
skin
p2562
(dp2563
g6
I00
sg7
S'Baggage'
p2564
sg8
F8.5399999999999991
sg9
S'First Class'
p2565
sg11
S'http://steamcommunity.com/market/priceoverview/?currency=13&appid=730&market_hash_name=AK-47%20%7C%20First%20Class%20%28Well-Worn%29'
p2566
sg13
S'AK-47'
p2567
sg15
I13
sg16
F8.8800000000000008
sg17
g18
sg19
g57
sba(i__main__
skin
p2568
(dp2569
g6
I00
sg7
S'Baggage'
p2570
sg8
F4.0499999999999998
sg9
S'Red Leather'
p2571
sg11
S'http://steamcommunity.com/market/priceoverview/?currency=13&appid=730&market_hash_name=XM1014%20%7C%20Red%20Leather%20%28Well-Worn%29'
p2572
sg13
S'XM1014'
p2573
sg15
I1
sg16
F4.0800000000000001
sg17
g18
sg19
g20
sba(i__main__
skin
p2574
(dp2575
g6
I00
sg7
S'Baggage'
p2576
sg8
F3.1899999999999999
sg9
S'Business Class'
p2577
sg11
S'http://steamcommunity.com/market/priceoverview/?currency=13&appid=730&market_hash_name=USP-S%20%7C%20Business%20Class%20%28Well-Worn%29'
p2578
sg13
S'USP-S'
p2579
sg15
I20
sg16
F3.23
sg17
g18
sg19
g20
sba(i__main__
skin
p2580
(dp2581
g6
I00
sg7
S'Baggage'
p2582
sg8
I-1
sg9
S'First Class'
p2583
sg11
S'http://steamcommunity.com/market/priceoverview/?currency=13&appid=730&market_hash_name=Sawed-Off%20%7C%20First%20Class%20%28Well-Worn%29'
p2584
sg13
S'Sawed-Off'
p2585
sg15
I0
sg16
F3.9199999999999999
sg17
g18
sg19
g20
sba(i__main__
skin
p2586
(dp2587
g6
I00
sg7
S'Baggage'
p2588
sg8
F0.52000000000000002
sg9
S'Coach Class'
p2589
sg11
S'http://steamcommunity.com/market/priceoverview/?currency=13&appid=730&market_hash_name=P2000%20%7C%20Coach%20Class%20%28Well-Worn%29'
p2590
sg13
S'P2000'
p2591
sg15
I10
sg16
F0.5
sg17
g18
sg19
g346
sba(i__main__
skin
p2592
(dp2593
g6
I00
sg7
S'Baggage'
p2594
sg8
F0.40000000000000002
sg9
S'Commuter'
p2595
sg11
S'http://steamcommunity.com/market/priceoverview/?currency=13&appid=730&market_hash_name=MAC-10%20%7C%20Commuter%20%28Well-Worn%29'
p2596
sg13
S'MAC-10'
p2597
sg15
I14
sg16
F0.51000000000000001
sg17
g18
sg19
g346
sba(i__main__
skin
p2598
(dp2599
g6
I00
sg7
S'Baggage'
p2600
sg8
F0.68999999999999995
sg9
S'Leather'
p2601
sg11
S'http://steamcommunity.com/market/priceoverview/?currency=13&appid=730&market_hash_name=P90%20%7C%20Leather%20%28Well-Worn%29'
p2602
sg13
S'P90'
p2603
sg15
I33
sg16
F0.78000000000000003
sg17
g18
sg19
g346
sba(i__main__
skin
p2604
(dp2605
g6
I00
sg7
S'Baggage'
p2606
sg8
F0.56000000000000005
sg9
S'Traveler'
p2607
sg11
S'http://steamcommunity.com/market/priceoverview/?currency=13&appid=730&market_hash_name=SG 553%20%7C%20Traveler%20%28Well-Worn%29'
p2608
sg13
S'SG 553'
p2609
sg15
I23
sg16
F0.53000000000000003
sg17
g18
sg19
g346
sba(i__main__
skin
p2610
(dp2611
g6
I00
sg7
S'Baggage'
p2612
sg8
F0.45000000000000001
sg9
S'Sand Dune'
p2613
sg11
S'http://steamcommunity.com/market/priceoverview/?currency=13&appid=730&market_hash_name=SSG 08%20%7C%20Sand%20Dune%20%28Well-Worn%29'
p2614
sg13
S'SSG 08'
p2615
sg15
I8
sg16
F0.52000000000000002
sg17
g18
sg19
g383
sba(i__main__
skin
p2616
(dp2617
g6
I00
sg7
S'Baggage'
p2618
sg8
I-1
sg9
S'Green Plaid'
p2619
sg11
S'http://steamcommunity.com/market/priceoverview/?currency=13&appid=730&market_hash_name=MP9%20%7C%20Green%20Plaid%20%28Well-Worn%29'
p2620
sg13
S'MP9'
p2621
sg15
I0
sg16
F0.78000000000000003
sg17
g18
sg19
g383
sba(i__main__
skin
p2622
(dp2623
g6
I00
sg7
S'Baggage'
p2624
sg8
I-1
sg9
S'Green Plaid'
p2625
sg11
S'http://steamcommunity.com/market/priceoverview/?currency=13&appid=730&market_hash_name=CZ75-Auto%20%7C%20Green%20Plaid%20%28Well-Worn%29'
p2626
sg13
S'CZ75-Auto'
p2627
sg15
I0
sg16
F0.58999999999999997
sg17
g18
sg19
g383
sba(i__main__
skin
p2628
(dp2629
g6
I00
sg7
S'Baggage'
p2630
sg8
F7.8200000000000003
sg9
S'Olive Plaid'
p2631
sg11
S'http://steamcommunity.com/market/priceoverview/?currency=13&appid=730&market_hash_name=MP7%20%7C%20Olive%20Plaid%20%28Well-Worn%29'
p2632
sg13
S'MP7'
p2633
sg15
I4
sg16
F9.0500000000000007
sg17
g18
sg19
g383
sba(i__main__
skin
p2634
(dp2635
g6
I00
sg7
S'Baggage'
p2636
sg8
F0.28000000000000003
sg9
S'Contractor'
p2637
sg11
S'http://steamcommunity.com/market/priceoverview/?currency=13&appid=730&market_hash_name=G3SG1%20%7C%20Contractor%20%28Well-Worn%29'
p2638
sg13
S'G3SG1'
p2639
sg15
I11
sg16
F0.32000000000000001
sg17
g18
sg19
g383
sbasS'Safehouse'
p2640
(lp2641
(i__main__
skin
p2642
(dp2643
g6
I00
sg7
g2640
sg8
F2.1899999999999999
sg9
S'Nitro'
p2644
sg11
S'http://steamcommunity.com/market/priceoverview/?currency=13&appid=730&market_hash_name=M4A1-S%20%7C%20Nitro%20%28Well-Worn%29'
p2645
sg13
S'M4A1-S'
p2646
sg15
I256
sg16
F2.1899999999999999
sg17
g18
sg19
g57
sba(i__main__
skin
p2647
(dp2648
g6
I00
sg7
S'Safehouse'
p2649
sg9
S'Acid Fade'
p2650
sg11
S'http://steamcommunity.com/market/priceoverview/?currency=13&appid=730&market_hash_name=SSG 08%20%7C%20Acid%20Fade%20%28Well-Worn%29'
p2651
sg13
S'SSG 08'
p2652
sg17
g18
sg19
g20
sba(i__main__
skin
p2653
(dp2654
g6
I00
sg7
S'Safehouse'
p2655
sg8
F0.46999999999999997
sg9
S'Silver Quartz'
p2656
sg11
S'http://steamcommunity.com/market/priceoverview/?currency=13&appid=730&market_hash_name=Five-SeveN%20%7C%20Silver%20Quartz%20%28Well-Worn%29'
p2657
sg13
S'Five-SeveN'
p2658
sg15
I37
sg16
F0.5
sg17
g18
sg19
g20
sba(i__main__
skin
p2659
(dp2660
g6
I00
sg7
S'Safehouse'
p2661
sg8
F0.40999999999999998
sg9
S'Teardown'
p2662
sg11
S'http://steamcommunity.com/market/priceoverview/?currency=13&appid=730&market_hash_name=FAMAS%20%7C%20Teardown%20%28Well-Worn%29'
p2663
sg13
S'FAMAS'
p2664
sg15
I48
sg16
F0.42999999999999999
sg17
g18
sg19
g20
sba(i__main__
skin
p2665
(dp2666
g6
I00
sg7
S'Safehouse'
p2667
sg8
F0.02
sg9
S'VariCamo'
p2668
sg11
S'http://steamcommunity.com/market/priceoverview/?currency=13&appid=730&market_hash_name=G3SG1%20%7C%20VariCamo%20%28Well-Worn%29'
p2669
sg13
S'G3SG1'
p2670
sg15
I59
sg16
F0.070000000000000007
sg17
g18
sg19
g346
sba(i__main__
skin
p2671
(dp2672
g6
I00
sg7
S'Safehouse'
p2673
sg8
F0.059999999999999998
sg9
S'Gator Mesh'
p2674
sg11
S'http://steamcommunity.com/market/priceoverview/?currency=13&appid=730&market_hash_name=M249%20%7C%20Gator%20Mesh%20%28Well-Worn%29'
p2675
sg13
S'M249'
p2676
sg15
I59
sg16
F0.070000000000000007
sg17
g18
sg19
g346
sba(i__main__
skin
p2677
(dp2678
g6
I00
sg7
S'Safehouse'
p2679
sg8
F0.059999999999999998
sg9
S'VariCamo'
p2680
sg11
S'http://steamcommunity.com/market/priceoverview/?currency=13&appid=730&market_hash_name=Galil AR%20%7C%20VariCamo%20%28Well-Worn%29'
p2681
sg13
S'Galil AR'
p2682
sg15
I81
sg16
F0.070000000000000007
sg17
g18
sg19
g346
sba(i__main__
skin
p2683
(dp2684
g6
I00
sg7
S'Safehouse'
p2685
sg8
F0.070000000000000007
sg9
S'Forest Leaves'
p2686
sg11
S'http://steamcommunity.com/market/priceoverview/?currency=13&appid=730&market_hash_name=USP-S%20%7C%20Forest%20Leaves%20%28Well-Worn%29'
p2687
sg13
S'USP-S'
p2688
sg15
I360
sg16
F0.089999999999999997
sg17
g18
sg19
g346
sba(i__main__
skin
p2689
(dp2690
g6
I00
sg7
S'Safehouse'
p2691
sg8
F0.070000000000000007
sg9
S'Condemned'
p2692
sg11
S'http://steamcommunity.com/market/priceoverview/?currency=13&appid=730&market_hash_name=AUG%20%7C%20Condemned%20%28Well-Worn%29'
p2693
sg13
S'AUG'
p2694
sg15
I294
sg16
F0.070000000000000007
sg17
g18
sg19
g346
sba(i__main__
skin
p2695
(dp2696
g6
I00
sg7
S'Safehouse'
p2697
sg8
F0.059999999999999998
sg9
S'Orange Peel'
p2698
sg11
S'http://steamcommunity.com/market/priceoverview/?currency=13&appid=730&market_hash_name=MP9%20%7C%20Orange%20Peel%20%28Well-Worn%29'
p2699
sg13
S'MP9'
p2700
sg15
I241
sg16
F0.070000000000000007
sg17
g18
sg19
g346
sba(i__main__
skin
p2701
(dp2702
g6
I00
sg7
S'Safehouse'
p2703
sg8
F0.02
sg9
S'Contractor'
p2704
sg11
S'http://steamcommunity.com/market/priceoverview/?currency=13&appid=730&market_hash_name=SCAR-20%20%7C%20Contractor%20%28Well-Worn%29'
p2705
sg13
S'SCAR-20'
p2706
sg15
I585
sg16
F0.040000000000000001
sg17
g18
sg19
g383
sba(i__main__
skin
p2707
(dp2708
g6
I00
sg7
S'Safehouse'
p2709
sg8
F0.02
sg9
S'Blue Spruce'
p2710
sg11
S'http://steamcommunity.com/market/priceoverview/?currency=13&appid=730&market_hash_name=SSG 08%20%7C%20Blue%20Spruce%20%28Well-Worn%29'
p2711
sg13
S'SSG 08'
p2712
sg15
I559
sg16
F0.040000000000000001
sg17
g18
sg19
g383
sba(i__main__
skin
p2713
(dp2714
g6
I00
sg7
S'Safehouse'
p2715
sg8
F0.02
sg9
S'Army Mesh'
p2716
sg11
S'http://steamcommunity.com/market/priceoverview/?currency=13&appid=730&market_hash_name=Tec-9%20%7C%20Army%20Mesh%20%28Well-Worn%29'
p2717
sg13
S'Tec-9'
p2718
sg15
I738
sg16
F0.040000000000000001
sg17
g18
sg19
g383
sba(i__main__
skin
p2719
(dp2720
g6
I00
sg7
S'Safehouse'
p2721
sg8
F0.02
sg9
S'Army Recon'
p2722
sg11
S'http://steamcommunity.com/market/priceoverview/?currency=13&appid=730&market_hash_name=MP7%20%7C%20Army%20Recon%20%28Well-Worn%29'
p2723
sg13
S'MP7'
p2724
sg15
I478
sg16
F0.040000000000000001
sg17
g18
sg19
g383
sba(i__main__
skin
p2725
(dp2726
g6
I00
sg7
S'Safehouse'
p2727
sg8
F0.02
sg9
S'Contractor'
p2728
sg11
S'http://steamcommunity.com/market/priceoverview/?currency=13&appid=730&market_hash_name=Dual Berettas%20%7C%20Contractor%20%28Well-Worn%29'
p2729
sg13
S'Dual Berettas'
p2730
sg15
I523
sg16
F0.040000000000000001
sg17
g18
sg19
g383
sbasS'Bravo'
p2731
(lp2732
(i__main__
skin
p2733
(dp2734
g6
I00
sg7
g2731
sg9
S'Tempest'
p2735
sg11
S'http://steamcommunity.com/market/priceoverview/?currency=13&appid=730&market_hash_name=Nova%20%7C%20Tempest%20%28Well-Worn%29'
p2736
sg13
S'Nova'
p2737
sg17
g18
sg19
g20
sba(i__main__
skin
p2738
(dp2739
g6
I00
sg7
S'Bravo'
p2740
sg8
F0.82999999999999996
sg9
S'Black Limba'
p2741
sg11
S'http://steamcommunity.com/market/priceoverview/?currency=13&appid=730&market_hash_name=Dual Berettas%20%7C%20Black%20Limba%20%28Well-Worn%29'
p2742
sg13
S'Dual Berettas'
p2743
sg15
I5
sg16
F0.81000000000000005
sg17
g18
sg19
g20
sba(i__main__
skin
p2744
(dp2745
g6
I00
sg7
S'Bravo'
p2746
sg9
S'Bone Pile'
p2747
sg11
S'http://steamcommunity.com/market/priceoverview/?currency=13&appid=730&market_hash_name=UMP-45%20%7C%20Bone%20Pile%20%28Well-Worn%29'
p2748
sg13
S'UMP-45'
p2749
sg17
g18
sg19
g20
sba(i__main__
skin
p2750
(dp2751
g6
I00
sg7
S'Bravo'
p2752
sg8
F0.95999999999999996
sg9
S'Wave Spray'
p2753
sg11
S'http://steamcommunity.com/market/priceoverview/?currency=13&appid=730&market_hash_name=SG 553%20%7C%20Wave%20Spray%20%28Well-Worn%29'
p2754
sg13
S'SG 553'
p2755
sg15
I7
sg16
F1
sg17
g18
sg19
g20
sba(i__main__
skin
p2756
(dp2757
g6
I00
sg7
S'Bravo'
p2758
sg8
F0.80000000000000004
sg9
S'Shattered'
p2759
sg11
S'http://steamcommunity.com/market/priceoverview/?currency=13&appid=730&market_hash_name=Galil AR%20%7C%20Shattered%20%28Well-Worn%29'
p2760
sg13
S'Galil AR'
p2761
sg15
I11
sg16
F0.80000000000000004
sg17
g18
sg19
g20
sba(i__main__
skin
p2762
(dp2763
g6
I00
sg7
S'Bravo'
p2764
sg8
F0.79000000000000004
sg9
S'Demeter'
p2765
sg11
S'http://steamcommunity.com/market/priceoverview/?currency=13&appid=730&market_hash_name=G3SG1%20%7C%20Demeter%20%28Well-Worn%29'
p2766
sg13
S'G3SG1'
p2767
sg15
I7
sg16
F0.81999999999999995
sg17
g18
sg19
g20
sba(i__main__
skin
p2768
(dp2769
g6
I00
sg7
S'Bravo'
p2770
sg9
S'Bright Water'
p2771
sg11
S'http://steamcommunity.com/market/priceoverview/?currency=13&appid=730&market_hash_name=M4A1-S%20%7C%20Bright%20Water%20%28Well-Worn%29'
p2772
sg13
S'M4A1-S'
p2773
sg17
g18
sg19
g57
sba(i__main__
skin
p2774
(dp2775
g6
I00
sg7
S'Bravo'
p2776
sg8
F5.2599999999999998
sg9
S'Zirka'
p2777
sg11
S'http://steamcommunity.com/market/priceoverview/?currency=13&appid=730&market_hash_name=M4A4%20%7C%20Zirka%20%28Well-Worn%29'
p2778
sg13
S'M4A4'
p2779
sg15
I5
sg16
F5.3399999999999999
sg17
g18
sg19
g57
sba(i__main__
skin
p2780
(dp2781
g6
I00
sg7
S'Bravo'
p2782
sg8
F4.6600000000000001
sg9
S'Graven'
p2783
sg11
S'http://steamcommunity.com/market/priceoverview/?currency=13&appid=730&market_hash_name=MAC-10%20%7C%20Graven%20%28Well-Worn%29'
p2784
sg13
S'MAC-10'
p2785
sg15
I2
sg16
F6.8200000000000003
sg17
g18
sg19
g57
sba(i__main__
skin
p2786
(dp2787
g6
I00
sg7
S'Bravo'
p2788
sg8
F5.4000000000000004
sg9
S'Overgrowth'
p2789
sg11
S'http://steamcommunity.com/market/priceoverview/?currency=13&appid=730&market_hash_name=USP-S%20%7C%20Overgrowth%20%28Well-Worn%29'
p2790
sg13
S'USP-S'
p2791
sg15
I12
sg16
F5.4299999999999997
sg17
g18
sg19
g57
sba(i__main__
skin
p2792
(dp2793
g6
I00
sg7
S'Bravo'
p2794
sg8
I-1
sg9
S'Emerald Dragon'
p2795
sg11
S'http://steamcommunity.com/market/priceoverview/?currency=13&appid=730&market_hash_name=P90%20%7C%20Emerald%20Dragon%20%28Well-Worn%29'
p2796
sg13
S'P90'
p2797
sg15
I0
sg16
F42.810000000000002
sg17
g18
sg19
g82
sba(i__main__
skin
p2798
(dp2799
g6
I00
sg7
S'Bravo'
p2800
sg9
S'Ocean Foam'
p2801
sg11
S'http://steamcommunity.com/market/priceoverview/?currency=13&appid=730&market_hash_name=P2000%20%7C%20Ocean%20Foam%20%28Well-Worn%29'
p2802
sg13
S'P2000'
p2803
sg17
g18
sg19
g82
sba(i__main__
skin
p2804
(dp2805
g6
I00
sg7
S'Bravo'
p2806
sg9
S'Graphite'
p2807
sg11
S'http://steamcommunity.com/market/priceoverview/?currency=13&appid=730&market_hash_name=AWP%20%7C%20Graphite%20%28Well-Worn%29'
p2808
sg13
S'AWP'
p2809
sg17
g18
sg19
g82
sba(i__main__
skin
p2810
(dp2811
g6
I00
sg7
S'Bravo'
p2812
sg9
S'Golden Koi'
p2813
sg11
S'http://steamcommunity.com/market/priceoverview/?currency=13&appid=730&market_hash_name=Desert Eagle%20%7C%20Golden%20Koi%20%28Well-Worn%29'
p2814
sg13
S'Desert Eagle'
p2815
sg17
g18
sg19
g101
sba(i__main__
skin
p2816
(dp2817
g6
I00
sg7
S'Bravo'
p2818
sg8
F249.69
sg9
S'Fire Serpent'
p2819
sg11
S'http://steamcommunity.com/market/priceoverview/?currency=13&appid=730&market_hash_name=AK-47%20%7C%20Fire%20Serpent%20%28Well-Worn%29'
p2820
sg13
S'AK-47'
p2821
sg15
I2
sg16
F274.00999999999999
sg17
g18
sg19
g101
sbasS'Winter Offensive'
p2822
(lp2823
(i__main__
skin
p2824
(dp2825
g6
I00
sg7
g2822
sg8
F0.19
sg9
S'Cobalt Halftone'
p2826
sg11
S'http://steamcommunity.com/market/priceoverview/?currency=13&appid=730&market_hash_name=PP-Bizon%20%7C%20Cobalt%20Halftone%20%28Well-Worn%29'
p2827
sg13
S'PP-Bizon'
p2828
sg15
I10
sg16
F0.34000000000000002
sg17
g18
sg19
g20
sba(i__main__
skin
p2829
(dp2830
g6
I00
sg7
S'Winter Offensive'
p2831
sg8
F0.46000000000000002
sg9
S'Magma'
p2832
sg11
S'http://steamcommunity.com/market/priceoverview/?currency=13&appid=730&market_hash_name=M249%20%7C%20Magma%20%28Well-Worn%29'
p2833
sg13
S'M249'
p2834
sg15
I10
sg16
F0.48999999999999999
sg17
g18
sg19
g20
sba(i__main__
skin
p2835
(dp2836
g6
I00
sg7
S'Winter Offensive'
p2837
sg9
S'Kami'
p2838
sg11
S'http://steamcommunity.com/market/priceoverview/?currency=13&appid=730&market_hash_name=Five-SeveN%20%7C%20Kami%20%28Well-Worn%29'
p2839
sg13
S'Five-SeveN'
p2840
sg17
g18
sg19
g20
sba(i__main__
skin
p2841
(dp2842
g6
I00
sg7
S'Winter Offensive'
p2843
sg8
F0.48999999999999999
sg9
S'Sandstorm'
p2844
sg11
S'http://steamcommunity.com/market/priceoverview/?currency=13&appid=730&market_hash_name=Galil AR%20%7C%20Sandstorm%20%28Well-Worn%29'
p2845
sg13
S'Galil AR'
p2846
sg15
I20
sg16
F0.51000000000000001
sg17
g18
sg19
g20
sba(i__main__
skin
p2847
(dp2848
g6
I00
sg7
S'Winter Offensive'
p2849
sg8
F1.8999999999999999
sg9
S'Rising Skull'
p2850
sg11
S'http://steamcommunity.com/market/priceoverview/?currency=13&appid=730&market_hash_name=Nova%20%7C%20Rising%20Skull%20%28Well-Worn%29'
p2851
sg13
S'Nova'
p2852
sg15
I6
sg16
F1.6499999999999999
sg17
g18
sg19
g57
sba(i__main__
skin
p2853
(dp2854
g6
I00
sg7
S'Winter Offensive'
p2855
sg9
S'Rose Iron'
p2856
sg11
S'http://steamcommunity.com/market/priceoverview/?currency=13&appid=730&market_hash_name=MP9%20%7C%20Rose%20Iron%20%28Well-Worn%29'
p2857
sg13
S'MP9'
p2858
sg17
g18
sg19
g57
sba(i__main__
skin
p2859
(dp2860
g6
I00
sg7
S'Winter Offensive'
p2861
sg8
F1.6499999999999999
sg9
S'Marina'
p2862
sg11
S'http://steamcommunity.com/market/priceoverview/?currency=13&appid=730&market_hash_name=Dual Berettas%20%7C%20Marina%20%28Well-Worn%29'
p2863
sg13
S'Dual Berettas'
p2864
sg15
I5
sg16
F1.6899999999999999
sg17
g18
sg19
g57
sba(i__main__
skin
p2865
(dp2866
g6
I00
sg7
S'Winter Offensive'
p2867
sg8
F2.0299999999999998
sg9
S'Pulse'
p2868
sg11
S'http://steamcommunity.com/market/priceoverview/?currency=13&appid=730&market_hash_name=FAMAS%20%7C%20Pulse%20%28Well-Worn%29'
p2869
sg13
S'FAMAS'
p2870
sg15
I7
sg16
F2.0800000000000001
sg17
g18
sg19
g57
sba(i__main__
skin
p2871
(dp2872
g6
I00
sg7
S'Winter Offensive'
p2873
sg8
F16.370000000000001
sg9
S'Redline'
p2874
sg11
S'http://steamcommunity.com/market/priceoverview/?currency=13&appid=730&market_hash_name=AWP%20%7C%20Redline%20%28Well-Worn%29'
p2875
sg13
S'AWP'
p2876
sg15
I14
sg16
F16.460000000000001
sg17
g18
sg19
g82
sba(i__main__
skin
p2877
(dp2878
g6
I00
sg7
S'Winter Offensive'
p2879
sg8
F5.4400000000000004
sg9
S'Mehndi'
p2880
sg11
S'http://steamcommunity.com/market/priceoverview/?currency=13&appid=730&market_hash_name=P250%20%7C%20Mehndi%20%28Well-Worn%29'
p2881
sg13
S'P250'
p2882
sg15
I22
sg16
F5.5199999999999996
sg17
g18
sg19
g82
sba(i__main__
skin
p2883
(dp2884
g6
I00
sg7
S'Winter Offensive'
p2885
sg8
F7.7400000000000002
sg9
S'Guardian'
p2886
sg11
S'http://steamcommunity.com/market/priceoverview/?currency=13&appid=730&market_hash_name=M4A1-S%20%7C%20Guardian%20%28Well-Worn%29'
p2887
sg13
S'M4A1-S'
p2888
sg15
I23
sg16
F7.8200000000000003
sg17
g18
sg19
g82
sba(i__main__
skin
p2889
(dp2890
g6
I00
sg7
S'Winter Offensive'
p2891
sg8
F5.0099999999999998
sg9
S'The Kraken'
p2892
sg11
S'http://steamcommunity.com/market/priceoverview/?currency=13&appid=730&market_hash_name=Sawed-Off%20%7C%20The%20Kraken%20%28Well-Worn%29'
p2893
sg13
S'Sawed-Off'
p2894
sg15
I8
sg16
F5
sg17
g18
sg19
g101
sba(i__main__
skin
p2895
(dp2896
g6
I00
sg7
S'Winter Offensive'
p2897
sg8
F40.75
sg9
S'Asiimov'
p2898
sg11
S'http://steamcommunity.com/market/priceoverview/?currency=13&appid=730&market_hash_name=M4A4%20%7C%20Asiimov%20%28Well-Worn%29'
p2899
sg13
S'M4A4'
p2900
sg15
I63
sg16
F42.030000000000001
sg17
g18
sg19
g101
sbasS'Falchion Case'
p2901
(lp2902
(i__main__
skin
p2903
(dp2904
g6
I00
sg7
g2901
sg8
F0.13
sg9
S'Rocket Pop'
p2905
sg11
S'http://steamcommunity.com/market/priceoverview/?currency=13&appid=730&market_hash_name=Galil AR%20%7C%20Rocket%20Pop%20%28Well-Worn%29'
p2906
sg13
S'Galil AR'
p2907
sg15
I810
sg16
F0.11
sg17
g18
sg19
g20
sba(i__main__
skin
p2908
(dp2909
g6
I00
sg7
S'Falchion Case'
p2910
sg8
F0.27000000000000002
sg9
S'Bunsen Burner'
p2911
sg11
S'http://steamcommunity.com/market/priceoverview/?currency=13&appid=730&market_hash_name=Glock-18%20%7C%20Bunsen%20Burner%20%28Well-Worn%29'
p2912
sg13
S'Glock-18'
p2913
sg15
I206
sg16
F0.28999999999999998
sg17
g18
sg19
g20
sba(i__main__
skin
p2914
(dp2915
g6
I00
sg7
S'Falchion Case'
p2916
sg8
F0.11
sg9
S'Ranger'
p2917
sg11
S'http://steamcommunity.com/market/priceoverview/?currency=13&appid=730&market_hash_name=Nova%20%7C%20Ranger%20%28Well-Worn%29'
p2918
sg13
S'Nova'
p2919
sg15
I618
sg16
F0.11
sg17
g18
sg19
g20
sba(i__main__
skin
p2920
(dp2921
g6
I00
sg7
S'Falchion Case'
p2922
sg8
F0.13
sg9
S'Elite Build'
p2923
sg11
S'http://steamcommunity.com/market/priceoverview/?currency=13&appid=730&market_hash_name=P90%20%7C%20Elite%20Build%20%28Well-Worn%29'
p2924
sg13
S'P90'
p2925
sg15
I962
sg16
F0.13
sg17
g18
sg19
g20
sba(i__main__
skin
p2926
(dp2927
g6
I00
sg7
S'Falchion Case'
p2928
sg8
F0.12
sg9
S'Riot'
p2929
sg11
S'http://steamcommunity.com/market/priceoverview/?currency=13&appid=730&market_hash_name=UMP-45%20%7C%20Riot%20%28Well-Worn%29'
p2930
sg13
S'UMP-45'
p2931
sg15
I94
sg16
F0.12
sg17
g18
sg19
g20
sba(i__main__
skin
p2932
(dp2933
g6
I00
sg7
S'Falchion Case'
p2934
sg8
F0.34000000000000002
sg9
S'Torque'
p2935
sg11
S'http://steamcommunity.com/market/priceoverview/?currency=13&appid=730&market_hash_name=USP-S%20%7C%20Torque%20%28Well-Worn%29'
p2936
sg13
S'USP-S'
p2937
sg15
I506
sg16
F0.32000000000000001
sg17
g18
sg19
g20
sba(i__main__
skin
p2938
(dp2939
g6
I00
sg7
S'Falchion Case'
p2940
sg8
F0.55000000000000004
sg9
S'Neural Net'
p2941
sg11
S'http://steamcommunity.com/market/priceoverview/?currency=13&appid=730&market_hash_name=FAMAS%20%7C%20Neural%20Net%20%28Well-Worn%29'
p2942
sg13
S'FAMAS'
p2943
sg15
I71
sg16
F0.57999999999999996
sg17
g18
sg19
g57
sba(i__main__
skin
p2944
(dp2945
g6
I00
sg7
S'Falchion Case'
p2946
sg8
F1.23
sg9
S'Evil Daimyo'
p2947
sg11
S'http://steamcommunity.com/market/priceoverview/?currency=13&appid=730&market_hash_name=M4A4%20%7C%20Evil%20Daimyo%20%28Well-Worn%29'
p2948
sg13
S'M4A4'
p2949
sg15
I229
sg16
F1.23
sg17
g18
sg19
g57
sba(i__main__
skin
p2950
(dp2951
g6
I00
sg7
S'Falchion Case'
p2952
sg8
F0.53000000000000003
sg9
S'Ruby Poison Dart'
p2953
sg11
S'http://steamcommunity.com/market/priceoverview/?currency=13&appid=730&market_hash_name=MP9%20%7C%20Ruby%20Poison%20Dart%20%28Well-Worn%29'
p2954
sg13
S'MP9'
p2955
sg15
I61
sg16
F0.53000000000000003
sg17
g18
sg19
g57
sba(i__main__
skin
p2956
(dp2957
g6
I00
sg7
S'Falchion Case'
p2958
sg8
F0.54000000000000004
sg9
S'Loudmouth'
p2959
sg11
S'http://steamcommunity.com/market/priceoverview/?currency=13&appid=730&market_hash_name=Negev%20%7C%20Loudmouth%20%28Well-Worn%29'
p2960
sg13
S'Negev'
p2961
sg15
I52
sg16
F0.62
sg17
g18
sg19
g57
sba(i__main__
skin
p2962
(dp2963
g6
I00
sg7
S'Falchion Case'
p2964
sg8
F0.39000000000000001
sg9
S'Handgun'
p2965
sg11
S'http://steamcommunity.com/market/priceoverview/?currency=13&appid=730&market_hash_name=P2000%20%7C%20Handgun%20%28Well-Worn%29'
p2966
sg13
S'P2000'
p2967
sg15
I472
sg16
F0.40000000000000002
sg17
g18
sg19
g57
sba(i__main__
skin
p2968
(dp2969
g6
I00
sg7
S'Falchion Case'
p2970
sg8
F3.2799999999999998
sg9
S'Yellow Jacket'
p2971
sg11
S'http://steamcommunity.com/market/priceoverview/?currency=13&appid=730&market_hash_name=CZ75-Auto%20%7C%20Yellow%20Jacket%20%28Well-Worn%29'
p2972
sg13
S'CZ75-Auto'
p2973
sg15
I127
sg16
F3.2400000000000002
sg17
g18
sg19
g82
sba(i__main__
skin
p2974
(dp2975
g6
I00
sg7
S'Falchion Case'
p2976
sg9
S'Nemesis'
p2977
sg11
S'http://steamcommunity.com/market/priceoverview/?currency=13&appid=730&market_hash_name=MP7%20%7C%20Nemesis%20%28Well-Worn%29'
p2978
sg13
S'MP7'
p2979
sg17
g18
sg19
g82
sba(i__main__
skin
p2980
(dp2981
g6
I00
sg7
S'Falchion Case'
p2982
sg8
F3.1699999999999999
sg9
S'Cyrex'
p2983
sg11
S'http://steamcommunity.com/market/priceoverview/?currency=13&appid=730&market_hash_name=SG 553%20%7C%20Cyrex%20%28Well-Worn%29'
p2984
sg13
S'SG 553'
p2985
sg15
I135
sg16
F3.4500000000000002
sg17
g18
sg19
g82
sba(i__main__
skin
p2986
(dp2987
g6
I00
sg7
S'Falchion Case'
p2988
sg8
F19.870000000000001
sg9
S'Aquamarine Revenge'
p2989
sg11
S'http://steamcommunity.com/market/priceoverview/?currency=13&appid=730&market_hash_name=AK-47%20%7C%20Aquamarine%20Revenge%20%28Well-Worn%29'
p2990
sg13
S'AK-47'
p2991
sg15
I251
sg16
F18.899999999999999
sg17
g18
sg19
g101
sba(i__main__
skin
p2992
(dp2993
g6
I00
sg7
S'Falchion Case'
p2994
sg8
F29.32
sg9
S'Hyper Beast'
p2995
sg11
S'http://steamcommunity.com/market/priceoverview/?currency=13&appid=730&market_hash_name=AWP%20%7C%20Hyper%20Beast%20%28Well-Worn%29'
p2996
sg13
S'AWP'
p2997
sg15
I192
sg16
F31.120000000000001
sg17
g18
sg19
g101
sbasS'eSports 2013 Winter'
p2998
(lp2999
(i__main__
skin
p3000
(dp3001
g6
I00
sg7
g2998
sg9
S'Blue Titanium'
p3002
sg11
S'http://steamcommunity.com/market/priceoverview/?currency=13&appid=730&market_hash_name=Galil AR%20%7C%20Blue%20Titanium%20%28Well-Worn%29'
p3003
sg13
S'Galil AR'
p3004
sg17
g18
sg19
g20
sba(i__main__
skin
p3005
(dp3006
g6
I00
sg7
S'eSports 2013 Winter'
p3007
sg8
F0.59999999999999998
sg9
S'Nightshade'
p3008
sg11
S'http://steamcommunity.com/market/priceoverview/?currency=13&appid=730&market_hash_name=Five-SeveN%20%7C%20Nightshade%20%28Well-Worn%29'
p3009
sg13
S'Five-SeveN'
p3010
sg15
I12
sg16
F0.63
sg17
g18
sg19
g20
sba(i__main__
skin
p3011
(dp3012
g6
I00
sg7
S'eSports 2013 Winter'
p3013
sg8
F1.8
sg9
S'Water Sigil'
p3014
sg11
S'http://steamcommunity.com/market/priceoverview/?currency=13&appid=730&market_hash_name=PP-Bizon%20%7C%20Water%20Sigil%20%28Well-Worn%29'
p3015
sg13
S'PP-Bizon'
p3016
sg15
I8
sg16
F2.3500000000000001
sg17
g18
sg19
g20
sba(i__main__
skin
p3017
(dp3018
g6
I00
sg7
S'eSports 2013 Winter'
p3019
sg8
F0.69999999999999996
sg9
S'Ghost Camo'
p3020
sg11
S'http://steamcommunity.com/market/priceoverview/?currency=13&appid=730&market_hash_name=Nova%20%7C%20Ghost%20Camo%20%28Well-Worn%29'
p3021
sg13
S'Nova'
p3022
sg15
I10
sg16
F0.70999999999999996
sg17
g18
sg19
g20
sba(i__main__
skin
p3023
(dp3024
g6
I00
sg7
S'eSports 2013 Winter'
p3025
sg9
S'Azure Zebra'
p3026
sg11
S'http://steamcommunity.com/market/priceoverview/?currency=13&appid=730&market_hash_name=G3SG1%20%7C%20Azure%20Zebra%20%28Well-Worn%29'
p3027
sg13
S'G3SG1'
p3028
sg17
g18
sg19
g20
sba(i__main__
skin
p3029
(dp3030
g6
I00
sg7
S'eSports 2013 Winter'
p3031
sg9
S'Steel Disruption'
p3032
sg11
S'http://steamcommunity.com/market/priceoverview/?currency=13&appid=730&market_hash_name=P250%20%7C%20Steel%20Disruption%20%28Well-Worn%29'
p3033
sg13
S'P250'
p3034
sg17
g18
sg19
g20
sba(i__main__
skin
p3035
(dp3036
g6
I00
sg7
S'eSports 2013 Winter'
p3037
sg8
F5.7400000000000002
sg9
S'Blue Laminate'
p3038
sg11
S'http://steamcommunity.com/market/priceoverview/?currency=13&appid=730&market_hash_name=AK-47%20%7C%20Blue%20Laminate%20%28Well-Worn%29'
p3039
sg13
S'AK-47'
p3040
sg15
I44
sg16
F5.7599999999999998
sg17
g18
sg19
g57
sba(i__main__
skin
p3041
(dp3042
g6
I00
sg7
S'eSports 2013 Winter'
p3043
sg8
F1.4299999999999999
sg9
S'Blind Spot'
p3044
sg11
S'http://steamcommunity.com/market/priceoverview/?currency=13&appid=730&market_hash_name=P90%20%7C%20Blind%20Spot%20%28Well-Worn%29'
p3045
sg13
S'P90'
p3046
sg15
I11
sg16
F1.47
sg17
g18
sg19
g57
sba(i__main__
skin
p3047
(dp3048
g6
I00
sg7
S'eSports 2013 Winter'
p3049
sg8
I-1
sg9
S'Afterimage'
p3050
sg11
S'http://steamcommunity.com/market/priceoverview/?currency=13&appid=730&market_hash_name=FAMAS%20%7C%20Afterimage%20%28Well-Worn%29'
p3051
sg13
S'FAMAS'
p3052
sg15
I0
sg16
F7.4299999999999997
sg17
g18
sg19
g82
sba(i__main__
skin
p3053
(dp3054
g6
I00
sg7
S'eSports 2013 Winter'
p3055
sg8
F16.16
sg9
S'Electric Hive'
p3056
sg11
S'http://steamcommunity.com/market/priceoverview/?currency=13&appid=730&market_hash_name=AWP%20%7C%20Electric%20Hive%20%28Well-Worn%29'
p3057
sg13
S'AWP'
p3058
sg15
I5
sg16
F16.260000000000002
sg17
g18
sg19
g82
sba(i__main__
skin
p3059
(dp3060
g6
I00
sg7
S'eSports 2013 Winter'
p3061
sg9
S'Cobalt Disruption'
p3062
sg11
S'http://steamcommunity.com/market/priceoverview/?currency=13&appid=730&market_hash_name=Desert Eagle%20%7C%20Cobalt%20Disruption%20%28Well-Worn%29'
p3063
sg13
S'Desert Eagle'
p3064
sg17
g18
sg19
g82
sba(i__main__
skin
p3065
(dp3066
g6
I00
sg7
S'eSports 2013 Winter'
p3067
sg9
S'X-Ray'
p3068
sg11
S'http://steamcommunity.com/market/priceoverview/?currency=13&appid=730&market_hash_name=M4A4%20%7C%20X-Ray%20%28Well-Worn%29'
p3069
sg13
S'M4A4'
p3070
sg17
g18
sg19
g101
sbasS'Chop Shop'
p3071
(lp3072
(i__main__
skin
p3073
(dp3074
g6
I00
sg7
g3071
sg8
F24.52
sg9
S'Duelist'
p3075
sg11
S'http://steamcommunity.com/market/priceoverview/?currency=13&appid=730&market_hash_name=Dual Berettas%20%7C%20Duelist%20%28Well-Worn%29'
p3076
sg13
S'Dual Berettas'
p3077
sg15
I3
sg16
F30.27
sg17
g18
sg19
g57
sba(i__main__
skin
p3078
(dp3079
g6
I00
sg7
S'Chop Shop'
p3080
sg9
S'Twilight Galaxy'
p3081
sg11
S'http://steamcommunity.com/market/priceoverview/?currency=13&appid=730&market_hash_name=Glock-18%20%7C%20Twilight%20Galaxy%20%28Well-Worn%29'
p3082
sg13
S'Glock-18'
p3083
sg17
g18
sg19
g82
sba(i__main__
skin
p3084
(dp3085
g6
I00
sg7
S'Chop Shop'
p3086
sg9
S'Hot Rod'
p3087
sg11
S'http://steamcommunity.com/market/priceoverview/?currency=13&appid=730&market_hash_name=M4A1-S%20%7C%20Hot%20Rod%20%28Well-Worn%29'
p3088
sg13
S'M4A1-S'
p3089
sg17
g18
sg19
g82
sba(i__main__
skin
p3090
(dp3091
g6
I00
sg7
S'Chop Shop'
p3092
sg8
I-1
sg9
S'Bulldozer'
p3093
sg11
S'http://steamcommunity.com/market/priceoverview/?currency=13&appid=730&market_hash_name=SG 553%20%7C%20Bulldozer%20%28Well-Worn%29'
p3094
sg13
S'SG 553'
p3095
sg15
I0
sg16
F23.379999999999999
sg17
g18
sg19
g57
sba(i__main__
skin
p3096
(dp3097
g6
I00
sg7
S'Chop Shop'
p3098
sg9
S'Emerald'
p3099
sg11
S'http://steamcommunity.com/market/priceoverview/?currency=13&appid=730&market_hash_name=CZ75-Auto%20%7C%20Emerald%20%28Well-Worn%29'
p3100
sg13
S'CZ75-Auto'
p3101
sg17
g18
sg19
g20
sba(i__main__
skin
p3102
(dp3103
g6
I00
sg7
S'Chop Shop'
p3104
sg8
F3.25
sg9
S'Nitro'
p3105
sg11
S'http://steamcommunity.com/market/priceoverview/?currency=13&appid=730&market_hash_name=Five-SeveN%20%7C%20Nitro%20%28Well-Worn%29'
p3106
sg13
S'Five-SeveN'
p3107
sg15
I2
sg16
F3.2799999999999998
sg17
g18
sg19
g20
sba(i__main__
skin
p3108
(dp3109
g6
I00
sg7
S'Chop Shop'
p3110
sg8
F2.0099999999999998
sg9
S'Full Stop'
p3111
sg11
S'http://steamcommunity.com/market/priceoverview/?currency=13&appid=730&market_hash_name=MP7%20%7C%20Full%20Stop%20%28Well-Worn%29'
p3112
sg13
S'MP7'
p3113
sg15
I1
sg16
F4.1500000000000004
sg17
g18
sg19
g20
sba(i__main__
skin
p3114
(dp3115
g6
I00
sg7
S'Chop Shop'
p3116
sg8
F2.6899999999999999
sg9
S'Whiteout'
p3117
sg11
S'http://steamcommunity.com/market/priceoverview/?currency=13&appid=730&market_hash_name=P250%20%7C%20Whiteout%20%28Well-Worn%29'
p3118
sg13
S'P250'
p3119
sg15
I5
sg16
F3.6800000000000002
sg17
g18
sg19
g20
sba(i__main__
skin
p3120
(dp3121
g6
I00
sg7
S'Chop Shop'
p3122
sg9
S'Fade'
p3123
sg11
S'http://steamcommunity.com/market/priceoverview/?currency=13&appid=730&market_hash_name=MAC-10%20%7C%20Fade%20%28Well-Worn%29'
p3124
sg13
S'MAC-10'
p3125
sg17
g18
sg19
g20
sba(i__main__
skin
p3126
(dp3127
g6
I00
sg7
S'Chop Shop'
p3128
sg8
F0.94999999999999996
sg9
S'Para Green'
p3129
sg11
S'http://steamcommunity.com/market/priceoverview/?currency=13&appid=730&market_hash_name=USP-S%20%7C%20Para%20Green%20%28Well-Worn%29'
p3130
sg13
S'USP-S'
p3131
sg15
I30
sg16
F0.97999999999999998
sg17
g18
sg19
g346
sba(i__main__
skin
p3132
(dp3133
g6
I00
sg7
S'Chop Shop'
p3134
sg8
F0.76000000000000001
sg9
S'Urban Rubble'
p3135
sg11
S'http://steamcommunity.com/market/priceoverview/?currency=13&appid=730&market_hash_name=Galil AR%20%7C%20Urban%20Rubble%20%28Well-Worn%29'
p3136
sg13
S'Galil AR'
p3137
sg15
I5
sg16
F0.81000000000000005
sg17
g18
sg19
g346
sba(i__main__
skin
p3138
(dp3139
g6
I00
sg7
S'Chop Shop'
p3140
sg8
F0.85999999999999999
sg9
S'Night'
p3141
sg11
S'http://steamcommunity.com/market/priceoverview/?currency=13&appid=730&market_hash_name=Desert Eagle%20%7C%20Night%20%28Well-Worn%29'
p3142
sg13
S'Desert Eagle'
p3143
sg15
I28
sg16
F0.87
sg17
g18
sg19
g346
sba(i__main__
skin
p3144
(dp3145
g6
I00
sg7
S'Chop Shop'
p3146
sg8
F0.14000000000000001
sg9
S'Seabird'
p3147
sg11
S'http://steamcommunity.com/market/priceoverview/?currency=13&appid=730&market_hash_name=MAG-7%20%7C%20Seabird%20%28Well-Worn%29'
p3148
sg13
S'MAG-7'
p3149
sg15
I75
sg16
F0.13
sg17
g18
sg19
g383
sba(i__main__
skin
p3150
(dp3151
g6
I00
sg7
S'Chop Shop'
p3152
sg8
F0.13
sg9
S'Impact Drill'
p3153
sg11
S'http://steamcommunity.com/market/priceoverview/?currency=13&appid=730&market_hash_name=M249%20%7C%20Impact%20Drill%20%28Well-Worn%29'
p3154
sg13
S'M249'
p3155
sg15
I85
sg16
F0.14999999999999999
sg17
g18
sg19
g383
sba(i__main__
skin
p3156
(dp3157
g6
I00
sg7
S'Chop Shop'
p3158
sg9
S'Army Sheen'
p3159
sg11
S'http://steamcommunity.com/market/priceoverview/?currency=13&appid=730&market_hash_name=CZ75-Auto%20%7C%20Army%20Sheen%20%28Well-Worn%29'
p3160
sg13
S'CZ75-Auto'
p3161
sg17
g18
sg19
g383
sba(i__main__
skin
p3162
(dp3163
g6
I00
sg7
S'Chop Shop'
p3164
sg9
S'Army Sheen'
p3165
sg11
S'http://steamcommunity.com/market/priceoverview/?currency=13&appid=730&market_hash_name=SCAR-20%20%7C%20Army%20Sheen%20%28Well-Worn%29'
p3166
sg13
S'SCAR-20'
p3167
sg17
g18
sg19
g383
sbasS'Mirage'
p3168
(lp3169
(i__main__
skin
p3170
(dp3171
g6
I00
sg7
g3168
sg8
F1.22
sg9
S'Bulldozer'
p3172
sg11
S'http://steamcommunity.com/market/priceoverview/?currency=13&appid=730&market_hash_name=MAG-7%20%7C%20Bulldozer%20%28Well-Worn%29'
p3173
sg13
S'MAG-7'
p3174
sg15
I10
sg16
F1.21
sg17
g18
sg19
g57
sba(i__main__
skin
p3175
(dp3176
g6
I00
sg7
S'Mirage'
p3177
sg8
F4.21
sg9
S'Amber Fade'
p3178
sg11
S'http://steamcommunity.com/market/priceoverview/?currency=13&appid=730&market_hash_name=MAC-10%20%7C%20Amber%20Fade%20%28Well-Worn%29'
p3179
sg13
S'MAC-10'
p3180
sg15
I1
sg16
F4.1900000000000004
sg17
g18
sg19
g20
sba(i__main__
skin
p3181
(dp3182
g6
I00
sg7
S'Mirage'
p3183
sg9
S'Blaze'
p3184
sg11
S'http://steamcommunity.com/market/priceoverview/?currency=13&appid=730&market_hash_name=UMP-45%20%7C%20Blaze%20%28Well-Worn%29'
p3185
sg13
S'UMP-45'
p3186
sg17
g18
sg19
g20
sba(i__main__
skin
p3187
(dp3188
g6
I00
sg7
S'Mirage'
p3189
sg9
S'Hot Rod'
p3190
sg11
S'http://steamcommunity.com/market/priceoverview/?currency=13&appid=730&market_hash_name=MP9%20%7C%20Hot%20Rod%20%28Well-Worn%29'
p3191
sg13
S'MP9'
p3192
sg17
g18
sg19
g20
sba(i__main__
skin
p3193
(dp3194
g6
I00
sg7
S'Mirage'
p3195
sg8
I-1
sg9
S'CaliCamo'
p3196
sg11
S'http://steamcommunity.com/market/priceoverview/?currency=13&appid=730&market_hash_name=Negev%20%7C%20CaliCamo%20%28Well-Worn%29'
p3197
sg13
S'Negev'
p3198
sg15
I0
sg16
F1.0700000000000001
sg17
g18
sg19
g346
sba(i__main__
skin
p3199
(dp3200
g6
I00
sg7
S'Mirage'
p3201
sg8
F0.89000000000000001
sg9
S'Tropical Storm'
p3202
sg11
S'http://steamcommunity.com/market/priceoverview/?currency=13&appid=730&market_hash_name=SSG 08%20%7C%20Tropical%20Storm%20%28Well-Worn%29'
p3203
sg13
S'SSG 08'
p3204
sg15
I2
sg16
F0.88
sg17
g18
sg19
g346
sba(i__main__
skin
p3205
(dp3206
g6
I00
sg7
S'Mirage'
p3207
sg8
F1.4299999999999999
sg9
S'Gator Mesh'
p3208
sg11
S'http://steamcommunity.com/market/priceoverview/?currency=13&appid=730&market_hash_name=SG 553%20%7C%20Gator%20Mesh%20%28Well-Worn%29'
p3209
sg13
S'SG 553'
p3210
sg15
I11
sg16
F2.8700000000000001
sg17
g18
sg19
g346
sba(i__main__
skin
p3211
(dp3212
g6
I00
sg7
S'Mirage'
p3213
sg8
F0.81000000000000005
sg9
S'Groundwater'
p3214
sg11
S'http://steamcommunity.com/market/priceoverview/?currency=13&appid=730&market_hash_name=Glock-18%20%7C%20Groundwater%20%28Well-Worn%29'
p3215
sg13
S'Glock-18'
p3216
sg15
I13
sg16
F0.88
sg17
g18
sg19
g346
sba(i__main__
skin
p3217
(dp3218
g6
I00
sg7
S'Mirage'
p3219
sg8
F0.81000000000000005
sg9
S'Orange Peel'
p3220
sg11
S'http://steamcommunity.com/market/priceoverview/?currency=13&appid=730&market_hash_name=MP7%20%7C%20Orange%20Peel%20%28Well-Worn%29'
p3221
sg13
S'MP7'
p3222
sg15
I5
sg16
F0.72999999999999998
sg17
g18
sg19
g346
sba(i__main__
skin
p3223
(dp3224
g6
I00
sg7
S'Mirage'
p3225
sg8
F0.33000000000000002
sg9
S'Bone Mask'
p3226
sg11
S'http://steamcommunity.com/market/priceoverview/?currency=13&appid=730&market_hash_name=P250%20%7C%20Bone%20Mask%20%28Well-Worn%29'
p3227
sg13
S'P250'
p3228
sg15
I19
sg16
F0.35999999999999999
sg17
g18
sg19
g383
sba(i__main__
skin
p3229
(dp3230
g6
I00
sg7
S'Mirage'
p3231
sg8
F0.32000000000000001
sg9
S'Contractor'
p3232
sg11
S'http://steamcommunity.com/market/priceoverview/?currency=13&appid=730&market_hash_name=Five-SeveN%20%7C%20Contractor%20%28Well-Worn%29'
p3233
sg13
S'Five-SeveN'
p3234
sg15
I27
sg16
I-1
sg17
g18
sg19
g383
sba(i__main__
skin
p3235
(dp3236
g6
I00
sg7
S'Mirage'
p3237
sg8
F0.42999999999999999
sg9
S'Colony'
p3238
sg11
S'http://steamcommunity.com/market/priceoverview/?currency=13&appid=730&market_hash_name=AUG%20%7C%20Colony%20%28Well-Worn%29'
p3239
sg13
S'AUG'
p3240
sg15
I11
sg16
F0.46000000000000002
sg17
g18
sg19
g383
sba(i__main__
skin
p3241
(dp3242
g6
I00
sg7
S'Mirage'
p3243
sg8
F0.27000000000000002
sg9
S'Safari Mesh'
p3244
sg11
S'http://steamcommunity.com/market/priceoverview/?currency=13&appid=730&market_hash_name=G3SG1%20%7C%20Safari%20Mesh%20%28Well-Worn%29'
p3245
sg13
S'G3SG1'
p3246
sg15
I13
sg16
F0.27000000000000002
sg17
g18
sg19
g383
sba(i__main__
skin
p3247
(dp3248
g6
I00
sg7
S'Mirage'
p3249
sg8
F0.46999999999999997
sg9
S'Scorched'
p3250
sg11
S'http://steamcommunity.com/market/priceoverview/?currency=13&appid=730&market_hash_name=P90%20%7C%20Scorched%20%28Well-Worn%29'
p3251
sg13
S'P90'
p3252
sg15
I22
sg16
F0.47999999999999998
sg17
g18
sg19
g383
sba(i__main__
skin
p3253
(dp3254
g6
I00
sg7
S'Mirage'
p3255
sg8
F0.44
sg9
S'Hunting Blind'
p3256
sg11
S'http://steamcommunity.com/market/priceoverview/?currency=13&appid=730&market_hash_name=Galil AR%20%7C%20Hunting%20Blind%20%28Well-Worn%29'
p3257
sg13
S'Galil AR'
p3258
sg15
I6
sg16
F0.41999999999999998
sg17
g18
sg19
g383
sbasS'Nuke'
p3259
(lp3260
(i__main__
skin
p3261
(dp3262
g6
I00
sg7
g3259
sg8
F13.9
sg9
S'Nuclear Threat'
p3263
sg11
S'http://steamcommunity.com/market/priceoverview/?currency=13&appid=730&market_hash_name=Tec-9%20%7C%20Nuclear%20Threat%20%28Well-Worn%29'
p3264
sg13
S'Tec-9'
p3265
sg15
I7
sg16
F15.58
sg17
g18
sg19
g57
sba(i__main__
skin
p3266
(dp3267
g6
I00
sg7
S'Nuke'
p3268
sg8
F5.04
sg9
S'Nuclear Threat'
p3269
sg11
S'http://steamcommunity.com/market/priceoverview/?currency=13&appid=730&market_hash_name=P250%20%7C%20Nuclear%20Threat%20%28Well-Worn%29'
p3270
sg13
S'P250'
p3271
sg15
I1
sg16
F6.29
sg17
g18
sg19
g57
sba(i__main__
skin
p3272
(dp3273
g6
I00
sg7
S'Nuke'
p3274
sg8
F6.21
sg9
S'Radiation Hazard'
p3275
sg11
S'http://steamcommunity.com/market/priceoverview/?currency=13&appid=730&market_hash_name=M4A4%20%7C%20Radiation%20Hazard%20%28Well-Worn%29'
p3276
sg13
S'M4A4'
p3277
sg15
I10
sg16
F6.4400000000000004
sg17
g18
sg19
g20
sba(i__main__
skin
p3278
(dp3279
g6
I00
sg7
S'Nuke'
p3280
sg8
F3.5600000000000001
sg9
S'Fallout Warning'
p3281
sg11
S'http://steamcommunity.com/market/priceoverview/?currency=13&appid=730&market_hash_name=XM1014%20%7C%20Fallout%20Warning%20%28Well-Worn%29'
p3282
sg13
S'XM1014'
p3283
sg15
I14
sg16
F3.6299999999999999
sg17
g18
sg19
g346
sba(i__main__
skin
p3284
(dp3285
g6
I00
sg7
S'Nuke'
p3286
sg8
F1.8899999999999999
sg9
S'Fallout Warning'
p3287
sg11
S'http://steamcommunity.com/market/priceoverview/?currency=13&appid=730&market_hash_name=UMP-45%20%7C%20Fallout%20Warning%20%28Well-Worn%29'
p3288
sg13
S'UMP-45'
p3289
sg15
I2
sg16
F1.78
sg17
g18
sg19
g346
sba(i__main__
skin
p3290
(dp3291
g6
I00
sg7
S'Nuke'
p3292
sg8
F1.5600000000000001
sg9
S'Fallout Warning'
p3293
sg11
S'http://steamcommunity.com/market/priceoverview/?currency=13&appid=730&market_hash_name=P90%20%7C%20Fallout%20Warning%20%28Well-Worn%29'
p3294
sg13
S'P90'
p3295
sg15
I12
sg16
F1.55
sg17
g18
sg19
g346
sba(i__main__
skin
p3296
(dp3297
g6
I00
sg7
S'Nuke'
p3298
sg8
F0.29999999999999999
sg9
S'Irradiated Alert'
p3299
sg11
S'http://steamcommunity.com/market/priceoverview/?currency=13&appid=730&market_hash_name=PP-Bizon%20%7C%20Irradiated%20Alert%20%28Well-Worn%29'
p3300
sg13
S'PP-Bizon'
p3301
sg15
I11
sg16
F0.28999999999999998
sg17
g18
sg19
g383
sba(i__main__
skin
p3302
(dp3303
g6
I00
sg7
S'Nuke'
p3304
sg8
F0.32000000000000001
sg9
S'Irradiated Alert'
p3305
sg11
S'http://steamcommunity.com/market/priceoverview/?currency=13&appid=730&market_hash_name=Sawed-Off%20%7C%20Irradiated%20Alert%20%28Well-Worn%29'
p3306
sg13
S'Sawed-Off'
p3307
sg15
I9
sg16
F0.34000000000000002
sg17
g18
sg19
g383
sba(i__main__
skin
p3308
(dp3309
g6
I00
sg7
S'Nuke'
p3310
sg8
F0.41999999999999998
sg9
S'Irradiated Alert'
p3311
sg11
S'http://steamcommunity.com/market/priceoverview/?currency=13&appid=730&market_hash_name=MAG-7%20%7C%20Irradiated%20Alert%20%28Well-Worn%29'
p3312
sg13
S'MAG-7'
p3313
sg15
I1
sg16
F0.40000000000000002
sg17
g18
sg19
g383
sbas.