(dp1
S'Chroma 2'
p2
(lp3
(i__main__
skin
p4
(dp5
S'statTrak'
p6
I00
sS'case'
p7
g2
sS'priceMed'
p8
F0.20000000000000001
sS'name'
p9
S'Elite Build'
p10
sS'url'
p11
S'http://steamcommunity.com/market/priceoverview/?currency=13&appid=730&market_hash_name=AK-47%20%7C%20Elite%20Build%20%28Battle-Scarred%29'
p12
sS'weapon'
p13
S'AK-47'
p14
sS'volume'
p15
I0
sS'priceLow'
p16
F0.19
sS'quality'
p17
S'Battle-Scarred'
p18
sS'colour'
p19
S'Blue'
p20
sba(i__main__
skin
p21
(dp22
g6
I00
sg7
S'Chroma 2'
p23
sg8
F0.089999999999999997
sg9
S'Armor Core'
p24
sg11
S'http://steamcommunity.com/market/priceoverview/?currency=13&appid=730&market_hash_name=MP7%20%7C%20Armor%20Core%20%28Battle-Scarred%29'
p25
sg13
S'MP7'
p26
sg15
I206
sg16
F0.10000000000000001
sg17
g18
sg19
g20
sba(i__main__
skin
p27
(dp28
g6
I00
sg7
S'Chroma 2'
p29
sg8
F0.25
sg9
S'Bronze Deco'
p30
sg11
S'http://steamcommunity.com/market/priceoverview/?currency=13&appid=730&market_hash_name=Desert Eagle%20%7C%20Bronze%20Deco%20%28Battle-Scarred%29'
p31
sg13
S'Desert Eagle'
p32
sg15
I76
sg16
F0.26000000000000001
sg17
g18
sg19
g20
sba(i__main__
skin
p33
(dp34
g6
I00
sg7
S'Chroma 2'
p35
sg8
F0.12
sg9
S'Valence'
p36
sg11
S'http://steamcommunity.com/market/priceoverview/?currency=13&appid=730&market_hash_name=P250%20%7C%20Valence%20%28Battle-Scarred%29'
p37
sg13
S'P250'
p38
sg15
I931
sg16
F0.10000000000000001
sg17
g18
sg19
g20
sba(i__main__
skin
p39
(dp40
g6
I00
sg7
S'Chroma 2'
p41
sg9
S"Man-o'-war"
p42
sg11
S'http://steamcommunity.com/market/priceoverview/?currency=13&appid=730&market_hash_name=Negev%20%7C%20Man-o%27-war%20%28Battle-Scarred%29'
p43
sg13
S'Negev'
p44
sg17
g18
sg19
g20
sba(i__main__
skin
p45
(dp46
g6
I00
sg7
S'Chroma 2'
p47
sg8
F0.12
sg9
S'Origami'
p48
sg11
S'http://steamcommunity.com/market/priceoverview/?currency=13&appid=730&market_hash_name=Sawed-Off%20%7C%20Origami%20%28Battle-Scarred%29'
p49
sg13
S'Sawed-Off'
p50
sg15
I286
sg16
F0.089999999999999997
sg17
g18
sg19
g20
sba(i__main__
skin
p51
(dp52
g6
I00
sg7
S'Chroma 2'
p53
sg9
S'Worm God'
p54
sg11
S'http://steamcommunity.com/market/priceoverview/?currency=13&appid=730&market_hash_name=AWP%20%7C%20Worm%20God%20%28Battle-Scarred%29'
p55
sg13
S'AWP'
p56
sg17
g18
sg19
S'Purple'
p57
sba(i__main__
skin
p58
(dp59
g6
I00
sg7
S'Chroma 2'
p60
sg8
F0.32000000000000001
sg9
S'Heat'
p61
sg11
S'http://steamcommunity.com/market/priceoverview/?currency=13&appid=730&market_hash_name=MAG-7%20%7C%20Heat%20%28Battle-Scarred%29'
p62
sg13
S'MAG-7'
p63
sg15
I509
sg16
F0.28999999999999998
sg17
g18
sg19
g57
sba(i__main__
skin
p64
(dp65
g6
I00
sg7
S'Chroma 2'
p66
sg8
F0.26000000000000001
sg9
S'Pole Position'
p67
sg11
S'http://steamcommunity.com/market/priceoverview/?currency=13&appid=730&market_hash_name=CZ75-Auto%20%7C%20Pole%20Position%20%28Battle-Scarred%29'
p68
sg13
S'CZ75-Auto'
p69
sg15
I278
sg16
F0.32000000000000001
sg17
g18
sg19
g57
sba(i__main__
skin
p70
(dp71
g6
I00
sg7
S'Chroma 2'
p72
sg9
S'Grand Prix'
p73
sg11
S'http://steamcommunity.com/market/priceoverview/?currency=13&appid=730&market_hash_name=UMP-45%20%7C%20Grand%20Prix%20%28Battle-Scarred%29'
p74
sg13
S'UMP-45'
p75
sg17
g18
sg19
g57
sba(i__main__
skin
p76
(dp77
g6
I00
sg7
S'Chroma 2'
p78
sg8
F1.45
sg9
S'Monkey Business'
p79
sg11
S'http://steamcommunity.com/market/priceoverview/?currency=13&appid=730&market_hash_name=Five-SeveN%20%7C%20Monkey%20Business%20%28Battle-Scarred%29'
p80
sg13
S'Five-SeveN'
p81
sg15
I361
sg16
F1.4199999999999999
sg17
g18
sg19
S'Pink'
p82
sba(i__main__
skin
p83
(dp84
g6
I00
sg7
S'Chroma 2'
p85
sg8
F1.47
sg9
S'Eco'
p86
sg11
S'http://steamcommunity.com/market/priceoverview/?currency=13&appid=730&market_hash_name=Galil AR%20%7C%20Eco%20%28Battle-Scarred%29'
p87
sg13
S'Galil AR'
p88
sg15
I190
sg16
F1.5800000000000001
sg17
g18
sg19
g82
sba(i__main__
skin
p89
(dp90
g6
I00
sg7
S'Chroma 2'
p91
sg8
F1.46
sg9
S'Djinn'
p92
sg11
S'http://steamcommunity.com/market/priceoverview/?currency=13&appid=730&market_hash_name=FAMAS%20%7C%20Djinn%20%28Battle-Scarred%29'
p93
sg13
S'FAMAS'
p94
sg15
I309
sg16
F1.51
sg17
g18
sg19
g82
sba(i__main__
skin
p95
(dp96
g6
I00
sg7
S'Chroma 2'
p97
sg8
F10.42
sg9
S'Hyper Beast'
p98
sg11
S'http://steamcommunity.com/market/priceoverview/?currency=13&appid=730&market_hash_name=M4A1-S%20%7C%20Hyper%20Beast%20%28Battle-Scarred%29'
p99
sg13
S'M4A1-S'
p100
sg15
I637
sg16
F9.9499999999999993
sg17
g18
sg19
S'Red'
p101
sba(i__main__
skin
p102
(dp103
g6
I00
sg7
S'Chroma 2'
p104
sg9
S'Neon Rider'
p105
sg11
S'http://steamcommunity.com/market/priceoverview/?currency=13&appid=730&market_hash_name=MAC-10%20%7C%20Neon%20Rider%20%28Battle-Scarred%29'
p106
sg13
S'MAC-10'
p107
sg17
g18
sg19
g101
sbasS'Wildfire'
p108
(lp109
(i__main__
skin
p110
(dp111
g6
I00
sg7
S'Wildfire'
p112
sg8
F0.17999999999999999
sg9
S'Photic Zone'
p113
sg11
S'http://steamcommunity.com/market/priceoverview/?currency=13&appid=730&market_hash_name=PP-Bizon%20%7C%20Photic%20Zone%20%28Battle-Scarred%29'
p114
sg13
S'PP-Bizon'
p115
sg15
I472
sg16
F0.19
sg17
S'Battle-Scarred'
p116
sg19
S'Blue'
p117
sba(i__main__
skin
p118
(dp119
g6
I00
sg7
S'Wildfire'
p120
sg8
F0.20000000000000001
sg9
S'Cartel'
p121
sg11
S'http://steamcommunity.com/market/priceoverview/?currency=13&appid=730&market_hash_name=Dual Berettas%20%7C%20Cartel%20%28Battle-Scarred%29'
p122
sg13
S'Dual Berettas'
p123
sg15
I441
sg16
F0.19
sg17
g116
sg19
g117
sba(i__main__
skin
p124
(dp125
g6
I00
sg7
S'Wildfire'
p126
sg8
F0.22
sg9
S'Lapis Gator'
p127
sg11
S'http://steamcommunity.com/market/priceoverview/?currency=13&appid=730&market_hash_name=MAC-10%20%7C%20Lapis%20Gator%20%28Battle-Scarred%29'
p128
sg13
S'MAC-10'
p129
sg15
I124
sg16
F0.20999999999999999
sg17
g116
sg19
g117
sba(i__main__
skin
p130
(dp131
g6
I00
sg7
S'Wildfire'
p132
sg8
F0.23000000000000001
sg9
S'Necropos'
p133
sg11
S'http://steamcommunity.com/market/priceoverview/?currency=13&appid=730&market_hash_name=SSG 08%20%7C%20Necropos%20%28Battle-Scarred%29'
p134
sg13
S'SSG 08'
p135
sg15
I521
sg16
F0.23000000000000001
sg17
g116
sg19
g117
sba(i__main__
skin
p136
(dp137
g6
I00
sg7
S'Wildfire'
p138
sg8
F0.19
sg9
S'Jambiya'
p139
sg11
S'http://steamcommunity.com/market/priceoverview/?currency=13&appid=730&market_hash_name=Tec-9%20%7C%20Jambiya%20%28Battle-Scarred%29'
p140
sg13
S'Tec-9'
p141
sg15
I482
sg16
F0.17999999999999999
sg17
g116
sg19
g117
sba(i__main__
skin
p142
(dp143
g6
I00
sg7
S'Wildfire'
p144
sg8
F0.33000000000000002
sg9
S'Lead Conduit'
p145
sg11
S'http://steamcommunity.com/market/priceoverview/?currency=13&appid=730&market_hash_name=USP-S%20%7C%20Lead%20Conduit%20%28Battle-Scarred%29'
p146
sg13
S'USP-S'
p147
sg15
I701
sg16
F0.32000000000000001
sg17
g116
sg19
g117
sba(i__main__
skin
p148
(dp149
g6
I00
sg7
S'Wildfire'
p150
sg8
F1.8400000000000001
sg9
S'Valence'
p151
sg11
S'http://steamcommunity.com/market/priceoverview/?currency=13&appid=730&market_hash_name=FAMAS%20%7C%20Valence%20%28Battle-Scarred%29'
p152
sg13
S'FAMAS'
p153
sg15
I165
sg16
F1.97
sg17
g116
sg19
S'Purple'
p154
sba(i__main__
skin
p155
(dp156
g6
I00
sg7
S'Wildfire'
p157
sg8
F1.3400000000000001
sg9
S'Triumvirate'
p158
sg11
S'http://steamcommunity.com/market/priceoverview/?currency=13&appid=730&market_hash_name=Five-SeveN%20%7C%20Triumvirate%20%28Battle-Scarred%29'
p159
sg13
S'Five-SeveN'
p160
sg15
I121
sg16
F1.3799999999999999
sg17
g116
sg19
g154
sba(i__main__
skin
p161
(dp162
g6
I00
sg7
S'Wildfire'
p163
sg8
F1.2
sg9
S'Royal Legion'
p164
sg11
S'http://steamcommunity.com/market/priceoverview/?currency=13&appid=730&market_hash_name=Glock-18%20%7C%20Royal%20Legion%20%28Battle-Scarred%29'
p165
sg13
S'Glock-18'
p166
sg15
I250
sg16
F1.46
sg17
g116
sg19
g154
sba(i__main__
skin
p167
(dp168
g6
I00
sg7
S'Wildfire'
p169
sg9
S'Praetorian'
p170
sg11
S'http://steamcommunity.com/market/priceoverview/?currency=13&appid=730&market_hash_name=MAG-7%20%7C%20Praetorian%20%28Battle-Scarred%29'
p171
sg13
S'MAG-7'
p172
sg17
g116
sg19
g154
sba(i__main__
skin
p173
(dp174
g6
I00
sg7
S'Wildfire'
p175
sg9
S'Impire'
p176
sg11
S'http://steamcommunity.com/market/priceoverview/?currency=13&appid=730&market_hash_name=MP7%20%7C%20Impire%20%28Battle-Scarred%29'
p177
sg13
S'MP7'
p178
sg17
g116
sg19
g154
sba(i__main__
skin
p179
(dp180
g6
I00
sg7
S'Wildfire'
p181
sg8
F8.5700000000000003
sg9
S'Elite Build'
p182
sg11
S'http://steamcommunity.com/market/priceoverview/?currency=13&appid=730&market_hash_name=AWP%20%7C%20Elite%20Build%20%28Battle-Scarred%29'
p183
sg13
S'AWP'
p184
sg15
I103
sg16
F8
sg17
g116
sg19
S'Pink'
p185
sba(i__main__
skin
p186
(dp187
g6
I00
sg7
S'Wildfire'
p188
sg8
F10.02
sg9
S'Kumicho Dragon'
p189
sg11
S'http://steamcommunity.com/market/priceoverview/?currency=13&appid=730&market_hash_name=Desert Eagle%20%7C%20Kumicho%20Dragon%20%28Battle-Scarred%29'
p190
sg13
S'Desert Eagle'
p191
sg15
I88
sg16
F8.9100000000000001
sg17
g116
sg19
g185
sba(i__main__
skin
p192
(dp193
g6
I00
sg7
S'Wildfire'
p194
sg8
F4.7400000000000002
sg9
S'Hyper Beast'
p195
sg11
S'http://steamcommunity.com/market/priceoverview/?currency=13&appid=730&market_hash_name=Nova%20%7C%20Hyper%20Beast%20%28Battle-Scarred%29'
p196
sg13
S'Nova'
p197
sg15
I61
sg16
F5.8799999999999999
sg17
g116
sg19
g185
sba(i__main__
skin
p198
(dp199
g6
I00
sg7
S'Wildfire'
p200
sg8
F41.600000000000001
sg9
S'Fuel Injector'
p201
sg11
S'http://steamcommunity.com/market/priceoverview/?currency=13&appid=730&market_hash_name=AK-47%20%7C%20Fuel%20Injector%20%28Battle-Scarred%29'
p202
sg13
S'AK-47'
p203
sg15
I42
sg16
F39.229999999999997
sg17
g116
sg19
S'Red'
p204
sba(i__main__
skin
p205
(dp206
g6
I00
sg7
S'Wildfire'
p207
sg8
F9.6699999999999999
sg9
S'The Battlestar'
p208
sg11
S'http://steamcommunity.com/market/priceoverview/?currency=13&appid=730&market_hash_name=M4A4%20%7C%20The%20Battlestar%20%28Battle-Scarred%29'
p209
sg13
S'M4A4'
p210
sg15
I22
sg16
F10.94
sg17
g116
sg19
g204
sbasS'eSports 2014 Summer'
p211
(lp212
(i__main__
skin
p213
(dp214
g6
I00
sg7
g211
sg9
S'Dark Water'
p215
sg11
S'http://steamcommunity.com/market/priceoverview/?currency=13&appid=730&market_hash_name=SSG 08%20%7C%20Dark%20Water%20%28Battle-Scarred%29'
p216
sg13
S'SSG 08'
p217
sg17
S'Battle-Scarred'
p218
sg19
g20
sba(i__main__
skin
p219
(dp220
g6
I00
sg7
S'eSports 2014 Summer'
p221
sg8
F0.17999999999999999
sg9
S'Ultraviolet'
p222
sg11
S'http://steamcommunity.com/market/priceoverview/?currency=13&appid=730&market_hash_name=MAC-10%20%7C%20Ultraviolet%20%28Battle-Scarred%29'
p223
sg13
S'MAC-10'
p224
sg15
I25
sg16
F0.25
sg17
g218
sg19
g20
sba(i__main__
skin
p225
(dp226
g6
I00
sg7
S'eSports 2014 Summer'
p227
sg9
S'Blood Tiger'
p228
sg11
S'http://steamcommunity.com/market/priceoverview/?currency=13&appid=730&market_hash_name=USP-S%20%7C%20Blood%20Tiger%20%28Battle-Scarred%29'
p229
sg13
S'USP-S'
p230
sg17
g218
sg19
g20
sba(i__main__
skin
p231
(dp232
g6
I00
sg7
S'eSports 2014 Summer'
p233
sg9
S'Hexane'
p234
sg11
S'http://steamcommunity.com/market/priceoverview/?currency=13&appid=730&market_hash_name=CZ75-Auto%20%7C%20Hexane%20%28Battle-Scarred%29'
p235
sg13
S'CZ75-Auto'
p236
sg17
g218
sg19
g20
sba(i__main__
skin
p237
(dp238
g6
I00
sg7
S'eSports 2014 Summer'
p239
sg8
F0.23999999999999999
sg9
S'Bratatat'
p240
sg11
S'http://steamcommunity.com/market/priceoverview/?currency=13&appid=730&market_hash_name=Negev%20%7C%20Bratatat%20%28Battle-Scarred%29'
p241
sg13
S'Negev'
p242
sg15
I25
sg16
F0.25
sg17
g218
sg19
g20
sba(i__main__
skin
p243
(dp244
g6
I00
sg7
S'eSports 2014 Summer'
p245
sg8
F0.27000000000000002
sg9
S'Red Python'
p246
sg11
S'http://steamcommunity.com/market/priceoverview/?currency=13&appid=730&market_hash_name=XM1014%20%7C%20Red%20Python%20%28Battle-Scarred%29'
p247
sg13
S'XM1014'
p248
sg15
I11
sg16
F0.31
sg17
g218
sg19
g20
sba(i__main__
skin
p249
(dp250
g6
I00
sg7
S'eSports 2014 Summer'
p251
sg8
F0.62
sg9
S'Blue Streak'
p252
sg11
S'http://steamcommunity.com/market/priceoverview/?currency=13&appid=730&market_hash_name=PP-Bizon%20%7C%20Blue%20Streak%20%28Battle-Scarred%29'
p253
sg13
S'PP-Bizon'
p254
sg15
I7
sg16
F0.66000000000000003
sg17
g218
sg19
g57
sba(i__main__
skin
p255
(dp256
g6
I00
sg7
S'eSports 2014 Summer'
p257
sg8
F0.83999999999999997
sg9
S'Virus'
p258
sg11
S'http://steamcommunity.com/market/priceoverview/?currency=13&appid=730&market_hash_name=P90%20%7C%20Virus%20%28Battle-Scarred%29'
p259
sg13
S'P90'
p260
sg15
I17
sg16
F0.84999999999999998
sg17
g218
sg19
g57
sba(i__main__
skin
p261
(dp262
g6
I00
sg7
S'eSports 2014 Summer'
p263
sg9
S'Ocean Foam'
p264
sg11
S'http://steamcommunity.com/market/priceoverview/?currency=13&appid=730&market_hash_name=MP7%20%7C%20Ocean%20Foam%20%28Battle-Scarred%29'
p265
sg13
S'MP7'
p266
sg17
g218
sg19
g57
sba(i__main__
skin
p267
(dp268
g6
I00
sg7
S'eSports 2014 Summer'
p269
sg9
S'Steel Disruption'
p270
sg11
S'http://steamcommunity.com/market/priceoverview/?currency=13&appid=730&market_hash_name=Glock-18%20%7C%20Steel%20Disruption%20%28Battle-Scarred%29'
p271
sg13
S'Glock-18'
p272
sg17
g218
sg19
g57
sba(i__main__
skin
p273
(dp274
g6
I00
sg7
S'eSports 2014 Summer'
p275
sg8
F0.77000000000000002
sg9
S'Crimson Web'
p276
sg11
S'http://steamcommunity.com/market/priceoverview/?currency=13&appid=730&market_hash_name=Desert Eagle%20%7C%20Crimson%20Web%20%28Battle-Scarred%29'
p277
sg13
S'Desert Eagle'
p278
sg15
I37
sg16
F0.93999999999999995
sg17
g218
sg19
g57
sba(i__main__
skin
p279
(dp280
g6
I00
sg7
S'eSports 2014 Summer'
p281
sg8
I-1
sg9
S'Bengal Tiger'
p282
sg11
S'http://steamcommunity.com/market/priceoverview/?currency=13&appid=730&market_hash_name=AUG%20%7C%20Bengal%20Tiger%20%28Battle-Scarred%29'
p283
sg13
S'AUG'
p284
sg15
I0
sg16
I-1
sg17
g218
sg19
g82
sba(i__main__
skin
p285
(dp286
g6
I00
sg7
S'eSports 2014 Summer'
p287
sg8
F2.2200000000000002
sg9
S'Bloomstick'
p288
sg11
S'http://steamcommunity.com/market/priceoverview/?currency=13&appid=730&market_hash_name=Nova%20%7C%20Bloomstick%20%28Battle-Scarred%29'
p289
sg13
S'Nova'
p290
sg15
I4
sg16
F3.2400000000000002
sg17
g218
sg19
g82
sba(i__main__
skin
p291
(dp292
g6
I00
sg7
S'eSports 2014 Summer'
p293
sg9
S'Corticera'
p294
sg11
S'http://steamcommunity.com/market/priceoverview/?currency=13&appid=730&market_hash_name=AWP%20%7C%20Corticera%20%28Battle-Scarred%29'
p295
sg13
S'AWP'
p296
sg17
g218
sg19
g82
sba(i__main__
skin
p297
(dp298
g6
I00
sg7
S'eSports 2014 Summer'
p299
sg9
S'Corticera'
p300
sg11
S'http://steamcommunity.com/market/priceoverview/?currency=13&appid=730&market_hash_name=P2000%20%7C%20Corticera%20%28Battle-Scarred%29'
p301
sg13
S'P2000'
p302
sg17
g218
sg19
g82
sba(i__main__
skin
p303
(dp304
g6
I00
sg7
S'eSports 2014 Summer'
p305
sg8
F12.210000000000001
sg9
S'Bullet Rain'
p306
sg11
S'http://steamcommunity.com/market/priceoverview/?currency=13&appid=730&market_hash_name=M4A4%20%7C%20Bullet%20Rain%20%28Battle-Scarred%29'
p307
sg13
S'M4A4'
p308
sg15
I1
sg16
F12.16
sg17
g218
sg19
g101
sba(i__main__
skin
p309
(dp310
g6
I00
sg7
S'eSports 2014 Summer'
p311
sg8
F11.15
sg9
S'Jaguar'
p312
sg11
S'http://steamcommunity.com/market/priceoverview/?currency=13&appid=730&market_hash_name=AK-47%20%7C%20Jaguar%20%28Battle-Scarred%29'
p313
sg13
S'AK-47'
p314
sg15
I67
sg16
F11.51
sg17
g218
sg19
g101
sbasS'Italy'
p315
(lp316
(i__main__
skin
p317
(dp318
g6
I00
sg7
g315
sg8
F2.0699999999999998
sg9
S'Pit Viper'
p319
sg11
S'http://steamcommunity.com/market/priceoverview/?currency=13&appid=730&market_hash_name=AWP%20%7C%20Pit%20Viper%20%28Battle-Scarred%29'
p320
sg13
S'AWP'
p321
sg15
I122
sg16
F1.9099999999999999
sg17
g116
sg19
g57
sba(i__main__
skin
p322
(dp323
g6
I00
sg7
S'Italy'
p324
sg8
F0.17999999999999999
sg9
S'Full Stop'
p325
sg11
S'http://steamcommunity.com/market/priceoverview/?currency=13&appid=730&market_hash_name=Sawed-Off%20%7C%20Full%20Stop%20%28Battle-Scarred%29'
p326
sg13
S'Sawed-Off'
p327
sg15
I46
sg16
F0.17999999999999999
sg17
g116
sg19
g20
sba(i__main__
skin
p328
(dp329
g6
I00
sg7
S'Italy'
p330
sg9
S'Candy Apple'
p331
sg11
S'http://steamcommunity.com/market/priceoverview/?currency=13&appid=730&market_hash_name=Glock-18%20%7C%20Candy%20Apple%20%28Battle-Scarred%29'
p332
sg13
S'Glock-18'
p333
sg17
g116
sg19
g20
sba(i__main__
skin
p334
(dp335
g6
I00
sg7
S'Italy'
p336
sg9
S'Anodized Navy'
p337
sg11
S'http://steamcommunity.com/market/priceoverview/?currency=13&appid=730&market_hash_name=MP7%20%7C%20Anodized%20Navy%20%28Battle-Scarred%29'
p338
sg13
S'MP7'
p339
sg17
g116
sg19
g20
sba(i__main__
skin
p340
(dp341
g6
I00
sg7
S'Italy'
p342
sg8
F0.040000000000000001
sg9
S'CaliCamo'
p343
sg11
S'http://steamcommunity.com/market/priceoverview/?currency=13&appid=730&market_hash_name=XM1014%20%7C%20CaliCamo%20%28Battle-Scarred%29'
p344
sg13
S'XM1014'
p345
sg15
I100
sg16
F0.059999999999999998
sg17
g116
sg19
S'Light-Blue'
p346
sba(i__main__
skin
p347
(dp348
g6
I00
sg7
S'Italy'
p349
sg8
F0.17000000000000001
sg9
S'Boreal Forest'
p350
sg11
S'http://steamcommunity.com/market/priceoverview/?currency=13&appid=730&market_hash_name=M4A1-S%20%7C%20Boreal%20Forest%20%28Battle-Scarred%29'
p351
sg13
S'M4A1-S'
p352
sg15
I740
sg16
F0.17999999999999999
sg17
g116
sg19
g346
sba(i__main__
skin
p353
(dp354
g6
I00
sg7
S'Italy'
p355
sg8
F0.040000000000000001
sg9
S'Gunsmoke'
p356
sg11
S'http://steamcommunity.com/market/priceoverview/?currency=13&appid=730&market_hash_name=UMP-45%20%7C%20Gunsmoke%20%28Battle-Scarred%29'
p357
sg13
S'UMP-45'
p358
sg15
I308
sg16
F0.059999999999999998
sg17
g116
sg19
g346
sba(i__main__
skin
p359
(dp360
g6
I00
sg7
S'Italy'
p361
sg8
F0.02
sg9
S'Granite Marbleized'
p362
sg11
S'http://steamcommunity.com/market/priceoverview/?currency=13&appid=730&market_hash_name=P2000%20%7C%20Granite%20Marbleized%20%28Battle-Scarred%29'
p363
sg13
S'P2000'
p364
sg15
I375
sg16
F0.059999999999999998
sg17
g116
sg19
g346
sba(i__main__
skin
p365
(dp366
g6
I00
sg7
S'Italy'
p367
sg8
F0.050000000000000003
sg9
S'Stained'
p368
sg11
S'http://steamcommunity.com/market/priceoverview/?currency=13&appid=730&market_hash_name=Dual Berettas%20%7C%20Stained%20%28Battle-Scarred%29'
p369
sg13
S'Dual Berettas'
p370
sg15
I412
sg16
F0.059999999999999998
sg17
g116
sg19
g346
sba(i__main__
skin
p371
(dp372
g6
I00
sg7
S'Italy'
p373
sg9
S'Candy Apple'
p374
sg11
S'http://steamcommunity.com/market/priceoverview/?currency=13&appid=730&market_hash_name=Nova%20%7C%20Candy%20Apple%20%28Battle-Scarred%29'
p375
sg13
S'Nova'
p376
sg17
g116
sg19
g346
sba(i__main__
skin
p377
(dp378
g6
I00
sg7
S'Italy'
p379
sg8
F0.02
sg9
S'Groundwater'
p380
sg11
S'http://steamcommunity.com/market/priceoverview/?currency=13&appid=730&market_hash_name=Tec-9%20%7C%20Groundwater%20%28Battle-Scarred%29'
p381
sg13
S'Tec-9'
p382
sg15
I794
sg16
F0.040000000000000001
sg17
g116
sg19
S'White'
p383
sba(i__main__
skin
p384
(dp385
g6
I00
sg7
S'Italy'
p386
sg8
F0.040000000000000001
sg9
S'Contractor'
p387
sg11
S'http://steamcommunity.com/market/priceoverview/?currency=13&appid=730&market_hash_name=AUG%20%7C%20Contractor%20%28Battle-Scarred%29'
p388
sg13
S'AUG'
p389
sg15
I764
sg16
F0.040000000000000001
sg17
g116
sg19
g383
sba(i__main__
skin
p390
(dp391
g6
I00
sg7
S'Italy'
p392
sg8
F0.02
sg9
S'Colony'
p393
sg11
S'http://steamcommunity.com/market/priceoverview/?currency=13&appid=730&market_hash_name=FAMAS%20%7C%20Colony%20%28Battle-Scarred%29'
p394
sg13
S'FAMAS'
p395
sg15
I765
sg16
F0.040000000000000001
sg17
g116
sg19
g383
sba(i__main__
skin
p396
(dp397
g6
I00
sg7
S'Italy'
p398
sg8
F0.02
sg9
S'Sand Dune'
p399
sg11
S'http://steamcommunity.com/market/priceoverview/?currency=13&appid=730&market_hash_name=Nova%20%7C%20Sand%20Dune%20%28Battle-Scarred%29'
p400
sg13
S'Nova'
p401
sg15
I787
sg16
F0.040000000000000001
sg17
g116
sg19
g383
sba(i__main__
skin
p402
(dp403
g6
I00
sg7
S'Italy'
p404
sg8
F0.02
sg9
S'Sand Dashed'
p405
sg11
S'http://steamcommunity.com/market/priceoverview/?currency=13&appid=730&market_hash_name=PP-Bizon%20%7C%20Sand%20Dashed%20%28Battle-Scarred%29'
p406
sg13
S'PP-Bizon'
p407
sg15
I752
sg16
F0.040000000000000001
sg17
g116
sg19
g383
sbasS'Arms Deal'
p408
(lp409
(i__main__
skin
p410
(dp411
g6
I00
sg7
g408
sg9
S'Skulls'
p412
sg11
S'http://steamcommunity.com/market/priceoverview/?currency=13&appid=730&market_hash_name=MP7%20%7C%20Skulls%20%28Battle-Scarred%29'
p413
sg13
S'MP7'
p414
sg17
g218
sg19
g20
sba(i__main__
skin
p415
(dp416
g6
I00
sg7
S'Arms Deal'
p417
sg8
F0.81000000000000005
sg9
S'Ultraviolet'
p418
sg11
S'http://steamcommunity.com/market/priceoverview/?currency=13&appid=730&market_hash_name=SG 553%20%7C%20Ultraviolet%20%28Battle-Scarred%29'
p419
sg13
S'SG 553'
p420
sg15
I22
sg16
F0.92000000000000004
sg17
g218
sg19
g20
sba(i__main__
skin
p421
(dp422
g6
I00
sg7
S'Arms Deal'
p423
sg9
S'Wings'
p424
sg11
S'http://steamcommunity.com/market/priceoverview/?currency=13&appid=730&market_hash_name=AUG%20%7C%20Wings%20%28Battle-Scarred%29'
p425
sg13
S'AUG'
p426
sg17
g218
sg19
g20
sba(i__main__
skin
p427
(dp428
g6
I00
sg7
S'Arms Deal'
p429
sg9
S'Dark Water'
p430
sg11
S'http://steamcommunity.com/market/priceoverview/?currency=13&appid=730&market_hash_name=M4A1-S%20%7C%20Dark%20Water%20%28Battle-Scarred%29'
p431
sg13
S'M4A1-S'
p432
sg17
g218
sg19
g57
sba(i__main__
skin
p433
(dp434
g6
I00
sg7
S'Arms Deal'
p435
sg9
S'Dark Water'
p436
sg11
S'http://steamcommunity.com/market/priceoverview/?currency=13&appid=730&market_hash_name=USP-S%20%7C%20Dark%20Water%20%28Battle-Scarred%29'
p437
sg13
S'USP-S'
p438
sg17
g218
sg19
g57
sba(i__main__
skin
p439
(dp440
g6
I00
sg7
S'Arms Deal'
p441
sg9
S'Dragon Tattoo'
p442
sg11
S'http://steamcommunity.com/market/priceoverview/?currency=13&appid=730&market_hash_name=Glock-18%20%7C%20Dragon%20Tattoo%20%28Battle-Scarred%29'
p443
sg13
S'Glock-18'
p444
sg17
g218
sg19
g57
sba(i__main__
skin
p445
(dp446
g6
I00
sg7
S'Arms Deal'
p447
sg9
S'Hypnotic'
p448
sg11
S'http://steamcommunity.com/market/priceoverview/?currency=13&appid=730&market_hash_name=Desert Eagle%20%7C%20Hypnotic%20%28Battle-Scarred%29'
p449
sg13
S'Desert Eagle'
p450
sg17
g218
sg19
g82
sba(i__main__
skin
p451
(dp452
g6
I00
sg7
S'Arms Deal'
p453
sg8
F28.02
sg9
S'Case Hardened'
p454
sg11
S'http://steamcommunity.com/market/priceoverview/?currency=13&appid=730&market_hash_name=AK-47%20%7C%20Case%20Hardened%20%28Battle-Scarred%29'
p455
sg13
S'AK-47'
p456
sg15
I51
sg16
F29.109999999999999
sg17
g218
sg19
g82
sba(i__main__
skin
p457
(dp458
g6
I00
sg7
S'Arms Deal'
p459
sg9
S'Lightning Strike'
p460
sg11
S'http://steamcommunity.com/market/priceoverview/?currency=13&appid=730&market_hash_name=AWP%20%7C%20Lightning%20Strike%20%28Battle-Scarred%29'
p461
sg13
S'AWP'
p462
sg17
g218
sg19
g101
sbasS'Cache'
p463
(lp464
(i__main__
skin
p465
(dp466
g6
I00
sg7
g463
sg8
F1.8500000000000001
sg9
S'Cerberus'
p467
sg11
S'http://steamcommunity.com/market/priceoverview/?currency=13&appid=730&market_hash_name=Galil AR%20%7C%20Cerberus%20%28Battle-Scarred%29'
p468
sg13
S'Galil AR'
p469
sg15
I38
sg16
F2.1200000000000001
sg17
g218
sg19
g57
sba(i__main__
skin
p470
(dp471
g6
I00
sg7
S'Cache'
p472
sg8
F1.1299999999999999
sg9
S'Styx'
p473
sg11
S'http://steamcommunity.com/market/priceoverview/?currency=13&appid=730&market_hash_name=FAMAS%20%7C%20Styx%20%28Battle-Scarred%29'
p474
sg13
S'FAMAS'
p475
sg15
I14
sg16
F1.1100000000000001
sg17
g218
sg19
g57
sba(i__main__
skin
p476
(dp477
g6
I00
sg7
S'Cache'
p478
sg8
F2.3599999999999999
sg9
S'Toxic'
p479
sg11
S'http://steamcommunity.com/market/priceoverview/?currency=13&appid=730&market_hash_name=Tec-9%20%7C%20Toxic%20%28Battle-Scarred%29'
p480
sg13
S'Tec-9'
p481
sg15
I29
sg16
F2.5299999999999998
sg17
g218
sg19
g20
sba(i__main__
skin
p482
(dp483
g6
I00
sg7
S'Cache'
p484
sg8
F1.0800000000000001
sg9
S'Nuclear Garden'
p485
sg11
S'http://steamcommunity.com/market/priceoverview/?currency=13&appid=730&market_hash_name=MAC-10%20%7C%20Nuclear%20Garden%20%28Battle-Scarred%29'
p486
sg13
S'MAC-10'
p487
sg15
I1
sg16
F1.24
sg17
g218
sg19
g20
sba(i__main__
skin
p488
(dp489
g6
I00
sg7
S'Cache'
p490
sg8
F0.94999999999999996
sg9
S'Bone Machine'
p491
sg11
S'http://steamcommunity.com/market/priceoverview/?currency=13&appid=730&market_hash_name=XM1014%20%7C%20Bone%20Machine%20%28Battle-Scarred%29'
p492
sg13
S'XM1014'
p493
sg15
I4
sg16
F0.98999999999999999
sg17
g218
sg19
g20
sba(i__main__
skin
p494
(dp495
g6
I00
sg7
S'Cache'
p496
sg8
F0.85999999999999999
sg9
S'Setting Sun'
p497
sg11
S'http://steamcommunity.com/market/priceoverview/?currency=13&appid=730&market_hash_name=MP9%20%7C%20Setting%20Sun%20%28Battle-Scarred%29'
p498
sg13
S'MP9'
p499
sg15
I5
sg16
F1.01
sg17
g218
sg19
g20
sba(i__main__
skin
p500
(dp501
g6
I00
sg7
S'Cache'
p502
sg8
F1.48
sg9
S'Reactor'
p503
sg11
S'http://steamcommunity.com/market/priceoverview/?currency=13&appid=730&market_hash_name=Glock-18%20%7C%20Reactor%20%28Battle-Scarred%29'
p504
sg13
S'Glock-18'
p505
sg15
I53
sg16
F1.5600000000000001
sg17
g218
sg19
g20
sba(i__main__
skin
p506
(dp507
g6
I00
sg7
S'Cache'
p508
sg8
F0.38
sg9
S'Hot Shot'
p509
sg11
S'http://steamcommunity.com/market/priceoverview/?currency=13&appid=730&market_hash_name=Five-SeveN%20%7C%20Hot%20Shot%20%28Battle-Scarred%29'
p510
sg13
S'Five-SeveN'
p511
sg15
I66
sg16
F0.34999999999999998
sg17
g218
sg19
g346
sba(i__main__
skin
p512
(dp513
g6
I00
sg7
S'Cache'
p514
sg8
F0.40000000000000002
sg9
S'Fallout Warning'
p515
sg11
S'http://steamcommunity.com/market/priceoverview/?currency=13&appid=730&market_hash_name=SG 553%20%7C%20Fallout%20Warning%20%28Battle-Scarred%29'
p516
sg13
S'SG 553'
p517
sg15
I31
sg16
F0.40000000000000002
sg17
g218
sg19
g346
sba(i__main__
skin
p518
(dp519
g6
I00
sg7
S'Cache'
p520
sg8
F0.39000000000000001
sg9
S'Chemical Green'
p521
sg11
S'http://steamcommunity.com/market/priceoverview/?currency=13&appid=730&market_hash_name=PP-Bizon%20%7C%20Chemical%20Green%20%28Battle-Scarred%29'
p522
sg13
S'PP-Bizon'
p523
sg15
I38
sg16
F0.38
sg17
g218
sg19
g346
sba(i__main__
skin
p524
(dp525
g6
I00
sg7
S'Cache'
p526
sg8
F0.40999999999999998
sg9
S'Radiation Hazard'
p527
sg11
S'http://steamcommunity.com/market/priceoverview/?currency=13&appid=730&market_hash_name=AUG%20%7C%20Radiation%20Hazard%20%28Battle-Scarred%29'
p528
sg13
S'AUG'
p529
sg15
I27
sg16
F0.40000000000000002
sg17
g218
sg19
g346
sba(i__main__
skin
p530
(dp531
g6
I00
sg7
S'Cache'
p532
sg8
F0.35999999999999999
sg9
S'Contamination'
p533
sg11
S'http://steamcommunity.com/market/priceoverview/?currency=13&appid=730&market_hash_name=P250%20%7C%20Contamination%20%28Battle-Scarred%29'
p534
sg13
S'P250'
p535
sg15
I22
sg16
F0.34000000000000002
sg17
g218
sg19
g346
sba(i__main__
skin
p536
(dp537
g6
I00
sg7
S'Cache'
p538
sg9
S'Nuclear Waste'
p539
sg11
S'http://steamcommunity.com/market/priceoverview/?currency=13&appid=730&market_hash_name=Negev%20%7C%20Nuclear%20Waste%20%28Battle-Scarred%29'
p540
sg13
S'Negev'
p541
sg17
g218
sg19
g346
sbasS'Chroma'
p542
(lp543
(i__main__
skin
p544
(dp545
g6
I00
sg7
g542
sg8
F0.23999999999999999
sg9
S'Catacombs'
p546
sg11
S'http://steamcommunity.com/market/priceoverview/?currency=13&appid=730&market_hash_name=Glock-18%20%7C%20Catacombs%20%28Battle-Scarred%29'
p547
sg13
S'Glock-18'
p548
sg15
I83
sg16
F0.14999999999999999
sg17
g218
sg19
g20
sba(i__main__
skin
p549
(dp550
g6
I00
sg7
S'Chroma'
p551
sg8
F0.13
sg9
S'System Lock'
p552
sg11
S'http://steamcommunity.com/market/priceoverview/?currency=13&appid=730&market_hash_name=M249%20%7C%20System%20Lock%20%28Battle-Scarred%29'
p553
sg13
S'M249'
p554
sg15
I97
sg16
F0.13
sg17
g218
sg19
g20
sba(i__main__
skin
p555
(dp556
g6
I00
sg7
S'Chroma'
p557
sg8
F0.12
sg9
S'Deadly Poison'
p558
sg11
S'http://steamcommunity.com/market/priceoverview/?currency=13&appid=730&market_hash_name=MP9%20%7C%20Deadly%20Poison%20%28Battle-Scarred%29'
p559
sg13
S'MP9'
p560
sg15
I219
sg16
F0.12
sg17
g218
sg19
g20
sba(i__main__
skin
p561
(dp562
g6
I00
sg7
S'Chroma'
p563
sg8
F0.17000000000000001
sg9
S'Grotto'
p564
sg11
S'http://steamcommunity.com/market/priceoverview/?currency=13&appid=730&market_hash_name=SCAR-20%20%7C%20Grotto%20%28Battle-Scarred%29'
p565
sg13
S'SCAR-20'
p566
sg15
I49
sg16
F0.16
sg17
g218
sg19
g20
sba(i__main__
skin
p567
(dp568
g6
I00
sg7
S'Chroma'
p569
sg8
F0.13
sg9
S'Quicksilver'
p570
sg11
S'http://steamcommunity.com/market/priceoverview/?currency=13&appid=730&market_hash_name=XM1014%20%7C%20Quicksilver%20%28Battle-Scarred%29'
p571
sg13
S'XM1014'
p572
sg15
I25
sg16
F0.14000000000000001
sg17
g218
sg19
g20
sba(i__main__
skin
p573
(dp574
g6
I00
sg7
S'Chroma'
p575
sg8
F0.69999999999999996
sg9
S'Urban Shock'
p576
sg11
S'http://steamcommunity.com/market/priceoverview/?currency=13&appid=730&market_hash_name=Dual Berettas%20%7C%20Urban%20Shock%20%28Battle-Scarred%29'
p577
sg13
S'Dual Berettas'
p578
sg15
I7
sg16
F0.73999999999999999
sg17
g218
sg19
g57
sba(i__main__
skin
p579
(dp580
g6
I00
sg7
S'Chroma'
p581
sg8
F0.5
sg9
S'Naga'
p582
sg11
S'http://steamcommunity.com/market/priceoverview/?currency=13&appid=730&market_hash_name=Desert Eagle%20%7C%20Naga%20%28Battle-Scarred%29'
p583
sg13
S'Desert Eagle'
p584
sg15
I161
sg16
F0.48999999999999999
sg17
g218
sg19
g57
sba(i__main__
skin
p585
(dp586
g6
I00
sg7
S'Chroma'
p587
sg8
F0.69999999999999996
sg9
S'Malachite'
p588
sg11
S'http://steamcommunity.com/market/priceoverview/?currency=13&appid=730&market_hash_name=MAC-10%20%7C%20Malachite%20%28Battle-Scarred%29'
p589
sg13
S'MAC-10'
p590
sg15
I11
sg16
F0.65000000000000002
sg17
g218
sg19
g57
sba(i__main__
skin
p591
(dp592
g6
I00
sg7
S'Chroma'
p593
sg8
F0.62
sg9
S'Serenity'
p594
sg11
S'http://steamcommunity.com/market/priceoverview/?currency=13&appid=730&market_hash_name=Sawed-Off%20%7C%20Serenity%20%28Battle-Scarred%29'
p595
sg13
S'Sawed-Off'
p596
sg15
I15
sg16
F0.64000000000000001
sg17
g218
sg19
g57
sba(i__main__
skin
p597
(dp598
g6
I00
sg7
S'Chroma'
p599
sg8
F2.7400000000000002
sg9
S'Cartel'
p600
sg11
S'http://steamcommunity.com/market/priceoverview/?currency=13&appid=730&market_hash_name=AK-47%20%7C%20Cartel%20%28Battle-Scarred%29'
p601
sg13
S'AK-47'
p602
sg15
I171
sg16
F2.6800000000000002
sg17
g218
sg19
g82
sba(i__main__
skin
p603
(dp604
g6
I00
sg7
S'Chroma'
p605
sg8
F2.9900000000000002
sg9
S'\xe9\xbe\x8d\xe7\x8e\x8b (Dragon King)'
p606
sg11
S'http://steamcommunity.com/market/priceoverview/?currency=13&appid=730&market_hash_name=M4A4%20%7C%20%E9%BE%8D%E7%8E%8B%20%28Dragon%20King%29%20%28Battle-Scarred%29'
p607
sg13
S'M4A4'
p608
sg15
I102
sg16
F3.2400000000000002
sg17
g218
sg19
g82
sba(i__main__
skin
p609
(dp610
g6
I00
sg7
S'Chroma'
p611
sg8
F2.4100000000000001
sg9
S'Muertos'
p612
sg11
S'http://steamcommunity.com/market/priceoverview/?currency=13&appid=730&market_hash_name=P250%20%7C%20Muertos%20%28Battle-Scarred%29'
p613
sg13
S'P250'
p614
sg15
I31
sg16
F2.4399999999999999
sg17
g218
sg19
g82
sba(i__main__
skin
p615
(dp616
g6
I00
sg7
S'Chroma'
p617
sg9
S"Man-o'-war"
p618
sg11
S'http://steamcommunity.com/market/priceoverview/?currency=13&appid=730&market_hash_name=AWP%20%7C%20Man-o%27-war%20%28Battle-Scarred%29'
p619
sg13
S'AWP'
p620
sg17
g218
sg19
g101
sba(i__main__
skin
p621
(dp622
g6
I00
sg7
S'Chroma'
p623
sg8
F2.1800000000000002
sg9
S'Chatterbox'
p624
sg11
S'http://steamcommunity.com/market/priceoverview/?currency=13&appid=730&market_hash_name=Galil AR%20%7C%20Chatterbox%20%28Battle-Scarred%29'
p625
sg13
S'Galil AR'
p626
sg15
I401
sg16
F2.0699999999999998
sg17
g218
sg19
g101
sbasS'Lake'
p627
(lp628
(i__main__
skin
p629
(dp630
g6
I00
sg7
g627
sg9
S'Cobalt Quartz'
p631
sg11
S'http://steamcommunity.com/market/priceoverview/?currency=13&appid=730&market_hash_name=Dual Berettas%20%7C%20Cobalt%20Quartz%20%28Battle-Scarred%29'
p632
sg13
S'Dual Berettas'
p633
sg17
g218
sg19
g57
sba(i__main__
skin
p634
(dp635
g6
I00
sg7
S'Lake'
p636
sg8
F0.20999999999999999
sg9
S'Night Ops'
p637
sg11
S'http://steamcommunity.com/market/priceoverview/?currency=13&appid=730&market_hash_name=USP-S%20%7C%20Night%20Ops%20%28Battle-Scarred%29'
p638
sg13
S'USP-S'
p639
sg15
I111
sg16
F0.20000000000000001
sg17
g218
sg19
g20
sba(i__main__
skin
p640
(dp641
g6
I00
sg7
S'Lake'
p642
sg8
F0.46999999999999997
sg9
S'Teardown'
p643
sg11
S'http://steamcommunity.com/market/priceoverview/?currency=13&appid=730&market_hash_name=P90%20%7C%20Teardown%20%28Battle-Scarred%29'
p644
sg13
S'P90'
p645
sg15
I56
sg16
F0.42999999999999999
sg17
g218
sg19
g20
sba(i__main__
skin
p646
(dp647
g6
I00
sg7
S'Lake'
p648
sg9
S'Anodized Navy'
p649
sg11
S'http://steamcommunity.com/market/priceoverview/?currency=13&appid=730&market_hash_name=SG 553%20%7C%20Anodized%20Navy%20%28Battle-Scarred%29'
p650
sg13
S'SG 553'
p651
sg17
g218
sg19
g20
sba(i__main__
skin
p652
(dp653
g6
I00
sg7
S'Lake'
p654
sg8
F0.080000000000000002
sg9
S'Mudder'
p655
sg11
S'http://steamcommunity.com/market/priceoverview/?currency=13&appid=730&market_hash_name=Desert Eagle%20%7C%20Mudder%20%28Battle-Scarred%29'
p656
sg13
S'Desert Eagle'
p657
sg15
I463
sg16
F0.070000000000000007
sg17
g218
sg19
g346
sba(i__main__
skin
p658
(dp659
g6
I00
sg7
S'Lake'
p660
sg8
F0.66000000000000003
sg9
S'Safari Mesh'
p661
sg11
S'http://steamcommunity.com/market/priceoverview/?currency=13&appid=730&market_hash_name=AWP%20%7C%20Safari%20Mesh%20%28Battle-Scarred%29'
p662
sg13
S'AWP'
p663
sg15
I0
sg16
F0.60999999999999999
sg17
g218
sg19
g346
sba(i__main__
skin
p664
(dp665
g6
I00
sg7
S'Lake'
p666
sg8
F0.040000000000000001
sg9
S'Night Ops'
p667
sg11
S'http://steamcommunity.com/market/priceoverview/?currency=13&appid=730&market_hash_name=PP-Bizon%20%7C%20Night%20Ops%20%28Battle-Scarred%29'
p668
sg13
S'PP-Bizon'
p669
sg15
I93
sg16
F0.070000000000000007
sg17
g218
sg19
g346
sba(i__main__
skin
p670
(dp671
g6
I00
sg7
S'Lake'
p672
sg8
F0.080000000000000002
sg9
S'Cyanospatter'
p673
sg11
S'http://steamcommunity.com/market/priceoverview/?currency=13&appid=730&market_hash_name=FAMAS%20%7C%20Cyanospatter%20%28Battle-Scarred%29'
p674
sg13
S'FAMAS'
p675
sg15
I255
sg16
F0.070000000000000007
sg17
g218
sg19
g346
sba(i__main__
skin
p676
(dp677
g6
I00
sg7
S'Lake'
p678
sg8
F0.050000000000000003
sg9
S'Blue Steel'
p679
sg11
S'http://steamcommunity.com/market/priceoverview/?currency=13&appid=730&market_hash_name=XM1014%20%7C%20Blue%20Steel%20%28Battle-Scarred%29'
p680
sg13
S'XM1014'
p681
sg15
I415
sg16
F0.070000000000000007
sg17
g218
sg19
g346
sba(i__main__
skin
p682
(dp683
g6
I00
sg7
S'Lake'
p684
sg8
F0.02
sg9
S'Boreal Forest'
p685
sg11
S'http://steamcommunity.com/market/priceoverview/?currency=13&appid=730&market_hash_name=P250%20%7C%20Boreal%20Forest%20%28Battle-Scarred%29'
p686
sg13
S'P250'
p687
sg15
I656
sg16
F0.040000000000000001
sg17
g218
sg19
g383
sba(i__main__
skin
p688
(dp689
g6
I00
sg7
S'Lake'
p690
sg8
F0.02
sg9
S'Blue Spruce'
p691
sg11
S'http://steamcommunity.com/market/priceoverview/?currency=13&appid=730&market_hash_name=XM1014%20%7C%20Blue%20Spruce%20%28Battle-Scarred%29'
p692
sg13
S'XM1014'
p693
sg15
I643
sg16
F0.040000000000000001
sg17
g218
sg19
g383
sba(i__main__
skin
p694
(dp695
g6
I00
sg7
S'Lake'
p696
sg8
F0.02
sg9
S'Storm'
p697
sg11
S'http://steamcommunity.com/market/priceoverview/?currency=13&appid=730&market_hash_name=AUG%20%7C%20Storm%20%28Battle-Scarred%29'
p698
sg13
S'AUG'
p699
sg15
I516
sg16
F0.040000000000000001
sg17
g218
sg19
g383
sba(i__main__
skin
p700
(dp701
g6
I00
sg7
S'Lake'
p702
sg8
F0.029999999999999999
sg9
S'Sage Spray'
p703
sg11
S'http://steamcommunity.com/market/priceoverview/?currency=13&appid=730&market_hash_name=Galil AR%20%7C%20Sage%20Spray%20%28Battle-Scarred%29'
p704
sg13
S'Galil AR'
p705
sg15
I627
sg16
F0.040000000000000001
sg17
g218
sg19
g383
sba(i__main__
skin
p706
(dp707
g6
I00
sg7
S'Lake'
p708
sg8
F0.029999999999999999
sg9
S'Waves Perforated'
p709
sg11
S'http://steamcommunity.com/market/priceoverview/?currency=13&appid=730&market_hash_name=SG 553%20%7C%20Waves%20Perforated%20%28Battle-Scarred%29'
p710
sg13
S'SG 553'
p711
sg15
I607
sg16
F0.040000000000000001
sg17
g218
sg19
g383
sba(i__main__
skin
p712
(dp713
g6
I00
sg7
S'Lake'
p714
sg8
F0.02
sg9
S'Jungle Dashed'
p715
sg11
S'http://steamcommunity.com/market/priceoverview/?currency=13&appid=730&market_hash_name=G3SG1%20%7C%20Jungle%20Dashed%20%28Battle-Scarred%29'
p716
sg13
S'G3SG1'
p717
sg15
I0
sg16
F0.040000000000000001
sg17
g218
sg19
g383
sbasS'Breakout'
p718
(lp719
(i__main__
skin
p720
(dp721
g6
I00
sg7
g718
sg8
F0.11
sg9
S'Urban Hazard'
p722
sg11
S'http://steamcommunity.com/market/priceoverview/?currency=13&appid=730&market_hash_name=MP7%20%7C%20Urban%20Hazard%20%28Battle-Scarred%29'
p723
sg13
S'MP7'
p724
sg15
I92
sg16
F0.12
sg17
g218
sg19
g20
sba(i__main__
skin
p725
(dp726
g6
I00
sg7
S'Breakout'
p727
sg8
F0.11
sg9
S'Desert-Strike'
p728
sg11
S'http://steamcommunity.com/market/priceoverview/?currency=13&appid=730&market_hash_name=Negev%20%7C%20Desert-Strike%20%28Battle-Scarred%29'
p729
sg13
S'Negev'
p730
sg15
I60
sg16
F0.12
sg17
g218
sg19
g20
sba(i__main__
skin
p731
(dp732
g6
I00
sg7
S'Breakout'
p733
sg8
F0.11
sg9
S'Ivory'
p734
sg11
S'http://steamcommunity.com/market/priceoverview/?currency=13&appid=730&market_hash_name=P2000%20%7C%20Ivory%20%28Battle-Scarred%29'
p735
sg13
S'P2000'
p736
sg15
I444
sg16
F0.12
sg17
g218
sg19
g20
sba(i__main__
skin
p737
(dp738
g6
I00
sg7
S'Breakout'
p739
sg8
F0.12
sg9
S'Abyss'
p740
sg11
S'http://steamcommunity.com/market/priceoverview/?currency=13&appid=730&market_hash_name=SSG 08%20%7C%20Abyss%20%28Battle-Scarred%29'
p741
sg13
S'SSG 08'
p742
sg15
I557
sg16
F0.12
sg17
g218
sg19
g20
sba(i__main__
skin
p743
(dp744
g6
I00
sg7
S'Breakout'
p745
sg9
S'Labyrinth'
p746
sg11
S'http://steamcommunity.com/market/priceoverview/?currency=13&appid=730&market_hash_name=UMP-45%20%7C%20Labyrinth%20%28Battle-Scarred%29'
p747
sg13
S'UMP-45'
p748
sg17
g218
sg19
g20
sba(i__main__
skin
p749
(dp750
g6
I00
sg7
S'Breakout'
p751
sg8
F0.52000000000000002
sg9
S'Osiris'
p752
sg11
S'http://steamcommunity.com/market/priceoverview/?currency=13&appid=730&market_hash_name=PP-Bizon%20%7C%20Osiris%20%28Battle-Scarred%29'
p753
sg13
S'PP-Bizon'
p754
sg15
I41
sg16
F0.58999999999999997
sg17
g218
sg19
g57
sba(i__main__
skin
p755
(dp756
g6
I00
sg7
S'Breakout'
p757
sg8
F0.40000000000000002
sg9
S'Tigris'
p758
sg11
S'http://steamcommunity.com/market/priceoverview/?currency=13&appid=730&market_hash_name=CZ75-Auto%20%7C%20Tigris%20%28Battle-Scarred%29'
p759
sg13
S'CZ75-Auto'
p760
sg15
I209
sg16
F0.34000000000000002
sg17
g218
sg19
g57
sba(i__main__
skin
p761
(dp762
g6
I00
sg7
S'Breakout'
p763
sg9
S'Koi'
p764
sg11
S'http://steamcommunity.com/market/priceoverview/?currency=13&appid=730&market_hash_name=Nova%20%7C%20Koi%20%28Battle-Scarred%29'
p765
sg13
S'Nova'
p766
sg17
g218
sg19
g57
sba(i__main__
skin
p767
(dp768
g6
I00
sg7
S'Breakout'
p769
sg9
S'Supernova'
p770
sg11
S'http://steamcommunity.com/market/priceoverview/?currency=13&appid=730&market_hash_name=P250%20%7C%20Supernova%20%28Battle-Scarred%29'
p771
sg13
S'P250'
p772
sg17
g218
sg19
g57
sba(i__main__
skin
p773
(dp774
g6
I00
sg7
S'Breakout'
p775
sg9
S'Conspiracy'
p776
sg11
S'http://steamcommunity.com/market/priceoverview/?currency=13&appid=730&market_hash_name=Desert Eagle%20%7C%20Conspiracy%20%28Battle-Scarred%29'
p777
sg13
S'Desert Eagle'
p778
sg17
g218
sg19
g82
sba(i__main__
skin
p779
(dp780
g6
I00
sg7
S'Breakout'
p781
sg8
F1.9399999999999999
sg9
S'Fowl Play'
p782
sg11
S'http://steamcommunity.com/market/priceoverview/?currency=13&appid=730&market_hash_name=Five-SeveN%20%7C%20Fowl%20Play%20%28Battle-Scarred%29'
p783
sg13
S'Five-SeveN'
p784
sg15
I81
sg16
F2.1299999999999999
sg17
g218
sg19
g82
sba(i__main__
skin
p785
(dp786
g6
I00
sg7
S'Breakout'
p787
sg8
F3.2000000000000002
sg9
S'Water Elemental'
p788
sg11
S'http://steamcommunity.com/market/priceoverview/?currency=13&appid=730&market_hash_name=Glock-18%20%7C%20Water%20Elemental%20%28Battle-Scarred%29'
p789
sg13
S'Glock-18'
p790
sg15
I193
sg16
F3.23
sg17
g218
sg19
g82
sba(i__main__
skin
p791
(dp792
g6
I00
sg7
S'Breakout'
p793
sg8
F4.2800000000000002
sg9
S'Asiimov'
p794
sg11
S'http://steamcommunity.com/market/priceoverview/?currency=13&appid=730&market_hash_name=P90%20%7C%20Asiimov%20%28Battle-Scarred%29'
p795
sg13
S'P90'
p796
sg15
I221
sg16
F4.5
sg17
g218
sg19
g101
sba(i__main__
skin
p797
(dp798
g6
I00
sg7
S'Breakout'
p799
sg8
F11.539999999999999
sg9
S'Cyrex'
p800
sg11
S'http://steamcommunity.com/market/priceoverview/?currency=13&appid=730&market_hash_name=M4A1-S%20%7C%20Cyrex%20%28Battle-Scarred%29'
p801
sg13
S'M4A1-S'
p802
sg15
I36
sg16
F11.43
sg17
g218
sg19
g101
sbasS'Rising Sun'
p803
(lp804
(i__main__
skin
p805
(dp806
g6
I00
sg7
g803
sg8
F0.10000000000000001
sg9
S'Bamboo Print'
p807
sg11
S'http://steamcommunity.com/market/priceoverview/?currency=13&appid=730&market_hash_name=PP-Bizon%20%7C%20Bamboo%20Print%20%28Battle-Scarred%29'
p808
sg13
S'PP-Bizon'
p809
sg15
I302
sg16
F0.089999999999999997
sg17
S'Battle-Scarred'
p810
sg19
g383
sba(i__main__
skin
p811
(dp812
g6
I00
sg7
S'Rising Sun'
p813
sg8
F0.080000000000000002
sg9
S'Bamboo Shadow'
p814
sg11
S'http://steamcommunity.com/market/priceoverview/?currency=13&appid=730&market_hash_name=Sawed-Off%20%7C%20Bamboo%20Shadow%20%28Battle-Scarred%29'
p815
sg13
S'Sawed-Off'
p816
sg15
I152
sg16
F0.089999999999999997
sg17
g810
sg19
g383
sba(i__main__
skin
p817
(dp818
g6
I00
sg7
S'Rising Sun'
p819
sg8
F0.11
sg9
S'Bamboo Forest'
p820
sg11
S'http://steamcommunity.com/market/priceoverview/?currency=13&appid=730&market_hash_name=Tec-9%20%7C%20Bamboo%20Forest%20%28Battle-Scarred%29'
p821
sg13
S'Tec-9'
p822
sg15
I224
sg16
F0.13
sg17
g810
sg19
g383
sba(i__main__
skin
p823
(dp824
g6
I00
sg7
S'Rising Sun'
p825
sg8
F0.080000000000000002
sg9
S'Orange Kimono'
p826
sg11
S'http://steamcommunity.com/market/priceoverview/?currency=13&appid=730&market_hash_name=G3SG1%20%7C%20Orange%20Kimono%20%28Battle-Scarred%29'
p827
sg13
S'G3SG1'
p828
sg15
I305
sg16
F0.089999999999999997
sg17
g810
sg19
g383
sba(i__main__
skin
p829
(dp830
g6
I00
sg7
S'Rising Sun'
p831
sg8
F0.12
sg9
S'Mint Kimono'
p832
sg11
S'http://steamcommunity.com/market/priceoverview/?currency=13&appid=730&market_hash_name=P250%20%7C%20Mint%20Kimono%20%28Battle-Scarred%29'
p833
sg13
S'P250'
p834
sg15
I404
sg16
F0.13
sg17
g810
sg19
g383
sba(i__main__
skin
p835
(dp836
g6
I00
sg7
S'Rising Sun'
p837
sg8
F0.41999999999999998
sg9
S'Crimson Kimono'
p838
sg11
S'http://steamcommunity.com/market/priceoverview/?currency=13&appid=730&market_hash_name=P250%20%7C%20Crimson%20Kimono%20%28Battle-Scarred%29'
p839
sg13
S'P250'
p840
sg15
I96
sg16
F0.40000000000000002
sg17
g810
sg19
g346
sba(i__main__
skin
p841
(dp842
g6
I00
sg7
S'Rising Sun'
p843
sg8
F0.44
sg9
S'Midnight Storm'
p844
sg11
S'http://steamcommunity.com/market/priceoverview/?currency=13&appid=730&market_hash_name=Desert Eagle%20%7C%20Midnight%20Storm%20%28Battle-Scarred%29'
p845
sg13
S'Desert Eagle'
p846
sg15
I113
sg16
F0.46999999999999997
sg17
g810
sg19
g346
sba(i__main__
skin
p847
(dp848
g6
I00
sg7
S'Rising Sun'
p849
sg8
F1.8600000000000001
sg9
S'Aqua Terrace'
p850
sg11
S'http://steamcommunity.com/market/priceoverview/?currency=13&appid=730&market_hash_name=Galil AR%20%7C%20Aqua%20Terrace%20%28Battle-Scarred%29'
p851
sg13
S'Galil AR'
p852
sg15
I26
sg16
F2.7000000000000002
sg17
g810
sg19
g20
sba(i__main__
skin
p853
(dp854
g6
I00
sg7
S'Rising Sun'
p855
sg8
F2.5299999999999998
sg9
S'Counter Terrace'
p856
sg11
S'http://steamcommunity.com/market/priceoverview/?currency=13&appid=730&market_hash_name=MAG-7%20%7C%20Counter%20Terrace%20%28Battle-Scarred%29'
p857
sg13
S'MAG-7'
p858
sg15
I10
sg16
F2.6400000000000001
sg17
g810
sg19
g20
sba(i__main__
skin
p859
(dp860
g6
I00
sg7
S'Rising Sun'
p861
sg8
F2.3300000000000001
sg9
S'Terrace'
p862
sg11
S'http://steamcommunity.com/market/priceoverview/?currency=13&appid=730&market_hash_name=Tec-9%20%7C%20Terrace%20%28Battle-Scarred%29'
p863
sg13
S'Tec-9'
p864
sg15
I30
sg16
F2.77
sg17
g810
sg19
g20
sba(i__main__
skin
p865
(dp866
g6
I00
sg7
S'Rising Sun'
p867
sg8
F9.3399999999999999
sg9
S'Neon Kimono'
p868
sg11
S'http://steamcommunity.com/market/priceoverview/?currency=13&appid=730&market_hash_name=Five-SeveN%20%7C%20Neon%20Kimono%20%28Battle-Scarred%29'
p869
sg13
S'Five-SeveN'
p870
sg15
I8
sg16
F9.4399999999999995
sg17
g810
sg19
g57
sba(i__main__
skin
p871
(dp872
g6
I00
sg7
S'Rising Sun'
p873
sg8
F8.9600000000000009
sg9
S'Sunset Storm \xe5\xa3\xb1'
p874
sg11
S'http://steamcommunity.com/market/priceoverview/?currency=13&appid=730&market_hash_name=Desert Eagle%20%7C%20Sunset%20Storm%20%E5%A3%B1%20%28Battle-Scarred%29'
p875
sg13
S'Desert Eagle'
p876
sg15
I5
sg16
F9.3699999999999992
sg17
g810
sg19
g57
sba(i__main__
skin
p877
(dp878
g6
I00
sg7
S'Rising Sun'
p879
sg8
F9.7400000000000002
sg9
S'Sunset Storm \xe5\xbc\x90'
p880
sg11
S'http://steamcommunity.com/market/priceoverview/?currency=13&appid=730&market_hash_name=Desert Eagle%20%7C%20Sunset%20Storm%20%E5%BC%90%20%28Battle-Scarred%29'
p881
sg13
S'Desert Eagle'
p882
sg15
I3
sg16
F11.5
sg17
g810
sg19
g57
sba(i__main__
skin
p883
(dp884
g6
I00
sg7
S'Rising Sun'
p885
sg8
F8.5999999999999996
sg9
S'Daybreak'
p886
sg11
S'http://steamcommunity.com/market/priceoverview/?currency=13&appid=730&market_hash_name=M4A4%20%7C%20Daybreak%20%28Battle-Scarred%29'
p887
sg13
S'M4A4'
p888
sg15
I5
sg16
F9.3399999999999999
sg17
g810
sg19
g57
sba(i__main__
skin
p889
(dp890
g6
I00
sg7
S'Rising Sun'
p891
sg8
F55.969999999999999
sg9
S'Akihabara Accept'
p892
sg11
S'http://steamcommunity.com/market/priceoverview/?currency=13&appid=730&market_hash_name=AUG%20%7C%20Akihabara%20Accept%20%28Battle-Scarred%29'
p893
sg13
S'AUG'
p894
sg15
I5
sg16
F60.289999999999999
sg17
g810
sg19
g101
sba(i__main__
skin
p895
(dp896
g6
I00
sg7
S'Rising Sun'
p897
sg8
F43.460000000000001
sg9
S'Hydroponic'
p898
sg11
S'http://steamcommunity.com/market/priceoverview/?currency=13&appid=730&market_hash_name=AK-47%20%7C%20Hydroponic%20%28Battle-Scarred%29'
p899
sg13
S'AK-47'
p900
sg15
I3
sg16
F35.039999999999999
sg17
g810
sg19
g82
sbasS'Inferno'
p901
(lp902
(i__main__
skin
p903
(dp904
g6
I00
sg7
g901
sg8
F0.78000000000000003
sg9
S'Brass'
p905
sg11
S'http://steamcommunity.com/market/priceoverview/?currency=13&appid=730&market_hash_name=Tec-9%20%7C%20Brass%20%28Battle-Scarred%29'
p906
sg13
S'Tec-9'
p907
sg15
I23
sg16
F0.76000000000000001
sg17
g218
sg19
g20
sba(i__main__
skin
p908
(dp909
g6
I00
sg7
S'Inferno'
p910
sg9
S'Anodized Navy'
p911
sg11
S'http://steamcommunity.com/market/priceoverview/?currency=13&appid=730&market_hash_name=Dual Berettas%20%7C%20Anodized%20Navy%20%28Battle-Scarred%29'
p912
sg13
S'Dual Berettas'
p913
sg17
g218
sg19
g20
sba(i__main__
skin
p914
(dp915
g6
I00
sg7
S'Inferno'
p916
sg8
F0.55000000000000004
sg9
S'Tornado'
p917
sg11
S'http://steamcommunity.com/market/priceoverview/?currency=13&appid=730&market_hash_name=M4A4%20%7C%20Tornado%20%28Battle-Scarred%29'
p918
sg13
S'M4A4'
p919
sg15
I40
sg16
F0.71999999999999997
sg17
g218
sg19
g346
sba(i__main__
skin
p920
(dp921
g6
I00
sg7
S'Inferno'
p922
sg8
F0.47999999999999998
sg9
S'Gunsmoke'
p923
sg11
S'http://steamcommunity.com/market/priceoverview/?currency=13&appid=730&market_hash_name=P250%20%7C%20Gunsmoke%20%28Battle-Scarred%29'
p924
sg13
S'P250'
p925
sg15
I30
sg16
F0.47999999999999998
sg17
g218
sg19
g346
sba(i__main__
skin
p926
(dp927
g6
I00
sg7
S'Inferno'
p928
sg8
F0.25
sg9
S'Walnut'
p929
sg11
S'http://steamcommunity.com/market/priceoverview/?currency=13&appid=730&market_hash_name=Nova%20%7C%20Walnut%20%28Battle-Scarred%29'
p930
sg13
S'Nova'
p931
sg15
I14
sg16
F0.28000000000000003
sg17
g218
sg19
g383
sba(i__main__
skin
p932
(dp933
g6
I00
sg7
S'Inferno'
p934
sg8
F0.34999999999999998
sg9
S'Sand Dune'
p935
sg11
S'http://steamcommunity.com/market/priceoverview/?currency=13&appid=730&market_hash_name=MAG-7%20%7C%20Sand%20Dune%20%28Battle-Scarred%29'
p936
sg13
S'MAG-7'
p937
sg15
I8
sg16
F0.32000000000000001
sg17
g218
sg19
g383
sbasS'Shadow Case'
p938
(lp939
(i__main__
skin
p940
(dp941
g6
I00
sg7
g938
sg8
F0.12
sg9
S'Dualing Dragons'
p942
sg11
S'http://steamcommunity.com/market/priceoverview/?currency=13&appid=730&market_hash_name=Dual Berettas%20%7C%20Dualing%20Dragons%20%28Battle-Scarred%29'
p943
sg13
S'Dual Berettas'
p944
sg15
I512
sg16
F0.12
sg17
g218
sg19
g20
sba(i__main__
skin
p945
(dp946
g6
I00
sg7
S'Shadow Case'
p947
sg8
F0.12
sg9
S'Survivor Z'
p948
sg11
S'http://steamcommunity.com/market/priceoverview/?currency=13&appid=730&market_hash_name=FAMAS%20%7C%20Survivor%20Z%20%28Battle-Scarred%29'
p949
sg13
S'FAMAS'
p950
sg15
I222
sg16
F0.13
sg17
g218
sg19
g20
sba(i__main__
skin
p951
(dp952
g6
I00
sg7
S'Shadow Case'
p953
sg8
F0.12
sg9
S'Wraiths'
p954
sg11
S'http://steamcommunity.com/market/priceoverview/?currency=13&appid=730&market_hash_name=Glock-18%20%7C%20Wraiths%20%28Battle-Scarred%29'
p955
sg13
S'Glock-18'
p956
sg15
I454
sg16
F0.13
sg17
g218
sg19
g20
sba(i__main__
skin
p957
(dp958
g6
I00
sg7
S'Shadow Case'
p959
sg8
F0.089999999999999997
sg9
S'Rangeen'
p960
sg11
S'http://steamcommunity.com/market/priceoverview/?currency=13&appid=730&market_hash_name=MAC-10%20%7C%20Rangeen%20%28Battle-Scarred%29'
p961
sg13
S'MAC-10'
p962
sg15
I55
sg16
F0.12
sg17
g218
sg19
g20
sba(i__main__
skin
p963
(dp964
g6
I00
sg7
S'Shadow Case'
p965
sg8
F0.12
sg9
S'Cobalt Core'
p966
sg11
S'http://steamcommunity.com/market/priceoverview/?currency=13&appid=730&market_hash_name=MAG-7%20%7C%20Cobalt%20Core%20%28Battle-Scarred%29'
p967
sg13
S'MAG-7'
p968
sg15
I67
sg16
F0.12
sg17
g218
sg19
g20
sba(i__main__
skin
p969
(dp970
g6
I00
sg7
S'Shadow Case'
p971
sg8
F0.10000000000000001
sg9
S'Green Marine'
p972
sg11
S'http://steamcommunity.com/market/priceoverview/?currency=13&appid=730&market_hash_name=SCAR-20%20%7C%20Green%20Marine%20%28Battle-Scarred%29'
p973
sg13
S'SCAR-20'
p974
sg15
I278
sg16
F0.12
sg17
g218
sg19
g20
sba(i__main__
skin
p975
(dp976
g6
I00
sg7
S'Shadow Case'
p977
sg8
F0.11
sg9
S'Scumbria'
p978
sg11
S'http://steamcommunity.com/market/priceoverview/?currency=13&appid=730&market_hash_name=XM1014%20%7C%20Scumbria%20%28Battle-Scarred%29'
p979
sg13
S'XM1014'
p980
sg15
I438
sg16
F0.12
sg17
g218
sg19
g20
sba(i__main__
skin
p981
(dp982
g6
I00
sg7
S'Shadow Case'
p983
sg8
F0.67000000000000004
sg9
S'Stone Cold'
p984
sg11
S'http://steamcommunity.com/market/priceoverview/?currency=13&appid=730&market_hash_name=Galil AR%20%7C%20Stone%20Cold%20%28Battle-Scarred%29'
p985
sg13
S'Galil AR'
p986
sg15
I188
sg16
F0.62
sg17
g218
sg19
g57
sba(i__main__
skin
p987
(dp988
g6
I00
sg7
S'Shadow Case'
p989
sg8
F0.58999999999999997
sg9
S'Nebula Crusader'
p990
sg11
S'http://steamcommunity.com/market/priceoverview/?currency=13&appid=730&market_hash_name=M249%20%7C%20Nebula%20Crusader%20%28Battle-Scarred%29'
p991
sg13
S'M249'
p992
sg15
I194
sg16
F0.68999999999999995
sg17
g218
sg19
g57
sba(i__main__
skin
p993
(dp994
g6
I00
sg7
S'Shadow Case'
p995
sg8
F0.69999999999999996
sg9
S'Special Delivery'
p996
sg11
S'http://steamcommunity.com/market/priceoverview/?currency=13&appid=730&market_hash_name=MP7%20%7C%20Special%20Delivery%20%28Battle-Scarred%29'
p997
sg13
S'MP7'
p998
sg15
I74
sg16
F0.62
sg17
g218
sg19
g57
sba(i__main__
skin
p999
(dp1000
g6
I00
sg7
S'Shadow Case'
p1001
sg8
F0.68999999999999995
sg9
S'Wingshot'
p1002
sg11
S'http://steamcommunity.com/market/priceoverview/?currency=13&appid=730&market_hash_name=P250%20%7C%20Wingshot%20%28Battle-Scarred%29'
p1003
sg13
S'P250'
p1004
sg15
I284
sg16
F0.73999999999999999
sg17
g218
sg19
g57
sba(i__main__
skin
p1005
(dp1006
g6
I00
sg7
S'Shadow Case'
p1007
sg8
F7.5999999999999996
sg9
S'Frontside Misty'
p1008
sg11
S'http://steamcommunity.com/market/priceoverview/?currency=13&appid=730&market_hash_name=AK-47%20%7C%20Frontside%20Misty%20%28Battle-Scarred%29'
p1009
sg13
S'AK-47'
p1010
sg15
I316
sg16
F7.9000000000000004
sg17
g218
sg19
g82
sba(i__main__
skin
p1011
(dp1012
g6
I00
sg7
S'Shadow Case'
p1013
sg8
F3.1699999999999999
sg9
S'Flux'
p1014
sg11
S'http://steamcommunity.com/market/priceoverview/?currency=13&appid=730&market_hash_name=G3SG1%20%7C%20Flux%20%28Battle-Scarred%29'
p1015
sg13
S'G3SG1'
p1016
sg15
I61
sg16
F2.7799999999999998
sg17
g218
sg19
g82
sba(i__main__
skin
p1017
(dp1018
g6
I00
sg7
S'Shadow Case'
p1019
sg8
F4.1200000000000001
sg9
S'Big Iron'
p1020
sg11
S'http://steamcommunity.com/market/priceoverview/?currency=13&appid=730&market_hash_name=SSG 08%20%7C%20Big%20Iron%20%28Battle-Scarred%29'
p1021
sg13
S'SSG 08'
p1022
sg15
I62
sg16
F4.5999999999999996
sg17
g218
sg19
g82
sba(i__main__
skin
p1023
(dp1024
g6
I00
sg7
S'Shadow Case'
p1025
sg8
F21.98
sg9
S'Golden Coil'
p1026
sg11
S'http://steamcommunity.com/market/priceoverview/?currency=13&appid=730&market_hash_name=M4A1-S%20%7C%20Golden%20Coil%20%28Battle-Scarred%29'
p1027
sg13
S'M4A1-S'
p1028
sg15
I111
sg16
F23.129999999999999
sg17
g218
sg19
g101
sba(i__main__
skin
p1029
(dp1030
g6
I00
sg7
S'Shadow Case'
p1031
sg8
F21.420000000000002
sg9
S'Kill Confirmed'
p1032
sg11
S'http://steamcommunity.com/market/priceoverview/?currency=13&appid=730&market_hash_name=USP-S%20%7C%20Kill%20Confirmed%20%28Battle-Scarred%29'
p1033
sg13
S'USP-S'
p1034
sg15
I91
sg16
F23.280000000000001
sg17
g218
sg19
g101
sbasS'eSports 2013'
p1035
(lp1036
(i__main__
skin
p1037
(dp1038
g6
I00
sg7
g1035
sg8
F0.72999999999999998
sg9
S'Faded Zebra'
p1039
sg11
S'http://steamcommunity.com/market/priceoverview/?currency=13&appid=730&market_hash_name=M4A4%20%7C%20Faded%20Zebra%20%28Battle-Scarred%29'
p1040
sg13
S'M4A4'
p1041
sg15
I24
sg16
F0.81999999999999995
sg17
g218
sg19
g20
sba(i__main__
skin
p1042
(dp1043
g6
I00
sg7
S'eSports 2013'
p1044
sg9
S'Doomkitty'
p1045
sg11
S'http://steamcommunity.com/market/priceoverview/?currency=13&appid=730&market_hash_name=FAMAS%20%7C%20Doomkitty%20%28Battle-Scarred%29'
p1046
sg13
S'FAMAS'
p1047
sg17
g218
sg19
g20
sba(i__main__
skin
p1048
(dp1049
g6
I00
sg7
S'eSports 2013'
p1050
sg9
S'Memento'
p1051
sg11
S'http://steamcommunity.com/market/priceoverview/?currency=13&appid=730&market_hash_name=MAG-7%20%7C%20Memento%20%28Battle-Scarred%29'
p1052
sg13
S'MAG-7'
p1053
sg17
g218
sg19
g20
sba(i__main__
skin
p1054
(dp1055
g6
I00
sg7
S'eSports 2013'
p1056
sg8
I-1
sg9
S'Orange DDPAT'
p1057
sg11
S'http://steamcommunity.com/market/priceoverview/?currency=13&appid=730&market_hash_name=Sawed-Off%20%7C%20Orange%20DDPAT%20%28Battle-Scarred%29'
p1058
sg13
S'Sawed-Off'
p1059
sg15
I0
sg16
F3.8300000000000001
sg17
g218
sg19
g57
sba(i__main__
skin
p1060
(dp1061
g6
I00
sg7
S'eSports 2013'
p1062
sg9
S'Splash'
p1063
sg11
S'http://steamcommunity.com/market/priceoverview/?currency=13&appid=730&market_hash_name=P250%20%7C%20Splash%20%28Battle-Scarred%29'
p1064
sg13
S'P250'
p1065
sg17
g218
sg19
g57
sba(i__main__
skin
p1066
(dp1067
g6
I00
sg7
S'eSports 2013'
p1068
sg8
F3.1200000000000001
sg9
S'Orange DDPAT'
p1069
sg11
S'http://steamcommunity.com/market/priceoverview/?currency=13&appid=730&market_hash_name=Galil AR%20%7C%20Orange%20DDPAT%20%28Battle-Scarred%29'
p1070
sg13
S'Galil AR'
p1071
sg15
I3
sg16
F3.2200000000000002
sg17
g218
sg19
g57
sba(i__main__
skin
p1072
(dp1073
g6
I00
sg7
S'eSports 2013'
p1074
sg8
F6.7699999999999996
sg9
S'Red Laminate'
p1075
sg11
S'http://steamcommunity.com/market/priceoverview/?currency=13&appid=730&market_hash_name=AK-47%20%7C%20Red%20Laminate%20%28Battle-Scarred%29'
p1076
sg13
S'AK-47'
p1077
sg15
I24
sg16
F8.1999999999999993
sg17
g218
sg19
g82
sba(i__main__
skin
p1078
(dp1079
g6
I00
sg7
S'eSports 2013'
p1080
sg9
S'BOOM'
p1081
sg11
S'http://steamcommunity.com/market/priceoverview/?currency=13&appid=730&market_hash_name=AWP%20%7C%20BOOM%20%28Battle-Scarred%29'
p1082
sg13
S'AWP'
p1083
sg17
g218
sg19
g82
sba(i__main__
skin
p1084
(dp1085
g6
I00
sg7
S'eSports 2013'
p1086
sg9
S'Death by Kitty'
p1087
sg11
S'http://steamcommunity.com/market/priceoverview/?currency=13&appid=730&market_hash_name=P90%20%7C%20Death%20by%20Kitty%20%28Battle-Scarred%29'
p1088
sg13
S'P90'
p1089
sg17
g218
sg19
g101
sbasS'Phoenix'
p1090
(lp1091
(i__main__
skin
p1092
(dp1093
g6
I00
sg7
g1090
sg8
F0.11
sg9
S'Corporal'
p1094
sg11
S'http://steamcommunity.com/market/priceoverview/?currency=13&appid=730&market_hash_name=UMP-45%20%7C%20Corporal%20%28Battle-Scarred%29'
p1095
sg13
S'UMP-45'
p1096
sg15
I306
sg16
F0.12
sg17
g218
sg19
g20
sba(i__main__
skin
p1097
(dp1098
g6
I00
sg7
S'Phoenix'
p1099
sg9
S'Terrain'
p1100
sg11
S'http://steamcommunity.com/market/priceoverview/?currency=13&appid=730&market_hash_name=Negev%20%7C%20Terrain%20%28Battle-Scarred%29'
p1101
sg13
S'Negev'
p1102
sg17
g218
sg19
g20
sba(i__main__
skin
p1103
(dp1104
g6
I00
sg7
S'Phoenix'
p1105
sg8
F0.14000000000000001
sg9
S'Sandstorm'
p1106
sg11
S'http://steamcommunity.com/market/priceoverview/?currency=13&appid=730&market_hash_name=Tec-9%20%7C%20Sandstorm%20%28Battle-Scarred%29'
p1107
sg13
S'Tec-9'
p1108
sg15
I407
sg16
F0.14000000000000001
sg17
g218
sg19
g20
sba(i__main__
skin
p1109
(dp1110
g6
I00
sg7
S'Phoenix'
p1111
sg9
S'Heaven Guard'
p1112
sg11
S'http://steamcommunity.com/market/priceoverview/?currency=13&appid=730&market_hash_name=MAG-7%20%7C%20Heaven%20Guard%20%28Battle-Scarred%29'
p1113
sg13
S'MAG-7'
p1114
sg17
g218
sg19
g20
sba(i__main__
skin
p1115
(dp1116
g6
I00
sg7
S'Phoenix'
p1117
sg8
F0.47999999999999998
sg9
S'Heat'
p1118
sg11
S'http://steamcommunity.com/market/priceoverview/?currency=13&appid=730&market_hash_name=MAC-10%20%7C%20Heat%20%28Battle-Scarred%29'
p1119
sg13
S'MAC-10'
p1120
sg15
I133
sg16
F0.53000000000000003
sg17
g218
sg19
g57
sba(i__main__
skin
p1121
(dp1122
g6
I00
sg7
S'Phoenix'
p1123
sg8
F0.48999999999999999
sg9
S'Pulse'
p1124
sg11
S'http://steamcommunity.com/market/priceoverview/?currency=13&appid=730&market_hash_name=SG 553%20%7C%20Pulse%20%28Battle-Scarred%29'
p1125
sg13
S'SG 553'
p1126
sg15
I98
sg16
F0.53000000000000003
sg17
g218
sg19
g57
sba(i__main__
skin
p1127
(dp1128
g6
I00
sg7
S'Phoenix'
p1129
sg8
F0.48999999999999999
sg9
S'Sergeant'
p1130
sg11
S'http://steamcommunity.com/market/priceoverview/?currency=13&appid=730&market_hash_name=FAMAS%20%7C%20Sergeant%20%28Battle-Scarred%29'
p1131
sg13
S'FAMAS'
p1132
sg15
I341
sg16
F0.5
sg17
g218
sg19
g57
sba(i__main__
skin
p1133
(dp1134
g6
I00
sg7
S'Phoenix'
p1135
sg9
S'Guardian'
p1136
sg11
S'http://steamcommunity.com/market/priceoverview/?currency=13&appid=730&market_hash_name=USP-S%20%7C%20Guardian%20%28Battle-Scarred%29'
p1137
sg13
S'USP-S'
p1138
sg17
g218
sg19
g57
sba(i__main__
skin
p1139
(dp1140
g6
I00
sg7
S'Phoenix'
p1141
sg8
F3.8300000000000001
sg9
S'Redline'
p1142
sg11
S'http://steamcommunity.com/market/priceoverview/?currency=13&appid=730&market_hash_name=AK-47%20%7C%20Redline%20%28Battle-Scarred%29'
p1143
sg13
S'AK-47'
p1144
sg15
I269
sg16
F3.98
sg17
g218
sg19
g82
sba(i__main__
skin
p1145
(dp1146
g6
I00
sg7
S'Phoenix'
p1147
sg8
F3.8399999999999999
sg9
S'Trigon'
p1148
sg11
S'http://steamcommunity.com/market/priceoverview/?currency=13&appid=730&market_hash_name=P90%20%7C%20Trigon%20%28Battle-Scarred%29'
p1149
sg13
S'P90'
p1150
sg15
I65
sg16
F3.9199999999999999
sg17
g218
sg19
g82
sba(i__main__
skin
p1151
(dp1152
g6
I00
sg7
S'Phoenix'
p1153
sg9
S'Antique'
p1154
sg11
S'http://steamcommunity.com/market/priceoverview/?currency=13&appid=730&market_hash_name=Nova%20%7C%20Antique%20%28Battle-Scarred%29'
p1155
sg13
S'Nova'
p1156
sg17
g218
sg19
g82
sba(i__main__
skin
p1157
(dp1158
g6
I00
sg7
S'Phoenix'
p1159
sg8
F32.170000000000002
sg9
S'Asiimov'
p1160
sg11
S'http://steamcommunity.com/market/priceoverview/?currency=13&appid=730&market_hash_name=AWP%20%7C%20Asiimov%20%28Battle-Scarred%29'
p1161
sg13
S'AWP'
p1162
sg15
I640
sg16
F32.57
sg17
g218
sg19
g101
sba(i__main__
skin
p1163
(dp1164
g6
I00
sg7
S'Phoenix'
p1165
sg8
F1.8500000000000001
sg9
S'Chameleon'
p1166
sg11
S'http://steamcommunity.com/market/priceoverview/?currency=13&appid=730&market_hash_name=AUG%20%7C%20Chameleon%20%28Battle-Scarred%29'
p1167
sg13
S'AUG'
p1168
sg15
I43
sg16
F1.8700000000000001
sg17
g218
sg19
g101
sbasS'Huntsman'
p1169
(lp1170
(i__main__
skin
p1171
(dp1172
g6
I00
sg7
g1169
sg8
F0.27000000000000002
sg9
S'Isaac'
p1173
sg11
S'http://steamcommunity.com/market/priceoverview/?currency=13&appid=730&market_hash_name=Tec-9%20%7C%20Isaac%20%28Battle-Scarred%29'
p1174
sg13
S'Tec-9'
p1175
sg15
I309
sg16
F0.28999999999999998
sg17
g810
sg19
g20
sba(i__main__
skin
p1176
(dp1177
g6
I00
sg7
S'Huntsman'
p1178
sg8
F0.16
sg9
S'Slashed'
p1179
sg11
S'http://steamcommunity.com/market/priceoverview/?currency=13&appid=730&market_hash_name=SSG 08%20%7C%20Slashed%20%28Battle-Scarred%29'
p1180
sg13
S'SSG 08'
p1181
sg15
I124
sg16
F0.17000000000000001
sg17
g810
sg19
g20
sba(i__main__
skin
p1182
(dp1183
g6
I00
sg7
S'Huntsman'
p1184
sg9
S'Retribution **'
p1185
sg11
S'http://steamcommunity.com/market/priceoverview/?currency=13&appid=730&market_hash_name=Dual Berettas%20%7C%20Retribution%20%2A%2A%20%28Battle-Scarred%29'
p1186
sg13
S'Dual Berettas'
p1187
sg17
g810
sg19
g20
sba(i__main__
skin
p1188
(dp1189
g6
I00
sg7
S'Huntsman'
p1190
sg8
F0.089999999999999997
sg9
S'Kami'
p1191
sg11
S'http://steamcommunity.com/market/priceoverview/?currency=13&appid=730&market_hash_name=Galil AR%20%7C%20Kami%20%28Battle-Scarred%29'
p1192
sg13
S'Galil AR'
p1193
sg15
I39
sg16
F0.14000000000000001
sg17
g810
sg19
g20
sba(i__main__
skin
p1194
(dp1195
g6
I00
sg7
S'Huntsman'
p1196
sg9
S'Desert Warfare **'
p1197
sg11
S'http://steamcommunity.com/market/priceoverview/?currency=13&appid=730&market_hash_name=P90%20%7C%20Desert%20Warfare%20%2A%2A%20%28Battle-Scarred%29'
p1198
sg13
S'P90'
p1199
sg17
g810
sg19
g20
sba(i__main__
skin
p1200
(dp1201
g6
I00
sg7
S'Huntsman'
p1202
sg9
S'Poison Dart **'
p1203
sg11
S'http://steamcommunity.com/market/priceoverview/?currency=13&appid=730&market_hash_name=CZ75-Auto%20%7C%20Poison%20Dart%20%2A%2A%20%28Battle-Scarred%29'
p1204
sg13
S'CZ75-Auto'
p1205
sg17
g810
sg19
g20
sba(i__main__
skin
p1206
(dp1207
g6
I00
sg7
S'Huntsman'
p1208
sg9
S'Twist *'
p1209
sg11
S'http://steamcommunity.com/market/priceoverview/?currency=13&appid=730&market_hash_name=CZ75-Auto%20%7C%20Twist%20%2A%20%28Battle-Scarred%29'
p1210
sg13
S'CZ75-Auto'
p1211
sg17
g810
sg19
g20
sba(i__main__
skin
p1212
(dp1213
g6
I00
sg7
S'Huntsman'
p1214
sg9
S'Module *'
p1215
sg11
S'http://steamcommunity.com/market/priceoverview/?currency=13&appid=730&market_hash_name=P90%20%7C%20Module%20%2A%20%28Battle-Scarred%29'
p1216
sg13
S'P90'
p1217
sg17
g810
sg19
g20
sba(i__main__
skin
p1218
(dp1219
g6
I00
sg7
S'Huntsman'
p1220
sg9
S'Pulse *'
p1221
sg11
S'http://steamcommunity.com/market/priceoverview/?currency=13&appid=730&market_hash_name=P2000%20%7C%20Pulse%20%2A%20%28Battle-Scarred%29'
p1222
sg13
S'P2000'
p1223
sg17
g810
sg19
g20
sba(i__main__
skin
p1224
(dp1225
g6
I00
sg7
S'Huntsman'
p1226
sg8
F1.1399999999999999
sg9
S'Torque'
p1227
sg11
S'http://steamcommunity.com/market/priceoverview/?currency=13&appid=730&market_hash_name=AUG%20%7C%20Torque%20%28Battle-Scarred%29'
p1228
sg13
S'AUG'
p1229
sg15
I8
sg16
F1.3799999999999999
sg17
g810
sg19
g57
sba(i__main__
skin
p1230
(dp1231
g6
I00
sg7
S'Huntsman'
p1232
sg8
F1.5
sg9
S'Antique'
p1233
sg11
S'http://steamcommunity.com/market/priceoverview/?currency=13&appid=730&market_hash_name=PP-Bizon%20%7C%20Antique%20%28Battle-Scarred%29'
p1234
sg13
S'PP-Bizon'
p1235
sg15
I7
sg16
F1.52
sg17
g810
sg19
g57
sba(i__main__
skin
p1236
(dp1237
g6
I00
sg7
S'Huntsman'
p1238
sg8
F0.58999999999999997
sg9
S'Heaven Guard'
p1239
sg11
S'http://steamcommunity.com/market/priceoverview/?currency=13&appid=730&market_hash_name=XM1014%20%7C%20Heaven%20Guard%20%28Battle-Scarred%29'
p1240
sg13
S'XM1014'
p1241
sg15
I3
sg16
F1.4299999999999999
sg17
g810
sg19
g57
sba(i__main__
skin
p1242
(dp1243
g6
I00
sg7
S'Huntsman'
p1244
sg9
S'Curse **'
p1245
sg11
S'http://steamcommunity.com/market/priceoverview/?currency=13&appid=730&market_hash_name=MAC-10%20%7C%20Curse%20%2A%2A%20%28Battle-Scarred%29'
p1246
sg13
S'MAC-10'
p1247
sg17
g810
sg19
g57
sba(i__main__
skin
p1248
(dp1249
g6
I00
sg7
S'Huntsman'
p1250
sg9
S'Tatter *'
p1251
sg11
S'http://steamcommunity.com/market/priceoverview/?currency=13&appid=730&market_hash_name=MAC-10%20%7C%20Tatter%20%2A%20%28Battle-Scarred%29'
p1252
sg13
S'MAC-10'
p1253
sg17
g810
sg19
g57
sba(i__main__
skin
p1254
(dp1255
g6
I00
sg7
S'Huntsman'
p1256
sg8
F3.9100000000000001
sg9
S'Atomic Alloy'
p1257
sg11
S'http://steamcommunity.com/market/priceoverview/?currency=13&appid=730&market_hash_name=M4A1-S%20%7C%20Atomic%20Alloy%20%28Battle-Scarred%29'
p1258
sg13
S'M4A1-S'
p1259
sg15
I33
sg16
F3.9199999999999999
sg17
g810
sg19
g82
sba(i__main__
skin
p1260
(dp1261
g6
I00
sg7
S'Huntsman'
p1262
sg8
F3.7400000000000002
sg9
S'Cyrex'
p1263
sg11
S'http://steamcommunity.com/market/priceoverview/?currency=13&appid=730&market_hash_name=SCAR-20%20%7C%20Cyrex%20%28Battle-Scarred%29'
p1264
sg13
S'SCAR-20'
p1265
sg15
I1
sg16
F4.0300000000000002
sg17
g810
sg19
g82
sba(i__main__
skin
p1266
(dp1267
g6
I00
sg7
S'Huntsman'
p1268
sg9
S'Orion **'
p1269
sg11
S'http://steamcommunity.com/market/priceoverview/?currency=13&appid=730&market_hash_name=USP-S%20%7C%20Orion%20%2A%2A%20%28Battle-Scarred%29'
p1270
sg13
S'USP-S'
p1271
sg17
g810
sg19
g82
sba(i__main__
skin
p1272
(dp1273
g6
I00
sg7
S'Huntsman'
p1274
sg9
S'Caiman *'
p1275
sg11
S'http://steamcommunity.com/market/priceoverview/?currency=13&appid=730&market_hash_name=USP-S%20%7C%20Caiman%20%2A%20%28Battle-Scarred%29'
p1276
sg13
S'USP-S'
p1277
sg17
g810
sg19
g82
sba(i__main__
skin
p1278
(dp1279
g6
I00
sg7
S'Huntsman'
p1280
sg8
F11.529999999999999
sg9
S'Vulcan'
p1281
sg11
S'http://steamcommunity.com/market/priceoverview/?currency=13&appid=730&market_hash_name=AK-47%20%7C%20Vulcan%20%28Battle-Scarred%29'
p1282
sg13
S'AK-47'
p1283
sg15
I201
sg16
F11.529999999999999
sg17
g810
sg19
g101
sba(i__main__
skin
p1284
(dp1285
g6
I00
sg7
S'Huntsman'
p1286
sg9
S'Desert-Strike *'
p1287
sg11
S'http://steamcommunity.com/market/priceoverview/?currency=13&appid=730&market_hash_name=M4A4%20%7C%20Desert-Strike%20%2A%20%28Battle-Scarred%29'
p1288
sg13
S'M4A4'
p1289
sg17
g810
sg19
g101
sba(i__main__
skin
p1290
(dp1291
g6
I00
sg7
S'Huntsman'
p1292
sg9
S'Howl **'
p1293
sg11
S'http://steamcommunity.com/market/priceoverview/?currency=13&appid=730&market_hash_name=M4A4%20%7C%20Howl%20%2A%2A%20%28Battle-Scarred%29'
p1294
sg13
S'M4A4'
p1295
sg17
g810
sg19
S'Brown'
p1296
sbasS'Cobblestone'
p1297
(lp1298
(i__main__
skin
p1299
(dp1300
g6
I00
sg7
g1297
sg8
I-1
sg9
S'Dragon Lore'
p1301
sg11
S'http://steamcommunity.com/market/priceoverview/?currency=13&appid=730&market_hash_name=AWP%20%7C%20Dragon%20Lore%20%28Battle-Scarred%29'
p1302
sg13
S'AWP'
p1303
sg15
I0
sg16
I-1
sg17
g218
sg19
g101
sba(i__main__
skin
p1304
(dp1305
g6
I00
sg7
S'Cobblestone'
p1306
sg9
S'Knight'
p1307
sg11
S'http://steamcommunity.com/market/priceoverview/?currency=13&appid=730&market_hash_name=M4A1-S%20%7C%20Knight%20%28Battle-Scarred%29'
p1308
sg13
S'M4A1-S'
p1309
sg17
g218
sg19
g82
sba(i__main__
skin
p1310
(dp1311
g6
I00
sg7
S'Cobblestone'
p1312
sg9
S'Chalice'
p1313
sg11
S'http://steamcommunity.com/market/priceoverview/?currency=13&appid=730&market_hash_name=CZ75-Auto%20%7C%20Chalice%20%28Battle-Scarred%29'
p1314
sg13
S'CZ75-Auto'
p1315
sg17
g218
sg19
g57
sba(i__main__
skin
p1316
(dp1317
g6
I00
sg7
S'Cobblestone'
p1318
sg8
F56.700000000000003
sg9
S'Hand Cannon'
p1319
sg11
S'http://steamcommunity.com/market/priceoverview/?currency=13&appid=730&market_hash_name=Desert Eagle%20%7C%20Hand%20Cannon%20%28Battle-Scarred%29'
p1320
sg13
S'Desert Eagle'
p1321
sg15
I1
sg16
F57.18
sg17
g218
sg19
g57
sba(i__main__
skin
p1322
(dp1323
g6
I00
sg7
S'Cobblestone'
p1324
sg9
S'Dark Age'
p1325
sg11
S'http://steamcommunity.com/market/priceoverview/?currency=13&appid=730&market_hash_name=MP9%20%7C%20Dark%20Age%20%28Battle-Scarred%29'
p1326
sg13
S'MP9'
p1327
sg17
g218
sg19
g20
sba(i__main__
skin
p1328
(dp1329
g6
I00
sg7
S'Cobblestone'
p1330
sg9
S'Chainmail'
p1331
sg11
S'http://steamcommunity.com/market/priceoverview/?currency=13&appid=730&market_hash_name=P2000%20%7C%20Chainmail%20%28Battle-Scarred%29'
p1332
sg13
S'P2000'
p1333
sg17
g218
sg19
g20
sba(i__main__
skin
p1334
(dp1335
g6
I00
sg7
S'Cobblestone'
p1336
sg8
F0.92000000000000004
sg9
S'Rust Coat'
p1337
sg11
S'http://steamcommunity.com/market/priceoverview/?currency=13&appid=730&market_hash_name=Sawed-Off%20%7C%20Rust%20Coat%20%28Battle-Scarred%29'
p1338
sg13
S'Sawed-Off'
p1339
sg15
I15
sg16
F0.97999999999999998
sg17
g218
sg19
g346
sba(i__main__
skin
p1340
(dp1341
g6
I00
sg7
S'Cobblestone'
p1342
sg9
S'Silver'
p1343
sg11
S'http://steamcommunity.com/market/priceoverview/?currency=13&appid=730&market_hash_name=MAG-7%20%7C%20Silver%20%28Battle-Scarred%29'
p1344
sg13
S'MAG-7'
p1345
sg17
g218
sg19
g346
sba(i__main__
skin
p1346
(dp1347
g6
I00
sg7
S'Cobblestone'
p1348
sg9
S'Green Apple'
p1349
sg11
S'http://steamcommunity.com/market/priceoverview/?currency=13&appid=730&market_hash_name=Nova%20%7C%20Green%20Apple%20%28Battle-Scarred%29'
p1350
sg13
S'Nova'
p1351
sg17
g218
sg19
g346
sba(i__main__
skin
p1352
(dp1353
g6
I00
sg7
S'Cobblestone'
p1354
sg8
F0.87
sg9
S'Royal Blue'
p1355
sg11
S'http://steamcommunity.com/market/priceoverview/?currency=13&appid=730&market_hash_name=USP-S%20%7C%20Royal%20Blue%20%28Battle-Scarred%29'
p1356
sg13
S'USP-S'
p1357
sg15
I27
sg16
F0.92000000000000004
sg17
g218
sg19
g346
sba(i__main__
skin
p1358
(dp1359
g6
I00
sg7
S'Cobblestone'
p1360
sg9
S'Briar'
p1361
sg11
S'http://steamcommunity.com/market/priceoverview/?currency=13&appid=730&market_hash_name=Dual Berettas%20%7C%20Briar%20%28Battle-Scarred%29'
p1362
sg13
S'Dual Berettas'
p1363
sg17
g218
sg19
g383
sba(i__main__
skin
p1364
(dp1365
g6
I00
sg7
S'Cobblestone'
p1366
sg8
F0.16
sg9
S'Storm'
p1367
sg11
S'http://steamcommunity.com/market/priceoverview/?currency=13&appid=730&market_hash_name=SCAR-20%20%7C%20Storm%20%28Battle-Scarred%29'
p1368
sg13
S'SCAR-20'
p1369
sg15
I30
sg16
F0.14999999999999999
sg17
g218
sg19
g383
sba(i__main__
skin
p1370
(dp1371
g6
I00
sg7
S'Cobblestone'
p1372
sg8
F0.14999999999999999
sg9
S'Indigo'
p1373
sg11
S'http://steamcommunity.com/market/priceoverview/?currency=13&appid=730&market_hash_name=MAC-10%20%7C%20Indigo%20%28Battle-Scarred%29'
p1374
sg13
S'MAC-10'
p1375
sg15
I36
sg16
F0.13
sg17
g218
sg19
g383
sba(i__main__
skin
p1376
(dp1377
g6
I00
sg7
S'Cobblestone'
p1378
sg8
F0.14999999999999999
sg9
S'Indigo'
p1379
sg11
S'http://steamcommunity.com/market/priceoverview/?currency=13&appid=730&market_hash_name=UMP-45%20%7C%20Indigo%20%28Battle-Scarred%29'
p1380
sg13
S'UMP-45'
p1381
sg15
I39
sg16
F0.14000000000000001
sg17
g218
sg19
g383
sba(i__main__
skin
p1382
(dp1383
g6
I00
sg7
S'Cobblestone'
p1384
sg8
F0.11
sg9
S'Storm'
p1385
sg11
S'http://steamcommunity.com/market/priceoverview/?currency=13&appid=730&market_hash_name=P90%20%7C%20Storm%20%28Battle-Scarred%29'
p1386
sg13
S'P90'
p1387
sg15
I40
sg16
F0.14000000000000001
sg17
g218
sg19
g383
sbasS'Assault'
p1388
(lp1389
(i__main__
skin
p1390
(dp1391
g6
I00
sg7
g1388
sg9
S'Fade'
p1392
sg11
S'http://steamcommunity.com/market/priceoverview/?currency=13&appid=730&market_hash_name=Glock-18%20%7C%20Fade%20%28Battle-Scarred%29'
p1393
sg13
S'Glock-18'
p1394
sg17
g218
sg19
g57
sba(i__main__
skin
p1395
(dp1396
g6
I00
sg7
S'Assault'
p1397
sg8
F3.29
sg9
S'Bulldozer'
p1398
sg11
S'http://steamcommunity.com/market/priceoverview/?currency=13&appid=730&market_hash_name=MP9%20%7C%20Bulldozer%20%28Battle-Scarred%29'
p1399
sg13
S'MP9'
p1400
sg15
I3
sg16
F3.27
sg17
g218
sg19
g57
sba(i__main__
skin
p1401
(dp1402
g6
I00
sg7
S'Assault'
p1403
sg9
S'Anodized Navy'
p1404
sg11
S'http://steamcommunity.com/market/priceoverview/?currency=13&appid=730&market_hash_name=Negev%20%7C%20Anodized%20Navy%20%28Battle-Scarred%29'
p1405
sg13
S'Negev'
p1406
sg17
g218
sg19
g20
sba(i__main__
skin
p1407
(dp1408
g6
I00
sg7
S'Assault'
p1409
sg9
S'Hot Rod'
p1410
sg11
S'http://steamcommunity.com/market/priceoverview/?currency=13&appid=730&market_hash_name=AUG%20%7C%20Hot%20Rod%20%28Battle-Scarred%29'
p1411
sg13
S'AUG'
p1412
sg17
g218
sg19
g20
sba(i__main__
skin
p1413
(dp1414
g6
I00
sg7
S'Assault'
p1415
sg9
S'Candy Apple *'
p1416
sg11
S'http://steamcommunity.com/market/priceoverview/?currency=13&appid=730&market_hash_name=Five-SeveN%20%7C%20Candy%20Apple%20%2A%20%28Battle-Scarred%29'
p1417
sg13
S'Five-SeveN'
p1418
sg17
g218
sg19
g346
sba(i__main__
skin
p1419
(dp1420
g6
I00
sg7
S'Assault'
p1421
sg8
F1.29
sg9
S'Caramel'
p1422
sg11
S'http://steamcommunity.com/market/priceoverview/?currency=13&appid=730&market_hash_name=UMP-45%20%7C%20Caramel%20%28Battle-Scarred%29'
p1423
sg13
S'UMP-45'
p1424
sg15
I1
sg16
F1.28
sg17
g218
sg19
g383
sba(i__main__
skin
p1425
(dp1426
g6
I00
sg7
S'Assault'
p1427
sg8
F1.46
sg9
S'Tornado'
p1428
sg11
S'http://steamcommunity.com/market/priceoverview/?currency=13&appid=730&market_hash_name=SG 553%20%7C%20Tornado%20%28Battle-Scarred%29'
p1429
sg13
S'SG 553'
p1430
sg15
I1
sg16
F1.22
sg17
g218
sg19
g383
sbasS'Train'
p1431
(lp1432
(i__main__
skin
p1433
(dp1434
g6
I00
sg7
g1431
sg9
S'Red Quartz'
p1435
sg11
S'http://steamcommunity.com/market/priceoverview/?currency=13&appid=730&market_hash_name=Tec-9%20%7C%20Red%20Quartz%20%28Battle-Scarred%29'
p1436
sg13
S'Tec-9'
p1437
sg17
g218
sg19
g57
sba(i__main__
skin
p1438
(dp1439
g6
I00
sg7
S'Train'
p1440
sg8
F0.20000000000000001
sg9
S'Urban Rubble'
p1441
sg11
S'http://steamcommunity.com/market/priceoverview/?currency=13&appid=730&market_hash_name=Desert Eagle%20%7C%20Urban%20Rubble%20%28Battle-Scarred%29'
p1442
sg13
S'Desert Eagle'
p1443
sg15
I48
sg16
F0.20000000000000001
sg17
g218
sg19
g20
sba(i__main__
skin
p1444
(dp1445
g6
I00
sg7
S'Train'
p1446
sg9
S'Amber Fade'
p1447
sg11
S'http://steamcommunity.com/market/priceoverview/?currency=13&appid=730&market_hash_name=Sawed-Off%20%7C%20Amber%20Fade%20%28Battle-Scarred%29'
p1448
sg13
S'Sawed-Off'
p1449
sg17
g218
sg19
g20
sba(i__main__
skin
p1450
(dp1451
g6
I00
sg7
S'Train'
p1452
sg9
S'Metallic DDPAT'
p1453
sg11
S'http://steamcommunity.com/market/priceoverview/?currency=13&appid=730&market_hash_name=P250%20%7C%20Metallic%20DDPAT%20%28Battle-Scarred%29'
p1454
sg13
S'P250'
p1455
sg17
g218
sg19
g346
sba(i__main__
skin
p1456
(dp1457
g6
I00
sg7
S'Train'
p1458
sg9
S'Metallic DDPAT'
p1459
sg11
S'http://steamcommunity.com/market/priceoverview/?currency=13&appid=730&market_hash_name=MAG-7%20%7C%20Metallic%20DDPAT%20%28Battle-Scarred%29'
p1460
sg13
S'MAG-7'
p1461
sg17
g218
sg19
g346
sba(i__main__
skin
p1462
(dp1463
g6
I00
sg7
S'Train'
p1464
sg9
S'Carbon Fiber'
p1465
sg11
S'http://steamcommunity.com/market/priceoverview/?currency=13&appid=730&market_hash_name=SCAR-20%20%7C%20Carbon%20Fiber%20%28Battle-Scarred%29'
p1466
sg13
S'SCAR-20'
p1467
sg17
g218
sg19
g346
sba(i__main__
skin
p1468
(dp1469
g6
I00
sg7
S'Train'
p1470
sg9
S'Ash Wood'
p1471
sg11
S'http://steamcommunity.com/market/priceoverview/?currency=13&appid=730&market_hash_name=P90%20%7C%20Ash%20Wood%20%28Battle-Scarred%29'
p1472
sg13
S'P90'
p1473
sg17
g218
sg19
g346
sba(i__main__
skin
p1474
(dp1475
g6
I00
sg7
S'Train'
p1476
sg9
S'Candy Apple'
p1477
sg11
S'http://steamcommunity.com/market/priceoverview/?currency=13&appid=730&market_hash_name=MAC-10%20%7C%20Candy%20Apple%20%28Battle-Scarred%29'
p1478
sg13
S'MAC-10'
p1479
sg17
g218
sg19
g346
sba(i__main__
skin
p1480
(dp1481
g6
I00
sg7
S'Train'
p1482
sg8
F0.11
sg9
S'Urban DDPAT'
p1483
sg11
S'http://steamcommunity.com/market/priceoverview/?currency=13&appid=730&market_hash_name=M4A4%20%7C%20Urban%20DDPAT%20%28Battle-Scarred%29'
p1484
sg13
S'M4A4'
p1485
sg15
I608
sg16
F0.10000000000000001
sg17
g218
sg19
g346
sba(i__main__
skin
p1486
(dp1487
g6
I00
sg7
S'Train'
p1488
sg8
F0.02
sg9
S'Urban DDPAT'
p1489
sg11
S'http://steamcommunity.com/market/priceoverview/?currency=13&appid=730&market_hash_name=UMP-45%20%7C%20Urban%20DDPAT%20%28Battle-Scarred%29'
p1490
sg13
S'UMP-45'
p1491
sg15
I614
sg16
F0.040000000000000001
sg17
g218
sg19
g383
sba(i__main__
skin
p1492
(dp1493
g6
I00
sg7
S'Train'
p1494
sg8
F0.02
sg9
S'Colony'
p1495
sg11
S'http://steamcommunity.com/market/priceoverview/?currency=13&appid=730&market_hash_name=Dual Berettas%20%7C%20Colony%20%28Battle-Scarred%29'
p1496
sg13
S'Dual Berettas'
p1497
sg15
I621
sg16
F0.040000000000000001
sg17
g218
sg19
g383
sba(i__main__
skin
p1498
(dp1499
g6
I00
sg7
S'Train'
p1500
sg8
F0.029999999999999999
sg9
S'Polar Camo'
p1501
sg11
S'http://steamcommunity.com/market/priceoverview/?currency=13&appid=730&market_hash_name=G3SG1%20%7C%20Polar%20Camo%20%28Battle-Scarred%29'
p1502
sg13
S'G3SG1'
p1503
sg15
I477
sg16
F0.040000000000000001
sg17
g218
sg19
g383
sba(i__main__
skin
p1504
(dp1505
g6
I00
sg7
S'Train'
p1506
sg8
F0.02
sg9
S'Forest Night'
p1507
sg11
S'http://steamcommunity.com/market/priceoverview/?currency=13&appid=730&market_hash_name=Five-SeveN%20%7C%20Forest%20Night%20%28Battle-Scarred%29'
p1508
sg13
S'Five-SeveN'
p1509
sg15
I625
sg16
F0.040000000000000001
sg17
g218
sg19
g383
sba(i__main__
skin
p1510
(dp1511
g6
I00
sg7
S'Train'
p1512
sg8
F0.02
sg9
S'Polar Mesh'
p1513
sg11
S'http://steamcommunity.com/market/priceoverview/?currency=13&appid=730&market_hash_name=Nova%20%7C%20Polar%20Mesh%20%28Battle-Scarred%29'
p1514
sg13
S'Nova'
p1515
sg15
I555
sg16
F0.040000000000000001
sg17
g218
sg19
g383
sba(i__main__
skin
p1516
(dp1517
g6
I00
sg7
S'Train'
p1518
sg8
F0.02
sg9
S'Urban Dashed'
p1519
sg11
S'http://steamcommunity.com/market/priceoverview/?currency=13&appid=730&market_hash_name=PP-Bizon%20%7C%20Urban%20Dashed%20%28Battle-Scarred%29'
p1520
sg13
S'PP-Bizon'
p1521
sg15
I637
sg16
F0.040000000000000001
sg17
g218
sg19
g383
sbasS'Dust'
p1522
(lp1523
(i__main__
skin
p1524
(dp1525
g6
I00
sg7
g1522
sg8
F2.04
sg9
S'Brass'
p1526
sg11
S'http://steamcommunity.com/market/priceoverview/?currency=13&appid=730&market_hash_name=Glock-18%20%7C%20Brass%20%28Battle-Scarred%29'
p1527
sg13
S'Glock-18'
p1528
sg15
I15
sg16
F2.1400000000000001
sg17
g218
sg19
g57
sba(i__main__
skin
p1529
(dp1530
g6
I00
sg7
S'Dust'
p1531
sg9
S'Scorpion'
p1532
sg11
S'http://steamcommunity.com/market/priceoverview/?currency=13&appid=730&market_hash_name=P2000%20%7C%20Scorpion%20%28Battle-Scarred%29'
p1533
sg13
S'P2000'
p1534
sg17
g218
sg19
g57
sba(i__main__
skin
p1535
(dp1536
g6
I00
sg7
S'Dust'
p1537
sg9
S'Blaze'
p1538
sg11
S'http://steamcommunity.com/market/priceoverview/?currency=13&appid=730&market_hash_name=Desert Eagle%20%7C%20Blaze%20%28Battle-Scarred%29'
p1539
sg13
S'Desert Eagle'
p1540
sg17
g218
sg19
g57
sba(i__main__
skin
p1541
(dp1542
g6
I00
sg7
S'Dust'
p1543
sg8
I-1
sg9
S'Copper'
p1544
sg11
S'http://steamcommunity.com/market/priceoverview/?currency=13&appid=730&market_hash_name=Sawed-Off%20%7C%20Copper%20%28Battle-Scarred%29'
p1545
sg13
S'Sawed-Off'
p1546
sg15
I0
sg16
F6.0899999999999999
sg17
g218
sg19
g20
sba(i__main__
skin
p1547
(dp1548
g6
I00
sg7
S'Dust'
p1549
sg9
S'Copperhead'
p1550
sg11
S'http://steamcommunity.com/market/priceoverview/?currency=13&appid=730&market_hash_name=AUG%20%7C%20Copperhead%20%28Battle-Scarred%29'
p1551
sg13
S'AUG'
p1552
sg17
g218
sg19
g20
sba(i__main__
skin
p1553
(dp1554
g6
I00
sg7
S'Dust'
p1555
sg8
F4.3799999999999999
sg9
S'Snake Camo'
p1556
sg11
S'http://steamcommunity.com/market/priceoverview/?currency=13&appid=730&market_hash_name=AWP%20%7C%20Snake%20Camo%20%28Battle-Scarred%29'
p1557
sg13
S'AWP'
p1558
sg15
I16
sg16
F5.6500000000000004
sg17
g218
sg19
g20
sba(i__main__
skin
p1559
(dp1560
g6
I00
sg7
S'Dust'
p1561
sg8
F0.62
sg9
S'Predator'
p1562
sg11
S'http://steamcommunity.com/market/priceoverview/?currency=13&appid=730&market_hash_name=AK-47%20%7C%20Predator%20%28Battle-Scarred%29'
p1563
sg13
S'AK-47'
p1564
sg15
I125
sg16
F0.58999999999999997
sg17
g218
sg19
g346
sba(i__main__
skin
p1565
(dp1566
g6
I00
sg7
S'Dust'
p1567
sg8
F0.60999999999999999
sg9
S'Palm'
p1568
sg11
S'http://steamcommunity.com/market/priceoverview/?currency=13&appid=730&market_hash_name=SCAR-20%20%7C%20Palm%20%28Battle-Scarred%29'
p1569
sg13
S'SCAR-20'
p1570
sg15
I3
sg16
F0.63
sg17
g218
sg19
g346
sba(i__main__
skin
p1571
(dp1572
g6
I00
sg7
S'Dust'
p1573
sg8
F0.71999999999999997
sg9
S'Desert Storm'
p1574
sg11
S'http://steamcommunity.com/market/priceoverview/?currency=13&appid=730&market_hash_name=M4A4%20%7C%20Desert%20Storm%20%28Battle-Scarred%29'
p1575
sg13
S'M4A4'
p1576
sg15
I26
sg16
F0.66000000000000003
sg17
g218
sg19
g346
sbasS'Alpha'
p1577
(lp1578
(i__main__
skin
p1579
(dp1580
g6
I00
sg7
g1577
sg9
S'Emerald'
p1581
sg11
S'http://steamcommunity.com/market/priceoverview/?currency=13&appid=730&market_hash_name=SCAR-20%20%7C%20Emerald%20%28Battle-Scarred%29'
p1582
sg13
S'SCAR-20'
p1583
sg17
g218
sg19
g57
sba(i__main__
skin
p1584
(dp1585
g6
I00
sg7
S'Alpha'
p1586
sg8
F1.24
sg9
S'Mayan Dreams'
p1587
sg11
S'http://steamcommunity.com/market/priceoverview/?currency=13&appid=730&market_hash_name=SSG 08%20%7C%20Mayan%20Dreams%20%28Battle-Scarred%29'
p1588
sg13
S'SSG 08'
p1589
sg15
I2
sg16
F1.47
sg17
g218
sg19
g346
sba(i__main__
skin
p1590
(dp1591
g6
I00
sg7
S'Alpha'
p1592
sg8
I-1
sg9
S'Palm'
p1593
sg11
S'http://steamcommunity.com/market/priceoverview/?currency=13&appid=730&market_hash_name=Negev%20%7C%20Palm%20%28Battle-Scarred%29'
p1594
sg13
S'Negev'
p1595
sg15
I0
sg16
F1.01
sg17
g218
sg19
g346
sba(i__main__
skin
p1596
(dp1597
g6
I00
sg7
S'Alpha'
p1598
sg8
F1.6000000000000001
sg9
S'Mosaico'
p1599
sg11
S'http://steamcommunity.com/market/priceoverview/?currency=13&appid=730&market_hash_name=Sawed-Off%20%7C%20Mosaico%20%28Battle-Scarred%29'
p1600
sg13
S'Sawed-Off'
p1601
sg15
I1
sg16
F1.47
sg17
g218
sg19
g346
sba(i__main__
skin
p1602
(dp1603
g6
I00
sg7
S'Alpha'
p1604
sg8
F0.93000000000000005
sg9
S'Facets'
p1605
sg11
S'http://steamcommunity.com/market/priceoverview/?currency=13&appid=730&market_hash_name=P250%20%7C%20Facets%20%28Battle-Scarred%29'
p1606
sg13
S'P250'
p1607
sg15
I5
sg16
F1.1799999999999999
sg17
g218
sg19
g346
sba(i__main__
skin
p1608
(dp1609
g6
I00
sg7
S'Alpha'
p1610
sg9
S'Anodized Navy'
p1611
sg11
S'http://steamcommunity.com/market/priceoverview/?currency=13&appid=730&market_hash_name=AUG%20%7C%20Anodized%20Navy%20%28Battle-Scarred%29'
p1612
sg13
S'AUG'
p1613
sg17
g218
sg19
g20
sba(i__main__
skin
p1614
(dp1615
g6
I00
sg7
S'Alpha'
p1616
sg8
I-1
sg9
S'Hazard'
p1617
sg11
S'http://steamcommunity.com/market/priceoverview/?currency=13&appid=730&market_hash_name=MAG-7%20%7C%20Hazard%20%28Battle-Scarred%29'
p1618
sg13
S'MAG-7'
p1619
sg15
I0
sg16
F10.58
sg17
g218
sg19
g20
sba(i__main__
skin
p1620
(dp1621
g6
I00
sg7
S'Alpha'
p1622
sg8
F5.5800000000000001
sg9
S'Rust Coat'
p1623
sg11
S'http://steamcommunity.com/market/priceoverview/?currency=13&appid=730&market_hash_name=PP-Bizon%20%7C%20Rust%20Coat%20%28Battle-Scarred%29'
p1624
sg13
S'PP-Bizon'
p1625
sg15
I2
sg16
F5.71
sg17
g218
sg19
g20
sba(i__main__
skin
p1626
(dp1627
g6
I00
sg7
S'Alpha'
p1628
sg8
F3.73
sg9
S'Spitfire'
p1629
sg11
S'http://steamcommunity.com/market/priceoverview/?currency=13&appid=730&market_hash_name=FAMAS%20%7C%20Spitfire%20%28Battle-Scarred%29'
p1630
sg13
S'FAMAS'
p1631
sg15
I10
sg16
F3.8399999999999999
sg17
g218
sg19
g57
sba(i__main__
skin
p1632
(dp1633
g6
I00
sg7
S'Alpha'
p1634
sg8
F1.01
sg9
S'Sand Dune'
p1635
sg11
S'http://steamcommunity.com/market/priceoverview/?currency=13&appid=730&market_hash_name=Glock-18%20%7C%20Sand%20Dune%20%28Battle-Scarred%29'
p1636
sg13
S'Glock-18'
p1637
sg15
I5
sg16
F1.05
sg17
g218
sg19
g346
sba(i__main__
skin
p1638
(dp1639
g6
I00
sg7
S'Alpha'
p1640
sg8
F0.45000000000000001
sg9
S'Groundwater'
p1641
sg11
S'http://steamcommunity.com/market/priceoverview/?currency=13&appid=730&market_hash_name=MP7%20%7C%20Groundwater%20%28Battle-Scarred%29'
p1642
sg13
S'MP7'
p1643
sg15
I3
sg16
F0.51000000000000001
sg17
g218
sg19
g383
sba(i__main__
skin
p1644
(dp1645
g6
I00
sg7
S'Alpha'
p1646
sg8
F0.20000000000000001
sg9
S'Jungle'
p1647
sg11
S'http://steamcommunity.com/market/priceoverview/?currency=13&appid=730&market_hash_name=XM1014%20%7C%20Jungle%20%28Battle-Scarred%29'
p1648
sg13
S'XM1014'
p1649
sg15
I3
sg16
F0.32000000000000001
sg17
g218
sg19
g383
sba(i__main__
skin
p1650
(dp1651
g6
I00
sg7
S'Alpha'
p1652
sg9
S'Anodized Gunmetal'
p1653
sg11
S'http://steamcommunity.com/market/priceoverview/?currency=13&appid=730&market_hash_name=Five-SeveN%20%7C%20Anodized%20Gunmetal%20%28Battle-Scarred%29'
p1654
sg13
S'Five-SeveN'
p1655
sg17
g218
sg19
g383
sba(i__main__
skin
p1656
(dp1657
g6
I00
sg7
S'Alpha'
p1658
sg8
F0.34999999999999998
sg9
S'Dry Season'
p1659
sg11
S'http://steamcommunity.com/market/priceoverview/?currency=13&appid=730&market_hash_name=MP9%20%7C%20Dry%20Season%20%28Battle-Scarred%29'
p1660
sg13
S'MP9'
p1661
sg15
I15
sg16
F0.39000000000000001
sg17
g218
sg19
g383
sba(i__main__
skin
p1662
(dp1663
g6
I00
sg7
S'Alpha'
p1664
sg8
F0.56999999999999995
sg9
S'Tornado'
p1665
sg11
S'http://steamcommunity.com/market/priceoverview/?currency=13&appid=730&market_hash_name=Tec-9%20%7C%20Tornado%20%28Battle-Scarred%29'
p1666
sg13
S'Tec-9'
p1667
sg15
I3
sg16
F0.66000000000000003
sg17
g218
sg19
g383
sba(i__main__
skin
p1668
(dp1669
g6
I00
sg7
S'Alpha'
p1670
sg8
F0.32000000000000001
sg9
S'Jungle DDPAT'
p1671
sg11
S'http://steamcommunity.com/market/priceoverview/?currency=13&appid=730&market_hash_name=M249%20%7C%20Jungle%20DDPAT%20%28Battle-Scarred%29'
p1672
sg13
S'M249'
p1673
sg15
I5
sg16
F0.34000000000000002
sg17
g218
sg19
g383
sbasS'Bank'
p1674
(lp1675
(i__main__
skin
p1676
(dp1677
g6
I00
sg7
g1674
sg9
S'Franklin'
p1678
sg11
S'http://steamcommunity.com/market/priceoverview/?currency=13&appid=730&market_hash_name=P250%20%7C%20Franklin%20%28Battle-Scarred%29'
p1679
sg13
S'P250'
p1680
sg17
g116
sg19
g82
sba(i__main__
skin
p1681
(dp1682
g6
I00
sg7
S'Bank'
p1683
sg8
F1.3500000000000001
sg9
S'Emerald Pinstripe'
p1684
sg11
S'http://steamcommunity.com/market/priceoverview/?currency=13&appid=730&market_hash_name=AK-47%20%7C%20Emerald%20Pinstripe%20%28Battle-Scarred%29'
p1685
sg13
S'AK-47'
p1686
sg15
I444
sg16
F1.3200000000000001
sg17
g116
sg19
g57
sba(i__main__
skin
p1687
(dp1688
g6
I00
sg7
S'Bank'
p1689
sg8
F0.14999999999999999
sg9
S'Tuxedo'
p1690
sg11
S'http://steamcommunity.com/market/priceoverview/?currency=13&appid=730&market_hash_name=CZ75-Auto%20%7C%20Tuxedo%20%28Battle-Scarred%29'
p1691
sg13
S'CZ75-Auto'
p1692
sg15
I109
sg16
F0.16
sg17
g116
sg19
g20
sba(i__main__
skin
p1693
(dp1694
g6
I00
sg7
S'Bank'
p1695
sg9
S'Meteorite'
p1696
sg11
S'http://steamcommunity.com/market/priceoverview/?currency=13&appid=730&market_hash_name=Desert Eagle%20%7C%20Meteorite%20%28Battle-Scarred%29'
p1697
sg13
S'Desert Eagle'
p1698
sg17
g116
sg19
g20
sba(i__main__
skin
p1699
(dp1700
g6
I00
sg7
S'Bank'
p1701
sg8
F0.14999999999999999
sg9
S'Tuxedo'
p1702
sg11
S'http://steamcommunity.com/market/priceoverview/?currency=13&appid=730&market_hash_name=Galil AR%20%7C%20Tuxedo%20%28Battle-Scarred%29'
p1703
sg13
S'Galil AR'
p1704
sg15
I88
sg16
F0.14999999999999999
sg17
g116
sg19
g20
sba(i__main__
skin
p1705
(dp1706
g6
I00
sg7
S'Bank'
p1707
sg9
S'Green Apple'
p1708
sg11
S'http://steamcommunity.com/market/priceoverview/?currency=13&appid=730&market_hash_name=G3SG1%20%7C%20Green%20Apple%20%28Battle-Scarred%29'
p1709
sg13
S'G3SG1'
p1710
sg17
g116
sg19
g346
sba(i__main__
skin
p1711
(dp1712
g6
I00
sg7
S'Bank'
p1713
sg8
F0.080000000000000002
sg9
S'Death Rattle'
p1714
sg11
S'http://steamcommunity.com/market/priceoverview/?currency=13&appid=730&market_hash_name=Glock-18%20%7C%20Death%20Rattle%20%28Battle-Scarred%29'
p1715
sg13
S'Glock-18'
p1716
sg15
I146
sg16
F0.089999999999999997
sg17
g116
sg19
g346
sba(i__main__
skin
p1717
(dp1718
g6
I00
sg7
S'Bank'
p1719
sg9
S'Silver'
p1720
sg11
S'http://steamcommunity.com/market/priceoverview/?currency=13&appid=730&market_hash_name=MAC-10%20%7C%20Silver%20%28Battle-Scarred%29'
p1721
sg13
S'MAC-10'
p1722
sg17
g116
sg19
g346
sba(i__main__
skin
p1723
(dp1724
g6
I00
sg7
S'Bank'
p1725
sg9
S'Caged Steel'
p1726
sg11
S'http://steamcommunity.com/market/priceoverview/?currency=13&appid=730&market_hash_name=Nova%20%7C%20Caged%20Steel%20%28Battle-Scarred%29'
p1727
sg13
S'Nova'
p1728
sg17
g116
sg19
g346
sba(i__main__
skin
p1729
(dp1730
g6
I00
sg7
S'Bank'
p1731
sg9
S'Carbon Fiber'
p1732
sg11
S'http://steamcommunity.com/market/priceoverview/?currency=13&appid=730&market_hash_name=UMP-45%20%7C%20Carbon%20Fiber%20%28Battle-Scarred%29'
p1733
sg13
S'UMP-45'
p1734
sg17
g116
sg19
g346
sba(i__main__
skin
p1735
(dp1736
g6
I00
sg7
S'Bank'
p1737
sg8
F0.02
sg9
S'Bone Mask'
p1738
sg11
S'http://steamcommunity.com/market/priceoverview/?currency=13&appid=730&market_hash_name=R8 Revolver%20%7C%20Bone%20Mask%20%28Battle-Scarred%29'
p1739
sg13
S'R8 Revolver'
p1740
sg15
I775
sg16
F0.040000000000000001
sg17
g116
sg19
g383
sba(i__main__
skin
p1741
(dp1742
g6
I00
sg7
S'Bank'
p1743
sg8
F0.02
sg9
S'Forest DDPAT'
p1744
sg11
S'http://steamcommunity.com/market/priceoverview/?currency=13&appid=730&market_hash_name=MP7%20%7C%20Forest%20DDPAT%20%28Battle-Scarred%29'
p1745
sg13
S'MP7'
p1746
sg15
I651
sg16
F0.040000000000000001
sg17
g116
sg19
g383
sba(i__main__
skin
p1747
(dp1748
g6
I00
sg7
S'Bank'
p1749
sg9
S'Army Sheen'
p1750
sg11
S'http://steamcommunity.com/market/priceoverview/?currency=13&appid=730&market_hash_name=Negev%20%7C%20Army%20Sheen%20%28Battle-Scarred%29'
p1751
sg13
S'Negev'
p1752
sg17
g116
sg19
g383
sba(i__main__
skin
p1753
(dp1754
g6
I00
sg7
S'Bank'
p1755
sg8
F0.02
sg9
S'Forest DDPAT'
p1756
sg11
S'http://steamcommunity.com/market/priceoverview/?currency=13&appid=730&market_hash_name=Sawed-Off%20%7C%20Forest%20DDPAT%20%28Battle-Scarred%29'
p1757
sg13
S'Sawed-Off'
p1758
sg15
I920
sg16
F0.040000000000000001
sg17
g116
sg19
g383
sba(i__main__
skin
p1759
(dp1760
g6
I00
sg7
S'Bank'
p1761
sg9
S'Army Sheen'
p1762
sg11
S'http://steamcommunity.com/market/priceoverview/?currency=13&appid=730&market_hash_name=SG 553%20%7C%20Army%20Sheen%20%28Battle-Scarred%29'
p1763
sg13
S'SG 553'
p1764
sg17
g116
sg19
g383
sba(i__main__
skin
p1765
(dp1766
g6
I00
sg7
S'Bank'
p1767
sg8
F0.02
sg9
S'Urban DDPAT'
p1768
sg11
S'http://steamcommunity.com/market/priceoverview/?currency=13&appid=730&market_hash_name=Tec-9%20%7C%20Urban%20DDPAT%20%28Battle-Scarred%29'
p1769
sg13
S'Tec-9'
p1770
sg15
I673
sg16
F0.040000000000000001
sg17
g116
sg19
g383
sbasS'Dust 2'
p1771
(lp1772
(i__main__
skin
p1773
(dp1774
g6
I00
sg7
g1771
sg9
S'Amber Fade'
p1775
sg11
S'http://steamcommunity.com/market/priceoverview/?currency=13&appid=730&market_hash_name=R8 Revolver%20%7C%20Amber%20Fade%20%28Battle-Scarred%29'
p1776
sg13
S'R8 Revolver'
p1777
sg17
g218
sg19
g82
sba(i__main__
skin
p1778
(dp1779
g6
I00
sg7
S'Dust 2'
p1780
sg9
S'Amber Fade'
p1781
sg11
S'http://steamcommunity.com/market/priceoverview/?currency=13&appid=730&market_hash_name=P2000%20%7C%20Amber%20Fade%20%28Battle-Scarred%29'
p1782
sg13
S'P2000'
p1783
sg17
g218
sg19
g57
sba(i__main__
skin
p1784
(dp1785
g6
I00
sg7
S'Dust 2'
p1786
sg8
F0.12
sg9
S'Damascus Steel'
p1787
sg11
S'http://steamcommunity.com/market/priceoverview/?currency=13&appid=730&market_hash_name=SG 553%20%7C%20Damascus%20Steel%20%28Battle-Scarred%29'
p1788
sg13
S'SG 553'
p1789
sg15
I102
sg16
F0.12
sg17
g218
sg19
g20
sba(i__main__
skin
p1790
(dp1791
g6
I00
sg7
S'Dust 2'
p1792
sg8
F0.11
sg9
S'Brass'
p1793
sg11
S'http://steamcommunity.com/market/priceoverview/?currency=13&appid=730&market_hash_name=PP-Bizon%20%7C%20Brass%20%28Battle-Scarred%29'
p1794
sg13
S'PP-Bizon'
p1795
sg15
I95
sg16
F0.13
sg17
g218
sg19
g20
sba(i__main__
skin
p1796
(dp1797
g6
I00
sg7
S'Dust 2'
p1798
sg8
F0.46999999999999997
sg9
S'VariCamo'
p1799
sg11
S'http://steamcommunity.com/market/priceoverview/?currency=13&appid=730&market_hash_name=M4A1-S%20%7C%20VariCamo%20%28Battle-Scarred%29'
p1800
sg13
S'M4A1-S'
p1801
sg15
I166
sg16
F0.42999999999999999
sg17
g218
sg19
g20
sba(i__main__
skin
p1802
(dp1803
g6
I00
sg7
S'Dust 2'
p1804
sg8
F0.040000000000000001
sg9
S'Snake Camo'
p1805
sg11
S'http://steamcommunity.com/market/priceoverview/?currency=13&appid=730&market_hash_name=Sawed-Off%20%7C%20Snake%20Camo%20%28Battle-Scarred%29'
p1806
sg13
S'Sawed-Off'
p1807
sg15
I300
sg16
F0.070000000000000007
sg17
g218
sg19
g346
sba(i__main__
skin
p1808
(dp1809
g6
I00
sg7
S'Dust 2'
p1810
sg8
F0.16
sg9
S'Safari Mesh'
p1811
sg11
S'http://steamcommunity.com/market/priceoverview/?currency=13&appid=730&market_hash_name=AK-47%20%7C%20Safari%20Mesh%20%28Battle-Scarred%29'
p1812
sg13
S'AK-47'
p1813
sg15
I809
sg16
F0.14999999999999999
sg17
g218
sg19
g346
sba(i__main__
skin
p1814
(dp1815
g6
I00
sg7
S'Dust 2'
p1816
sg8
F0.080000000000000002
sg9
S'Orange Peel'
p1817
sg11
S'http://steamcommunity.com/market/priceoverview/?currency=13&appid=730&market_hash_name=Five-SeveN%20%7C%20Orange%20Peel%20%28Battle-Scarred%29'
p1818
sg13
S'Five-SeveN'
p1819
sg15
I364
sg16
F0.070000000000000007
sg17
g218
sg19
g346
sba(i__main__
skin
p1820
(dp1821
g6
I00
sg7
S'Dust 2'
p1822
sg8
F0.050000000000000003
sg9
S'Palm'
p1823
sg11
S'http://steamcommunity.com/market/priceoverview/?currency=13&appid=730&market_hash_name=MAC-10%20%7C%20Palm%20%28Battle-Scarred%29'
p1824
sg13
S'MAC-10'
p1825
sg15
I191
sg16
F0.070000000000000007
sg17
g218
sg19
g346
sba(i__main__
skin
p1826
(dp1827
g6
I00
sg7
S'Dust 2'
p1828
sg8
F0.040000000000000001
sg9
S'VariCamo'
p1829
sg11
S'http://steamcommunity.com/market/priceoverview/?currency=13&appid=730&market_hash_name=Tec-9%20%7C%20VariCamo%20%28Battle-Scarred%29'
p1830
sg13
S'Tec-9'
p1831
sg15
I111
sg16
F0.070000000000000007
sg17
g218
sg19
g346
sba(i__main__
skin
p1832
(dp1833
g6
I00
sg7
S'Dust 2'
p1834
sg8
F0.02
sg9
S'Desert Storm'
p1835
sg11
S'http://steamcommunity.com/market/priceoverview/?currency=13&appid=730&market_hash_name=G3SG1%20%7C%20Desert%20Storm%20%28Battle-Scarred%29'
p1836
sg13
S'G3SG1'
p1837
sg15
I493
sg16
F0.040000000000000001
sg17
g218
sg19
g383
sba(i__main__
skin
p1838
(dp1839
g6
I00
sg7
S'Dust 2'
p1840
sg8
F0.040000000000000001
sg9
S'Sand Dune'
p1841
sg11
S'http://steamcommunity.com/market/priceoverview/?currency=13&appid=730&market_hash_name=P250%20%7C%20Sand%20Dune%20%28Battle-Scarred%29'
p1842
sg13
S'P250'
p1843
sg15
I884
sg16
F0.050000000000000003
sg17
g218
sg19
g383
sba(i__main__
skin
p1844
(dp1845
g6
I00
sg7
S'Dust 2'
p1846
sg8
F0.02
sg9
S'Sand Mesh'
p1847
sg11
S'http://steamcommunity.com/market/priceoverview/?currency=13&appid=730&market_hash_name=SCAR-20%20%7C%20Sand%20Mesh%20%28Battle-Scarred%29'
p1848
sg13
S'SCAR-20'
p1849
sg15
I720
sg16
F0.040000000000000001
sg17
g218
sg19
g383
sba(i__main__
skin
p1850
(dp1851
g6
I00
sg7
S'Dust 2'
p1852
sg8
F0.050000000000000003
sg9
S'Sand Spray'
p1853
sg11
S'http://steamcommunity.com/market/priceoverview/?currency=13&appid=730&market_hash_name=P90%20%7C%20Sand%20Spray%20%28Battle-Scarred%29'
p1854
sg13
S'P90'
p1855
sg15
I594
sg16
F0.040000000000000001
sg17
g218
sg19
g383
sba(i__main__
skin
p1856
(dp1857
g6
I00
sg7
S'Dust 2'
p1858
sg8
F0.02
sg9
S'Sand Dashed'
p1859
sg11
S'http://steamcommunity.com/market/priceoverview/?currency=13&appid=730&market_hash_name=MP9%20%7C%20Sand%20Dashed%20%28Battle-Scarred%29'
p1860
sg13
S'MP9'
p1861
sg15
I0
sg16
F0.040000000000000001
sg17
g218
sg19
g383
sba(i__main__
skin
p1862
(dp1863
g6
I00
sg7
S'Dust 2'
p1864
sg8
F0.02
sg9
S'Predator'
p1865
sg11
S'http://steamcommunity.com/market/priceoverview/?currency=13&appid=730&market_hash_name=Nova%20%7C%20Predator%20%28Battle-Scarred%29'
p1866
sg13
S'Nova'
p1867
sg15
I432
sg16
F0.040000000000000001
sg17
g218
sg19
g383
sbasS'Aztec'
p1868
(lp1869
(i__main__
skin
p1870
(dp1871
g6
I00
sg7
g1868
sg9
S'Ossified'
p1872
sg11
S'http://steamcommunity.com/market/priceoverview/?currency=13&appid=730&market_hash_name=Tec-9%20%7C%20Ossified%20%28Battle-Scarred%29'
p1873
sg13
S'Tec-9'
p1874
sg17
g218
sg19
g20
sba(i__main__
skin
p1875
(dp1876
g6
I00
sg7
S'Aztec'
p1877
sg8
F0.70999999999999996
sg9
S'Jungle Tiger'
p1878
sg11
S'http://steamcommunity.com/market/priceoverview/?currency=13&appid=730&market_hash_name=M4A4%20%7C%20Jungle%20Tiger%20%28Battle-Scarred%29'
p1879
sg13
S'M4A4'
p1880
sg15
I24
sg16
F0.73999999999999999
sg17
g218
sg19
g346
sba(i__main__
skin
p1881
(dp1882
g6
I00
sg7
S'Aztec'
p1883
sg8
F1.05
sg9
S'Jungle Spray'
p1884
sg11
S'http://steamcommunity.com/market/priceoverview/?currency=13&appid=730&market_hash_name=AK-47%20%7C%20Jungle%20Spray%20%28Battle-Scarred%29'
p1885
sg13
S'AK-47'
p1886
sg15
I62
sg16
F1.0600000000000001
sg17
g218
sg19
g346
sba(i__main__
skin
p1887
(dp1888
g6
I00
sg7
S'Aztec'
p1889
sg8
F0.33000000000000002
sg9
S'Lichen Dashed'
p1890
sg11
S'http://steamcommunity.com/market/priceoverview/?currency=13&appid=730&market_hash_name=SSG 08%20%7C%20Lichen%20Dashed%20%28Battle-Scarred%29'
p1891
sg13
S'SSG 08'
p1892
sg15
I9
sg16
F0.28999999999999998
sg17
g218
sg19
g383
sba(i__main__
skin
p1893
(dp1894
g6
I00
sg7
S'Aztec'
p1895
sg8
F0.33000000000000002
sg9
S'Jungle'
p1896
sg11
S'http://steamcommunity.com/market/priceoverview/?currency=13&appid=730&market_hash_name=Five-SeveN%20%7C%20Jungle%20%28Battle-Scarred%29'
p1897
sg13
S'Five-SeveN'
p1898
sg15
I15
sg16
F0.34000000000000002
sg17
g218
sg19
g383
sba(i__main__
skin
p1899
(dp1900
g6
I00
sg7
S'Aztec'
p1901
sg8
F0.22
sg9
S'Forest Leaves'
p1902
sg11
S'http://steamcommunity.com/market/priceoverview/?currency=13&appid=730&market_hash_name=Nova%20%7C%20Forest%20Leaves%20%28Battle-Scarred%29'
p1903
sg13
S'Nova'
p1904
sg15
I7
sg16
F0.25
sg17
g218
sg19
g383
sbasS'Arms Deal 3'
p1905
(lp1906
(i__main__
skin
p1907
(dp1908
g6
I00
sg7
g1905
sg8
F0.27000000000000002
sg9
S'Crimson Web'
p1909
sg11
S'http://steamcommunity.com/market/priceoverview/?currency=13&appid=730&market_hash_name=CZ75-Auto%20%7C%20Crimson%20Web%20%28Battle-Scarred%29'
p1910
sg13
S'CZ75-Auto'
p1911
sg15
I50
sg16
F0.29999999999999999
sg17
g218
sg19
g20
sba(i__main__
skin
p1912
(dp1913
g6
I00
sg7
S'Arms Deal 3'
p1914
sg8
F0.38
sg9
S'Red FragCam'
p1915
sg11
S'http://steamcommunity.com/market/priceoverview/?currency=13&appid=730&market_hash_name=P2000%20%7C%20Red%20FragCam%20%28Battle-Scarred%29'
p1916
sg13
S'P2000'
p1917
sg15
I12
sg16
F0.37
sg17
g218
sg19
g20
sba(i__main__
skin
p1918
(dp1919
g6
I00
sg7
S'Arms Deal 3'
p1920
sg8
F0.33000000000000002
sg9
S'Panther'
p1921
sg11
S'http://steamcommunity.com/market/priceoverview/?currency=13&appid=730&market_hash_name=Dual Berettas%20%7C%20Panther%20%28Battle-Scarred%29'
p1922
sg13
S'Dual Berettas'
p1923
sg15
I9
sg16
F0.41999999999999998
sg17
g218
sg19
g20
sba(i__main__
skin
p1924
(dp1925
g6
I00
sg7
S'Arms Deal 3'
p1926
sg8
F1.3700000000000001
sg9
S'Stainless'
p1927
sg11
S'http://steamcommunity.com/market/priceoverview/?currency=13&appid=730&market_hash_name=USP-S%20%7C%20Stainless%20%28Battle-Scarred%29'
p1928
sg13
S'USP-S'
p1929
sg15
I110
sg16
F1.3
sg17
g218
sg19
g20
sba(i__main__
skin
p1930
(dp1931
g6
I00
sg7
S'Arms Deal 3'
p1932
sg8
F0.60999999999999999
sg9
S'Blue Fissure'
p1933
sg11
S'http://steamcommunity.com/market/priceoverview/?currency=13&appid=730&market_hash_name=Glock-18%20%7C%20Blue%20Fissure%20%28Battle-Scarred%29'
p1934
sg13
S'Glock-18'
p1935
sg15
I47
sg16
F0.65000000000000002
sg17
g218
sg19
g20
sba(i__main__
skin
p1936
(dp1937
g6
I00
sg7
S'Arms Deal 3'
p1938
sg9
S'Tread Plate'
p1939
sg11
S'http://steamcommunity.com/market/priceoverview/?currency=13&appid=730&market_hash_name=CZ75-Auto%20%7C%20Tread%20Plate%20%28Battle-Scarred%29'
p1940
sg13
S'CZ75-Auto'
p1941
sg17
g218
sg19
g57
sba(i__main__
skin
p1942
(dp1943
g6
I00
sg7
S'Arms Deal 3'
p1944
sg9
S'Titanium Bit'
p1945
sg11
S'http://steamcommunity.com/market/priceoverview/?currency=13&appid=730&market_hash_name=Tec-9%20%7C%20Titanium%20Bit%20%28Battle-Scarred%29'
p1946
sg13
S'Tec-9'
p1947
sg17
g218
sg19
g57
sba(i__main__
skin
p1948
(dp1949
g6
I00
sg7
S'Arms Deal 3'
p1950
sg8
F1.47
sg9
S'Heirloom'
p1951
sg11
S'http://steamcommunity.com/market/priceoverview/?currency=13&appid=730&market_hash_name=Desert Eagle%20%7C%20Heirloom%20%28Battle-Scarred%29'
p1952
sg13
S'Desert Eagle'
p1953
sg15
I33
sg16
F1.52
sg17
g218
sg19
g57
sba(i__main__
skin
p1954
(dp1955
g6
I00
sg7
S'Arms Deal 3'
p1956
sg9
S'Copper Galaxy'
p1957
sg11
S'http://steamcommunity.com/market/priceoverview/?currency=13&appid=730&market_hash_name=Five-SeveN%20%7C%20Copper%20Galaxy%20%28Battle-Scarred%29'
p1958
sg13
S'Five-SeveN'
p1959
sg17
g218
sg19
g57
sba(i__main__
skin
p1960
(dp1961
g6
I00
sg7
S'Arms Deal 3'
p1962
sg9
S'The Fuschia Is Now'
p1963
sg11
S'http://steamcommunity.com/market/priceoverview/?currency=13&appid=730&market_hash_name=CZ75-Auto%20%7C%20The%20Fuschia%20Is%20Now%20%28Battle-Scarred%29'
p1964
sg13
S'CZ75-Auto'
p1965
sg17
g218
sg19
g82
sba(i__main__
skin
p1966
(dp1967
g6
I00
sg7
S'Arms Deal 3'
p1968
sg9
S'Undertow'
p1969
sg11
S'http://steamcommunity.com/market/priceoverview/?currency=13&appid=730&market_hash_name=P250%20%7C%20Undertow%20%28Battle-Scarred%29'
p1970
sg13
S'P250'
p1971
sg17
g218
sg19
g82
sba(i__main__
skin
p1972
(dp1973
g6
I00
sg7
S'Arms Deal 3'
p1974
sg8
F5.4900000000000002
sg9
S'Victoria'
p1975
sg11
S'http://steamcommunity.com/market/priceoverview/?currency=13&appid=730&market_hash_name=CZ75-Auto%20%7C%20Victoria%20%28Battle-Scarred%29'
p1976
sg13
S'CZ75-Auto'
p1977
sg15
I13
sg16
F5.3200000000000003
sg17
g218
sg19
g101
sbasS'Vanguard'
p1978
(lp1979
(i__main__
skin
p1980
(dp1981
g6
I00
sg7
g1978
sg9
S'Murky'
p1982
sg11
S'http://steamcommunity.com/market/priceoverview/?currency=13&appid=730&market_hash_name=G3SG1%20%7C%20Murky%20%28Battle-Scarred%29'
p1983
sg13
S'G3SG1'
p1984
sg17
g218
sg19
g20
sba(i__main__
skin
p1985
(dp1986
g6
I00
sg7
S'Vanguard'
p1987
sg8
F0.40999999999999998
sg9
S'Firestarter'
p1988
sg11
S'http://steamcommunity.com/market/priceoverview/?currency=13&appid=730&market_hash_name=MAG-7%20%7C%20Firestarter%20%28Battle-Scarred%29'
p1989
sg13
S'MAG-7'
p1990
sg15
I30
sg16
F0.47999999999999998
sg17
g218
sg19
g20
sba(i__main__
skin
p1991
(dp1992
g6
I00
sg7
S'Vanguard'
p1993
sg8
F0.69999999999999996
sg9
S'Dart'
p1994
sg11
S'http://steamcommunity.com/market/priceoverview/?currency=13&appid=730&market_hash_name=MP9%20%7C%20Dart%20%28Battle-Scarred%29'
p1995
sg13
S'MP9'
p1996
sg15
I1
sg16
F6.2199999999999998
sg17
g218
sg19
g20
sba(i__main__
skin
p1997
(dp1998
g6
I00
sg7
S'Vanguard'
p1999
sg9
S'Urban Hazard'
p2000
sg11
S'http://steamcommunity.com/market/priceoverview/?currency=13&appid=730&market_hash_name=Five-SeveN%20%7C%20Urban%20Hazard%20%28Battle-Scarred%29'
p2001
sg13
S'Five-SeveN'
p2002
sg17
g218
sg19
g20
sba(i__main__
skin
p2003
(dp2004
g6
I00
sg7
S'Vanguard'
p2005
sg9
S'Delusion'
p2006
sg11
S'http://steamcommunity.com/market/priceoverview/?currency=13&appid=730&market_hash_name=UMP-45%20%7C%20Delusion%20%28Battle-Scarred%29'
p2007
sg13
S'UMP-45'
p2008
sg17
g218
sg19
g20
sba(i__main__
skin
p2009
(dp2010
g6
I00
sg7
S'Vanguard'
p2011
sg9
S'Grinder'
p2012
sg11
S'http://steamcommunity.com/market/priceoverview/?currency=13&appid=730&market_hash_name=Glock-18%20%7C%20Grinder%20%28Battle-Scarred%29'
p2013
sg13
S'Glock-18'
p2014
sg17
g218
sg19
g57
sba(i__main__
skin
p2015
(dp2016
g6
I00
sg7
S'Vanguard'
p2017
sg8
F1.6499999999999999
sg9
S'Basilisk'
p2018
sg11
S'http://steamcommunity.com/market/priceoverview/?currency=13&appid=730&market_hash_name=M4A1-S%20%7C%20Basilisk%20%28Battle-Scarred%29'
p2019
sg13
S'M4A1-S'
p2020
sg15
I174
sg16
F1.73
sg17
g218
sg19
g57
sba(i__main__
skin
p2021
(dp2022
g6
I00
sg7
S'Vanguard'
p2023
sg8
F1.1499999999999999
sg9
S'Griffin'
p2024
sg11
S'http://steamcommunity.com/market/priceoverview/?currency=13&appid=730&market_hash_name=M4A4%20%7C%20Griffin%20%28Battle-Scarred%29'
p2025
sg13
S'M4A4'
p2026
sg15
I170
sg16
F1.21
sg17
g218
sg19
g57
sba(i__main__
skin
p2027
(dp2028
g6
I00
sg7
S'Vanguard'
p2029
sg8
F0.60999999999999999
sg9
S'Highwayman'
p2030
sg11
S'http://steamcommunity.com/market/priceoverview/?currency=13&appid=730&market_hash_name=Sawed-Off%20%7C%20Highwayman%20%28Battle-Scarred%29'
p2031
sg13
S'Sawed-Off'
p2032
sg15
I16
sg16
F0.58999999999999997
sg17
g218
sg19
g57
sba(i__main__
skin
p2033
(dp2034
g6
I00
sg7
S'Vanguard'
p2035
sg8
F2.6600000000000001
sg9
S'Cartel'
p2036
sg11
S'http://steamcommunity.com/market/priceoverview/?currency=13&appid=730&market_hash_name=P250%20%7C%20Cartel%20%28Battle-Scarred%29'
p2037
sg13
S'P250'
p2038
sg15
I24
sg16
F3.04
sg17
g218
sg19
g82
sba(i__main__
skin
p2039
(dp2040
g6
I00
sg7
S'Vanguard'
p2041
sg8
F3.1800000000000002
sg9
S'Cardiac'
p2042
sg11
S'http://steamcommunity.com/market/priceoverview/?currency=13&appid=730&market_hash_name=SCAR-20%20%7C%20Cardiac%20%28Battle-Scarred%29'
p2043
sg13
S'SCAR-20'
p2044
sg15
I25
sg16
F3.5
sg17
g218
sg19
g82
sba(i__main__
skin
p2045
(dp2046
g6
I00
sg7
S'Vanguard'
p2047
sg8
F3.0800000000000001
sg9
S'Tranquility'
p2048
sg11
S'http://steamcommunity.com/market/priceoverview/?currency=13&appid=730&market_hash_name=XM1014%20%7C%20Tranquility%20%28Battle-Scarred%29'
p2049
sg13
S'XM1014'
p2050
sg15
I8
sg16
F3.1299999999999999
sg17
g218
sg19
g82
sba(i__main__
skin
p2051
(dp2052
g6
I00
sg7
S'Vanguard'
p2053
sg8
F18.149999999999999
sg9
S'Wasteland Rebel'
p2054
sg11
S'http://steamcommunity.com/market/priceoverview/?currency=13&appid=730&market_hash_name=AK-47%20%7C%20Wasteland%20Rebel%20%28Battle-Scarred%29'
p2055
sg13
S'AK-47'
p2056
sg15
I53
sg16
F18.559999999999999
sg17
g218
sg19
g101
sba(i__main__
skin
p2057
(dp2058
g6
I00
sg7
S'Vanguard'
p2059
sg8
F12
sg9
S'Fire Elemental'
p2060
sg11
S'http://steamcommunity.com/market/priceoverview/?currency=13&appid=730&market_hash_name=P2000%20%7C%20Fire%20Elemental%20%28Battle-Scarred%29'
p2061
sg13
S'P2000'
p2062
sg15
I22
sg16
F11.57
sg17
g218
sg19
g101
sbasS'Militia'
p2063
(lp2064
(i__main__
skin
p2065
(dp2066
g6
I00
sg7
g2063
sg8
F2.27
sg9
S'Splash Jam'
p2067
sg11
S'http://steamcommunity.com/market/priceoverview/?currency=13&appid=730&market_hash_name=SCAR-20%20%7C%20Splash%20Jam%20%28Battle-Scarred%29'
p2068
sg13
S'SCAR-20'
p2069
sg15
I10
sg16
F2.2599999999999998
sg17
g116
sg19
g82
sba(i__main__
skin
p2070
(dp2071
g6
I00
sg7
S'Militia'
p2072
sg9
S'Modern Hunter *'
p2073
sg11
S'http://steamcommunity.com/market/priceoverview/?currency=13&appid=730&market_hash_name=M4A4%20%7C%20Modern%20Hunter%20%2A%20%28Battle-Scarred%29'
p2074
sg13
S'M4A4'
p2075
sg17
g116
sg19
g57
sba(i__main__
skin
p2076
(dp2077
g6
I00
sg7
S'Militia'
p2078
sg8
I-1
sg9
S'Modern Hunter'
p2079
sg11
S'http://steamcommunity.com/market/priceoverview/?currency=13&appid=730&market_hash_name=PP-Bizon%20%7C%20Modern%20Hunter%20%28Battle-Scarred%29'
p2080
sg13
S'PP-Bizon'
p2081
sg15
I0
sg16
F8.0999999999999996
sg17
g116
sg19
g20
sba(i__main__
skin
p2082
(dp2083
g6
I00
sg7
S'Militia'
p2084
sg8
I-1
sg9
S'Blaze Orange'
p2085
sg11
S'http://steamcommunity.com/market/priceoverview/?currency=13&appid=730&market_hash_name=XM1014%20%7C%20Blaze%20Orange%20%28Battle-Scarred%29'
p2086
sg13
S'XM1014'
p2087
sg15
I0
sg16
F3.1000000000000001
sg17
g116
sg19
g20
sba(i__main__
skin
p2088
(dp2089
g6
I00
sg7
S'Militia'
p2090
sg8
F1.74
sg9
S'Modern Hunter'
p2091
sg11
S'http://steamcommunity.com/market/priceoverview/?currency=13&appid=730&market_hash_name=P250%20%7C%20Modern%20Hunter%20%28Battle-Scarred%29'
p2092
sg13
S'P250'
p2093
sg15
I1
sg16
F2.3300000000000001
sg17
g116
sg19
g20
sba(i__main__
skin
p2094
(dp2095
g6
I00
sg7
S'Militia'
p2096
sg8
I-1
sg9
S'Blaze Orange'
p2097
sg11
S'http://steamcommunity.com/market/priceoverview/?currency=13&appid=730&market_hash_name=Nova%20%7C%20Blaze%20Orange%20%28Battle-Scarred%29'
p2098
sg13
S'Nova'
p2099
sg15
I0
sg16
F2.79
sg17
g116
sg19
g20
sba(i__main__
skin
p2100
(dp2101
g6
I00
sg7
S'Militia'
p2102
sg8
F3.4500000000000002
sg9
S'Modern Hunter'
p2103
sg11
S'http://steamcommunity.com/market/priceoverview/?currency=13&appid=730&market_hash_name=Nova%20%7C%20Modern%20Hunter%20%28Battle-Scarred%29'
p2104
sg13
S'Nova'
p2105
sg15
I12
sg16
F3.5899999999999999
sg17
g116
sg19
g20
sba(i__main__
skin
p2106
(dp2107
g6
I00
sg7
S'Militia'
p2108
sg9
S'Grassland Leaves *'
p2109
sg11
S'http://steamcommunity.com/market/priceoverview/?currency=13&appid=730&market_hash_name=P2000%20%7C%20Grassland%20Leaves%20%2A%20%28Battle-Scarred%29'
p2110
sg13
S'P2000'
p2111
sg17
g116
sg19
g346
sba(i__main__
skin
p2112
(dp2113
g6
I00
sg7
S'Militia'
p2114
sg8
F0.29999999999999999
sg9
S'Forest Leaves'
p2115
sg11
S'http://steamcommunity.com/market/priceoverview/?currency=13&appid=730&market_hash_name=PP-Bizon%20%7C%20Forest%20Leaves%20%28Battle-Scarred%29'
p2116
sg13
S'PP-Bizon'
p2117
sg15
I8
sg16
F0.32000000000000001
sg17
g116
sg19
g383
sba(i__main__
skin
p2118
(dp2119
g6
I00
sg7
S'Militia'
p2120
sg8
F0.31
sg9
S'Tornado'
p2121
sg11
S'http://steamcommunity.com/market/priceoverview/?currency=13&appid=730&market_hash_name=MAC-10%20%7C%20Tornado%20%28Battle-Scarred%29'
p2122
sg13
S'MAC-10'
p2123
sg15
I6
sg16
F0.34999999999999998
sg17
g116
sg19
g383
sba(i__main__
skin
p2124
(dp2125
g6
I00
sg7
S'Militia'
p2126
sg8
F0.22
sg9
S'Grassland'
p2127
sg11
S'http://steamcommunity.com/market/priceoverview/?currency=13&appid=730&market_hash_name=XM1014%20%7C%20Grassland%20%28Battle-Scarred%29'
p2128
sg13
S'XM1014'
p2129
sg15
I8
sg16
F0.20999999999999999
sg17
g116
sg19
g383
sbasS'Revolver Content'
p2130
(lp2131
(i__main__
skin
p2132
(dp2133
g6
I00
sg7
g2130
sg8
F0.13
sg9
S'Crimson Web'
p2134
sg11
S'http://steamcommunity.com/market/priceoverview/?currency=13&appid=730&market_hash_name=R8 Revolver%20%7C%20Crimson%20Web%20%28Battle-Scarred%29'
p2135
sg13
S'R8 Revolver'
p2136
sg15
I433
sg16
F0.12
sg17
g116
sg19
g20
sba(i__main__
skin
p2137
(dp2138
g6
I00
sg7
S'Revolver Content'
p2139
sg8
F0.10000000000000001
sg9
S'Ricochet'
p2140
sg11
S'http://steamcommunity.com/market/priceoverview/?currency=13&appid=730&market_hash_name=AUG%20%7C%20Ricochet%20%28Battle-Scarred%29'
p2141
sg13
S'AUG'
p2142
sg15
I269
sg16
F0.12
sg17
g116
sg19
g20
sba(i__main__
skin
p2143
(dp2144
g6
I00
sg7
S'Revolver Content'
p2145
sg9
S'Corinthian'
p2146
sg11
S'http://steamcommunity.com/market/priceoverview/?currency=13&appid=730&market_hash_name=Desert Eagle%20%7C%20Corinthian%20%28Battle-Scarred%29'
p2147
sg13
S'Desert Eagle'
p2148
sg17
g116
sg19
g20
sba(i__main__
skin
p2149
(dp2150
g6
I00
sg7
S'Revolver Content'
p2151
sg9
S'Imperial'
p2152
sg11
S'http://steamcommunity.com/market/priceoverview/?currency=13&appid=730&market_hash_name=P2000%20%7C%20Imperial%20%28Battle-Scarred%29'
p2153
sg13
S'P2000'
p2154
sg17
g116
sg19
g20
sba(i__main__
skin
p2155
(dp2156
g6
I00
sg7
S'Revolver Content'
p2157
sg8
F0.10000000000000001
sg9
S'Yorick'
p2158
sg11
S'http://steamcommunity.com/market/priceoverview/?currency=13&appid=730&market_hash_name=Sawed-Off%20%7C%20Yorick%20%28Battle-Scarred%29'
p2159
sg13
S'Sawed-Off'
p2160
sg15
I319
sg16
F0.11
sg17
g116
sg19
g20
sba(i__main__
skin
p2161
(dp2162
g6
I00
sg7
S'Revolver Content'
p2163
sg8
F0.73999999999999999
sg9
S'Fuel Rod'
p2164
sg11
S'http://steamcommunity.com/market/priceoverview/?currency=13&appid=730&market_hash_name=PP-Bizon%20%7C%20Fuel%20Rod%20%28Battle-Scarred%29'
p2165
sg13
S'PP-Bizon'
p2166
sg15
I126
sg16
F0.69999999999999996
sg17
g116
sg19
g57
sba(i__main__
skin
p2167
(dp2168
g6
I00
sg7
S'Revolver Content'
p2169
sg8
F0.75
sg9
S'Retrobution'
p2170
sg11
S'http://steamcommunity.com/market/priceoverview/?currency=13&appid=730&market_hash_name=Five-SeveN%20%7C%20Retrobution%20%28Battle-Scarred%29'
p2171
sg13
S'Five-SeveN'
p2172
sg15
I163
sg16
F0.70999999999999996
sg17
g116
sg19
g57
sba(i__main__
skin
p2173
(dp2174
g6
I00
sg7
S'Revolver Content'
p2175
sg8
F0.64000000000000001
sg9
S'Power Loader'
p2176
sg11
S'http://steamcommunity.com/market/priceoverview/?currency=13&appid=730&market_hash_name=Negev%20%7C%20Power%20Loader%20%28Battle-Scarred%29'
p2177
sg13
S'Negev'
p2178
sg15
I98
sg16
F0.56999999999999995
sg17
g116
sg19
g57
sba(i__main__
skin
p2179
(dp2180
g6
I00
sg7
S'Revolver Content'
p2181
sg8
F0.69999999999999996
sg9
S'Tiger Moth'
p2182
sg11
S'http://steamcommunity.com/market/priceoverview/?currency=13&appid=730&market_hash_name=SG 553%20%7C%20Tiger%20Moth%20%28Battle-Scarred%29'
p2183
sg13
S'SG 553'
p2184
sg15
I125
sg16
F0.65000000000000002
sg17
g116
sg19
g57
sba(i__main__
skin
p2185
(dp2186
g6
I00
sg7
S'Revolver Content'
p2187
sg8
F1.02
sg9
S'Avalanche'
p2188
sg11
S'http://steamcommunity.com/market/priceoverview/?currency=13&appid=730&market_hash_name=Tec-9%20%7C%20Avalanche%20%28Battle-Scarred%29'
p2189
sg13
S'Tec-9'
p2190
sg15
I207
sg16
F1.01
sg17
g116
sg19
g57
sba(i__main__
skin
p2191
(dp2192
g6
I00
sg7
S'Revolver Content'
p2193
sg8
F0.63
sg9
S'Teclu Burner'
p2194
sg11
S'http://steamcommunity.com/market/priceoverview/?currency=13&appid=730&market_hash_name=XM1014%20%7C%20Teclu%20Burner%20%28Battle-Scarred%29'
p2195
sg13
S'XM1014'
p2196
sg15
I83
sg16
F0.72999999999999998
sg17
g116
sg19
g57
sba(i__main__
skin
p2197
(dp2198
g6
I00
sg7
S'Revolver Content'
p2199
sg8
F9.4000000000000004
sg9
S'Point Disarray'
p2200
sg11
S'http://steamcommunity.com/market/priceoverview/?currency=13&appid=730&market_hash_name=AK-47%20%7C%20Point%20Disarray%20%28Battle-Scarred%29'
p2201
sg13
S'AK-47'
p2202
sg15
I127
sg16
F9.7300000000000004
sg17
g116
sg19
g82
sba(i__main__
skin
p2203
(dp2204
g6
I00
sg7
S'Revolver Content'
p2205
sg8
F1.8300000000000001
sg9
S'The Executioner'
p2206
sg11
S'http://steamcommunity.com/market/priceoverview/?currency=13&appid=730&market_hash_name=G3SG1%20%7C%20The%20Executioner%20%28Battle-Scarred%29'
p2207
sg13
S'G3SG1'
p2208
sg15
I50
sg16
F1.78
sg17
g116
sg19
g82
sba(i__main__
skin
p2209
(dp2210
g6
I00
sg7
S'Revolver Content'
p2211
sg8
F1.77
sg9
S'Shapewood'
p2212
sg11
S'http://steamcommunity.com/market/priceoverview/?currency=13&appid=730&market_hash_name=P90%20%7C%20Shapewood%20%28Battle-Scarred%29'
p2213
sg13
S'P90'
p2214
sg15
I123
sg16
F1.8400000000000001
sg17
g116
sg19
g82
sba(i__main__
skin
p2215
(dp2216
g6
I00
sg7
S'Revolver Content'
p2217
sg8
F9.7200000000000006
sg9
S'Royal Paladin'
p2218
sg11
S'http://steamcommunity.com/market/priceoverview/?currency=13&appid=730&market_hash_name=M4A4%20%7C%20Royal%20Paladin%20%28Battle-Scarred%29'
p2219
sg13
S'M4A4'
p2220
sg15
I62
sg16
F9.9299999999999997
sg17
g116
sg19
g101
sba(i__main__
skin
p2221
(dp2222
g6
I00
sg7
S'Revolver Content'
p2223
sg9
S'Fade'
p2224
sg11
S'http://steamcommunity.com/market/priceoverview/?currency=13&appid=730&market_hash_name=R8 Revolver%20%7C%20Fade%20%28Battle-Scarred%29'
p2225
sg13
S'R8 Revolver'
p2226
sg17
g116
sg19
g101
sbasS'Gods and Monsters'
p2227
(lp2228
(i__main__
skin
p2229
(dp2230
g6
I00
sg7
g2227
sg8
F0.58999999999999997
sg9
S'Asterion'
p2231
sg11
S'http://steamcommunity.com/market/priceoverview/?currency=13&appid=730&market_hash_name=MP7%20%7C%20Asterion%20%28Battle-Scarred%29'
p2232
sg13
S'MP7'
p2233
sg15
I8
sg16
F0.59999999999999998
sg17
g218
sg19
g383
sba(i__main__
skin
p2234
(dp2235
g6
I00
sg7
S'Gods and Monsters'
p2236
sg8
F0.56999999999999995
sg9
S'Daedalus'
p2237
sg11
S'http://steamcommunity.com/market/priceoverview/?currency=13&appid=730&market_hash_name=AUG%20%7C%20Daedalus%20%28Battle-Scarred%29'
p2238
sg13
S'AUG'
p2239
sg15
I17
sg16
F0.59999999999999998
sg17
g218
sg19
g383
sba(i__main__
skin
p2240
(dp2241
g6
I00
sg7
S'Gods and Monsters'
p2242
sg8
F0.63
sg9
S'Moon in Libra'
p2243
sg11
S'http://steamcommunity.com/market/priceoverview/?currency=13&appid=730&market_hash_name=Dual Berettas%20%7C%20Moon%20in%20Libra%20%28Battle-Scarred%29'
p2244
sg13
S'Dual Berettas'
p2245
sg15
I5
sg16
F0.62
sg17
g218
sg19
g383
sba(i__main__
skin
p2246
(dp2247
g6
I00
sg7
S'Gods and Monsters'
p2248
sg8
F0.72999999999999998
sg9
S'Moon in Libra'
p2249
sg11
S'http://steamcommunity.com/market/priceoverview/?currency=13&appid=730&market_hash_name=Nova%20%7C%20Moon%20in%20Libra%20%28Battle-Scarred%29'
p2250
sg13
S'Nova'
p2251
sg15
I13
sg16
F0.70999999999999996
sg17
g218
sg19
g383
sba(i__main__
skin
p2252
(dp2253
g6
I00
sg7
S'Gods and Monsters'
p2254
sg8
F2.7200000000000002
sg9
S'Hades'
p2255
sg11
S'http://steamcommunity.com/market/priceoverview/?currency=13&appid=730&market_hash_name=Tec-9%20%7C%20Hades%20%28Battle-Scarred%29'
p2256
sg13
S'Tec-9'
p2257
sg15
I16
sg16
F2.7000000000000002
sg17
g218
sg19
g346
sba(i__main__
skin
p2258
(dp2259
g6
I00
sg7
S'Gods and Monsters'
p2260
sg9
S'Pathfinder'
p2261
sg11
S'http://steamcommunity.com/market/priceoverview/?currency=13&appid=730&market_hash_name=P2000%20%7C%20Pathfinder%20%28Battle-Scarred%29'
p2262
sg13
S'P2000'
p2263
sg17
g218
sg19
g346
sba(i__main__
skin
p2264
(dp2265
g6
I00
sg7
S'Gods and Monsters'
p2266
sg8
F5.1299999999999999
sg9
S'Sun in Leo'
p2267
sg11
S'http://steamcommunity.com/market/priceoverview/?currency=13&appid=730&market_hash_name=AWP%20%7C%20Sun%20in%20Leo%20%28Battle-Scarred%29'
p2268
sg13
S'AWP'
p2269
sg15
I33
sg16
F5.21
sg17
g218
sg19
g346
sba(i__main__
skin
p2270
(dp2271
g6
I00
sg7
S'Gods and Monsters'
p2272
sg8
F1.6399999999999999
sg9
S'Shipping Forecast'
p2273
sg11
S'http://steamcommunity.com/market/priceoverview/?currency=13&appid=730&market_hash_name=M249%20%7C%20Shipping%20Forecast%20%28Battle-Scarred%29'
p2274
sg13
S'M249'
p2275
sg15
I1
sg16
F2.4100000000000001
sg17
g218
sg19
g346
sba(i__main__
skin
p2276
(dp2277
g6
I00
sg7
S'Gods and Monsters'
p2278
sg9
S"Minotaur's Labyrinth"
p2279
sg11
S'http://steamcommunity.com/market/priceoverview/?currency=13&appid=730&market_hash_name=UMP-45%20%7C%20Minotaur%27s%20Labyrinth%20%28Battle-Scarred%29'
p2280
sg13
S'UMP-45'
p2281
sg17
g218
sg19
g20
sba(i__main__
skin
p2282
(dp2283
g6
I00
sg7
S'Gods and Monsters'
p2284
sg9
S"Pandora's Box"
p2285
sg11
S'http://steamcommunity.com/market/priceoverview/?currency=13&appid=730&market_hash_name=MP9%20%7C%20Pandora%27s%20Box%20%28Battle-Scarred%29'
p2286
sg13
S'MP9'
p2287
sg17
g218
sg19
g20
sba(i__main__
skin
p2288
(dp2289
g6
I00
sg7
S'Gods and Monsters'
p2290
sg9
S'Chronos'
p2291
sg11
S'http://steamcommunity.com/market/priceoverview/?currency=13&appid=730&market_hash_name=G3SG1%20%7C%20Chronos%20%28Battle-Scarred%29'
p2292
sg13
S'G3SG1'
p2293
sg17
g218
sg19
g57
sba(i__main__
skin
p2294
(dp2295
g6
I00
sg7
S'Gods and Monsters'
p2296
sg9
S'Icarus Fell'
p2297
sg11
S'http://steamcommunity.com/market/priceoverview/?currency=13&appid=730&market_hash_name=M4A1-S%20%7C%20Icarus%20Fell%20%28Battle-Scarred%29'
p2298
sg13
S'M4A1-S'
p2299
sg17
g218
sg19
g57
sba(i__main__
skin
p2300
(dp2301
g6
I00
sg7
S'Gods and Monsters'
p2302
sg9
S'Poseidon'
p2303
sg11
S'http://steamcommunity.com/market/priceoverview/?currency=13&appid=730&market_hash_name=M4A4%20%7C%20Poseidon%20%28Battle-Scarred%29'
p2304
sg13
S'M4A4'
p2305
sg17
g218
sg19
g82
sba(i__main__
skin
p2306
(dp2307
g6
I00
sg7
S'Gods and Monsters'
p2308
sg8
I-1
sg9
S'Medusa'
p2309
sg11
S'http://steamcommunity.com/market/priceoverview/?currency=13&appid=730&market_hash_name=AWP%20%7C%20Medusa%20%28Battle-Scarred%29'
p2310
sg13
S'AWP'
p2311
sg15
I0
sg16
I-1
sg17
g218
sg19
g101
sbasS'Vertigo'
p2312
(lp2313
(i__main__
skin
p2314
(dp2315
g6
I00
sg7
g2312
sg8
F1.8200000000000001
sg9
S'Demolition'
p2316
sg11
S'http://steamcommunity.com/market/priceoverview/?currency=13&appid=730&market_hash_name=Dual Berettas%20%7C%20Demolition%20%28Battle-Scarred%29'
p2317
sg13
S'Dual Berettas'
p2318
sg15
I3
sg16
F1.6299999999999999
sg17
g218
sg19
g57
sba(i__main__
skin
p2319
(dp2320
g6
I00
sg7
S'Vertigo'
p2321
sg8
F8.2699999999999996
sg9
S'Black Laminate'
p2322
sg11
S'http://steamcommunity.com/market/priceoverview/?currency=13&appid=730&market_hash_name=AK-47%20%7C%20Black%20Laminate%20%28Battle-Scarred%29'
p2323
sg13
S'AK-47'
p2324
sg15
I10
sg16
F8.3100000000000005
sg17
g218
sg19
g20
sba(i__main__
skin
p2325
(dp2326
g6
I00
sg7
S'Vertigo'
p2327
sg8
F16.030000000000001
sg9
S'Glacier Mesh'
p2328
sg11
S'http://steamcommunity.com/market/priceoverview/?currency=13&appid=730&market_hash_name=P90%20%7C%20Glacier%20Mesh%20%28Battle-Scarred%29'
p2329
sg13
S'P90'
p2330
sg15
I8
sg16
F18.059999999999999
sg17
g218
sg19
g20
sba(i__main__
skin
p2331
(dp2332
g6
I00
sg7
S'Vertigo'
p2333
sg9
S'Carbon Fiber'
p2334
sg11
S'http://steamcommunity.com/market/priceoverview/?currency=13&appid=730&market_hash_name=PP-Bizon%20%7C%20Carbon%20Fiber%20%28Battle-Scarred%29'
p2335
sg13
S'PP-Bizon'
p2336
sg17
g218
sg19
g346
sba(i__main__
skin
p2337
(dp2338
g6
I00
sg7
S'Vertigo'
p2339
sg8
F0.72999999999999998
sg9
S'Urban DDPAT'
p2340
sg11
S'http://steamcommunity.com/market/priceoverview/?currency=13&appid=730&market_hash_name=MAC-10%20%7C%20Urban%20DDPAT%20%28Battle-Scarred%29'
p2341
sg13
S'MAC-10'
p2342
sg15
I11
sg16
F0.80000000000000004
sg17
g218
sg19
g383
sba(i__main__
skin
p2343
(dp2344
g6
I00
sg7
S'Vertigo'
p2345
sg8
F0.66000000000000003
sg9
S'Urban Perforated'
p2346
sg11
S'http://steamcommunity.com/market/priceoverview/?currency=13&appid=730&market_hash_name=XM1014%20%7C%20Urban%20Perforated%20%28Battle-Scarred%29'
p2347
sg13
S'XM1014'
p2348
sg15
I2
sg16
F0.66000000000000003
sg17
g218
sg19
g383
sbasS'Overpass'
p2349
(lp2350
(i__main__
skin
p2351
(dp2352
g6
I00
sg7
g2349
sg8
F55.539999999999999
sg9
S'Master Piece'
p2353
sg11
S'http://steamcommunity.com/market/priceoverview/?currency=13&appid=730&market_hash_name=M4A1-S%20%7C%20Master%20Piece%20%28Battle-Scarred%29'
p2354
sg13
S'M4A1-S'
p2355
sg15
I16
sg16
F59.909999999999997
sg17
g116
sg19
g82
sba(i__main__
skin
p2356
(dp2357
g6
I00
sg7
S'Overpass'
p2358
sg8
F13.67
sg9
S'Road Rash'
p2359
sg11
S'http://steamcommunity.com/market/priceoverview/?currency=13&appid=730&market_hash_name=USP-S%20%7C%20Road%20Rash%20%28Battle-Scarred%29'
p2360
sg13
S'USP-S'
p2361
sg15
I10
sg16
F13.449999999999999
sg17
g116
sg19
g57
sba(i__main__
skin
p2362
(dp2363
g6
I00
sg7
S'Overpass'
p2364
sg8
F15.07
sg9
S'Pink DDPAT'
p2365
sg11
S'http://steamcommunity.com/market/priceoverview/?currency=13&appid=730&market_hash_name=AWP%20%7C%20Pink%20DDPAT%20%28Battle-Scarred%29'
p2366
sg13
S'AWP'
p2367
sg15
I18
sg16
F15.75
sg17
g116
sg19
g57
sba(i__main__
skin
p2368
(dp2369
g6
I00
sg7
S'Overpass'
p2370
sg8
I-1
sg9
S'VariCamo Blue'
p2371
sg11
S'http://steamcommunity.com/market/priceoverview/?currency=13&appid=730&market_hash_name=XM1014%20%7C%20VariCamo%20Blue%20%28Battle-Scarred%29'
p2372
sg13
S'XM1014'
p2373
sg15
I0
sg16
F2.54
sg17
g116
sg19
g20
sba(i__main__
skin
p2374
(dp2375
g6
I00
sg7
S'Overpass'
p2376
sg9
S'Detour'
p2377
sg11
S'http://steamcommunity.com/market/priceoverview/?currency=13&appid=730&market_hash_name=SSG 08%20%7C%20Detour%20%28Battle-Scarred%29'
p2378
sg13
S'SSG 08'
p2379
sg17
g116
sg19
g20
sba(i__main__
skin
p2380
(dp2381
g6
I00
sg7
S'Overpass'
p2382
sg8
F2.1099999999999999
sg9
S'Nitro'
p2383
sg11
S'http://steamcommunity.com/market/priceoverview/?currency=13&appid=730&market_hash_name=CZ75-Auto%20%7C%20Nitro%20%28Battle-Scarred%29'
p2384
sg13
S'CZ75-Auto'
p2385
sg15
I33
sg16
F2.4300000000000002
sg17
g116
sg19
g20
sba(i__main__
skin
p2386
(dp2387
g6
I00
sg7
S'Overpass'
p2388
sg8
F0.28999999999999998
sg9
S'Grassland'
p2389
sg11
S'http://steamcommunity.com/market/priceoverview/?currency=13&appid=730&market_hash_name=P2000%20%7C%20Grassland%20%28Battle-Scarred%29'
p2390
sg13
S'P2000'
p2391
sg15
I121
sg16
F0.29999999999999999
sg17
g116
sg19
g346
sba(i__main__
skin
p2392
(dp2393
g6
I00
sg7
S'Overpass'
p2394
sg8
F0.28999999999999998
sg9
S'Night'
p2395
sg11
S'http://steamcommunity.com/market/priceoverview/?currency=13&appid=730&market_hash_name=Glock-18%20%7C%20Night%20%28Battle-Scarred%29'
p2396
sg13
S'Glock-18'
p2397
sg15
I115
sg16
F0.28999999999999998
sg17
g116
sg19
g346
sba(i__main__
skin
p2398
(dp2399
g6
I00
sg7
S'Overpass'
p2400
sg8
F0.28999999999999998
sg9
S'Gunsmoke'
p2401
sg11
S'http://steamcommunity.com/market/priceoverview/?currency=13&appid=730&market_hash_name=MP7%20%7C%20Gunsmoke%20%28Battle-Scarred%29'
p2402
sg13
S'MP7'
p2403
sg15
I85
sg16
F0.28999999999999998
sg17
g116
sg19
g346
sba(i__main__
skin
p2404
(dp2405
g6
I00
sg7
S'Overpass'
p2406
sg8
F0.29999999999999999
sg9
S'Urban DDPAT'
p2407
sg11
S'http://steamcommunity.com/market/priceoverview/?currency=13&appid=730&market_hash_name=Desert Eagle%20%7C%20Urban%20DDPAT%20%28Battle-Scarred%29'
p2408
sg13
S'Desert Eagle'
p2409
sg15
I97
sg16
F0.31
sg17
g116
sg19
g346
sba(i__main__
skin
p2410
(dp2411
g6
I00
sg7
S'Overpass'
p2412
sg8
F0.070000000000000007
sg9
S'Storm'
p2413
sg11
S'http://steamcommunity.com/market/priceoverview/?currency=13&appid=730&market_hash_name=MP9%20%7C%20Storm%20%28Battle-Scarred%29'
p2414
sg13
S'MP9'
p2415
sg15
I323
sg16
F0.050000000000000003
sg17
g116
sg19
g383
sba(i__main__
skin
p2416
(dp2417
g6
I00
sg7
S'Overpass'
p2418
sg8
F0.059999999999999998
sg9
S'Storm'
p2419
sg11
S'http://steamcommunity.com/market/priceoverview/?currency=13&appid=730&market_hash_name=MAG-7%20%7C%20Storm%20%28Battle-Scarred%29'
p2420
sg13
S'MAG-7'
p2421
sg15
I319
sg16
F0.050000000000000003
sg17
g116
sg19
g383
sba(i__main__
skin
p2422
(dp2423
g6
I00
sg7
S'Overpass'
p2424
sg8
F0.070000000000000007
sg9
S'Contrast Spray'
p2425
sg11
S'http://steamcommunity.com/market/priceoverview/?currency=13&appid=730&market_hash_name=M249%20%7C%20Contrast%20Spray%20%28Battle-Scarred%29'
p2426
sg13
S'M249'
p2427
sg15
I233
sg16
F0.050000000000000003
sg17
g116
sg19
g383
sba(i__main__
skin
p2428
(dp2429
g6
I00
sg7
S'Overpass'
p2430
sg8
F0.02
sg9
S'Scorched'
p2431
sg11
S'http://steamcommunity.com/market/priceoverview/?currency=13&appid=730&market_hash_name=UMP-45%20%7C%20Scorched%20%28Battle-Scarred%29'
p2432
sg13
S'UMP-45'
p2433
sg15
I315
sg16
F0.050000000000000003
sg17
g116
sg19
g383
sba(i__main__
skin
p2434
(dp2435
g6
I00
sg7
S'Overpass'
p2436
sg8
F0.040000000000000001
sg9
S'Sage Spray'
p2437
sg11
S'http://steamcommunity.com/market/priceoverview/?currency=13&appid=730&market_hash_name=Sawed-Off%20%7C%20Sage%20Spray%20%28Battle-Scarred%29'
p2438
sg13
S'Sawed-Off'
p2439
sg15
I192
sg16
F0.050000000000000003
sg17
g116
sg19
g383
sbasS'Arms Deal Two'
p2440
(lp2441
(i__main__
skin
p2442
(dp2443
g6
I00
sg7
g2440
sg9
S'Blue Titanium'
p2444
sg11
S'http://steamcommunity.com/market/priceoverview/?currency=13&appid=730&market_hash_name=Tec-9%20%7C%20Blue%20Titanium%20%28Battle-Scarred%29'
p2445
sg13
S'Tec-9'
p2446
sg17
g218
sg19
g20
sba(i__main__
skin
p2447
(dp2448
g6
I00
sg7
S'Arms Deal Two'
p2449
sg9
S'Blood Tiger'
p2450
sg11
S'http://steamcommunity.com/market/priceoverview/?currency=13&appid=730&market_hash_name=M4A1-S%20%7C%20Blood%20Tiger%20%28Battle-Scarred%29'
p2451
sg13
S'M4A1-S'
p2452
sg17
g218
sg19
g20
sba(i__main__
skin
p2453
(dp2454
g6
I00
sg7
S'Arms Deal Two'
p2455
sg9
S'Hexane'
p2456
sg11
S'http://steamcommunity.com/market/priceoverview/?currency=13&appid=730&market_hash_name=FAMAS%20%7C%20Hexane%20%28Battle-Scarred%29'
p2457
sg13
S'FAMAS'
p2458
sg17
g218
sg19
g20
sba(i__main__
skin
p2459
(dp2460
g6
I00
sg7
S'Arms Deal Two'
p2461
sg9
S'Hive'
p2462
sg11
S'http://steamcommunity.com/market/priceoverview/?currency=13&appid=730&market_hash_name=P250%20%7C%20Hive%20%28Battle-Scarred%29'
p2463
sg13
S'P250'
p2464
sg17
g218
sg19
g20
sba(i__main__
skin
p2465
(dp2466
g6
I00
sg7
S'Arms Deal Two'
p2467
sg8
F0.68999999999999995
sg9
S'Crimson Web'
p2468
sg11
S'http://steamcommunity.com/market/priceoverview/?currency=13&appid=730&market_hash_name=SCAR-20%20%7C%20Crimson%20Web%20%28Battle-Scarred%29'
p2469
sg13
S'SCAR-20'
p2470
sg15
I18
sg16
F0.70999999999999996
sg17
g218
sg19
g20
sba(i__main__
skin
p2471
(dp2472
g6
I00
sg7
S'Arms Deal Two'
p2473
sg8
F3.5699999999999998
sg9
S'Case Hardened'
p2474
sg11
S'http://steamcommunity.com/market/priceoverview/?currency=13&appid=730&market_hash_name=Five-SeveN%20%7C%20Case%20Hardened%20%28Battle-Scarred%29'
p2475
sg13
S'Five-SeveN'
p2476
sg15
I68
sg16
F3.9900000000000002
sg17
g218
sg19
g57
sba(i__main__
skin
p2477
(dp2478
g6
I00
sg7
S'Arms Deal Two'
p2479
sg9
S'Hypnotic'
p2480
sg11
S'http://steamcommunity.com/market/priceoverview/?currency=13&appid=730&market_hash_name=MP9%20%7C%20Hypnotic%20%28Battle-Scarred%29'
p2481
sg13
S'MP9'
p2482
sg17
g218
sg19
g57
sba(i__main__
skin
p2483
(dp2484
g6
I00
sg7
S'Arms Deal Two'
p2485
sg9
S'Graphite'
p2486
sg11
S'http://steamcommunity.com/market/priceoverview/?currency=13&appid=730&market_hash_name=Nova%20%7C%20Graphite%20%28Battle-Scarred%29'
p2487
sg13
S'Nova'
p2488
sg17
g218
sg19
g57
sba(i__main__
skin
p2489
(dp2490
g6
I00
sg7
S'Arms Deal Two'
p2491
sg9
S'Hemoglobin'
p2492
sg11
S'http://steamcommunity.com/market/priceoverview/?currency=13&appid=730&market_hash_name=Dual Berettas%20%7C%20Hemoglobin%20%28Battle-Scarred%29'
p2493
sg13
S'Dual Berettas'
p2494
sg17
g218
sg19
g57
sba(i__main__
skin
p2495
(dp2496
g6
I00
sg7
S'Arms Deal Two'
p2497
sg9
S'Cold Blooded'
p2498
sg11
S'http://steamcommunity.com/market/priceoverview/?currency=13&appid=730&market_hash_name=P90%20%7C%20Cold%20Blooded%20%28Battle-Scarred%29'
p2499
sg13
S'P90'
p2500
sg17
g218
sg19
g82
sba(i__main__
skin
p2501
(dp2502
g6
I00
sg7
S'Arms Deal Two'
p2503
sg9
S'Serum'
p2504
sg11
S'http://steamcommunity.com/market/priceoverview/?currency=13&appid=730&market_hash_name=USP-S%20%7C%20Serum%20%28Battle-Scarred%29'
p2505
sg13
S'USP-S'
p2506
sg17
g218
sg19
g82
sba(i__main__
skin
p2507
(dp2508
g6
I00
sg7
S'Arms Deal Two'
p2509
sg9
S'Blood in the Water'
p2510
sg11
S'http://steamcommunity.com/market/priceoverview/?currency=13&appid=730&market_hash_name=SSG 08%20%7C%20Blood%20in%20the%20Water%20%28Battle-Scarred%29'
p2511
sg13
S'SSG 08'
p2512
sg17
g218
sg19
g101
sbasS'Office'
p2513
(lp2514
(i__main__
skin
p2515
(dp2516
g6
I00
sg7
g2513
sg8
F1.6000000000000001
sg9
S'Whiteout'
p2517
sg11
S'http://steamcommunity.com/market/priceoverview/?currency=13&appid=730&market_hash_name=MP7%20%7C%20Whiteout%20%28Battle-Scarred%29'
p2518
sg13
S'MP7'
p2519
sg15
I5
sg16
F1.8600000000000001
sg17
g218
sg19
g20
sba(i__main__
skin
p2520
(dp2521
g6
I00
sg7
S'Office'
p2522
sg9
S'Silver'
p2523
sg11
S'http://steamcommunity.com/market/priceoverview/?currency=13&appid=730&market_hash_name=P2000%20%7C%20Silver%20%28Battle-Scarred%29'
p2524
sg13
S'P2000'
p2525
sg17
g218
sg19
g20
sba(i__main__
skin
p2526
(dp2527
g6
I00
sg7
S'Office'
p2528
sg8
I-1
sg9
S'Blizzard Marbleized'
p2529
sg11
S'http://steamcommunity.com/market/priceoverview/?currency=13&appid=730&market_hash_name=M249%20%7C%20Blizzard%20Marbleized%20%28Battle-Scarred%29'
p2530
sg13
S'M249'
p2531
sg15
I0
sg16
F1.1899999999999999
sg17
g218
sg19
g346
sba(i__main__
skin
p2532
(dp2533
g6
I00
sg7
S'Office'
p2534
sg8
F0.95999999999999996
sg9
S'Arctic Camo'
p2535
sg11
S'http://steamcommunity.com/market/priceoverview/?currency=13&appid=730&market_hash_name=G3SG1%20%7C%20Arctic%20Camo%20%28Battle-Scarred%29'
p2536
sg13
S'G3SG1'
p2537
sg15
I1
sg16
F0.97999999999999998
sg17
g218
sg19
g346
sba(i__main__
skin
p2538
(dp2539
g6
I00
sg7
S'Office'
p2540
sg8
F0.93000000000000005
sg9
S'Winter Forest'
p2541
sg11
S'http://steamcommunity.com/market/priceoverview/?currency=13&appid=730&market_hash_name=Galil AR%20%7C%20Winter%20Forest%20%28Battle-Scarred%29'
p2542
sg13
S'Galil AR'
p2543
sg15
I1
sg16
F0.97999999999999998
sg17
g218
sg19
g346
sba(i__main__
skin
p2544
(dp2545
g6
I00
sg7
S'Office'
p2546
sg8
F0.40999999999999998
sg9
S'Contrast Spray'
p2547
sg11
S'http://steamcommunity.com/market/priceoverview/?currency=13&appid=730&market_hash_name=FAMAS%20%7C%20Contrast%20Spray%20%28Battle-Scarred%29'
p2548
sg13
S'FAMAS'
p2549
sg15
I3
sg16
F0.42999999999999999
sg17
g218
sg19
g383
sbasS'Baggage'
p2550
(lp2551
(i__main__
skin
p2552
(dp2553
g6
I00
sg7
g2550
sg8
F30.789999999999999
sg9
S'Jet Set'
p2554
sg11
S'http://steamcommunity.com/market/priceoverview/?currency=13&appid=730&market_hash_name=AK-47%20%7C%20Jet%20Set%20%28Battle-Scarred%29'
p2555
sg13
S'AK-47'
p2556
sg15
I6
sg16
F32.229999999999997
sg17
g116
sg19
g82
sba(i__main__
skin
p2557
(dp2558
g6
I00
sg7
S'Baggage'
p2559
sg8
I-1
sg9
S'Pilot'
p2560
sg11
S'http://steamcommunity.com/market/priceoverview/?currency=13&appid=730&market_hash_name=Desert Eagle%20%7C%20Pilot%20%28Battle-Scarred%29'
p2561
sg13
S'Desert Eagle'
p2562
sg15
I0
sg16
F9.4000000000000004
sg17
g116
sg19
g57
sba(i__main__
skin
p2563
(dp2564
g6
I00
sg7
S'Baggage'
p2565
sg8
F7.9199999999999999
sg9
S'First Class'
p2566
sg11
S'http://steamcommunity.com/market/priceoverview/?currency=13&appid=730&market_hash_name=AK-47%20%7C%20First%20Class%20%28Battle-Scarred%29'
p2567
sg13
S'AK-47'
p2568
sg15
I6
sg16
F8.0099999999999998
sg17
g116
sg19
g57
sba(i__main__
skin
p2569
(dp2570
g6
I00
sg7
S'Baggage'
p2571
sg8
I-1
sg9
S'Red Leather'
p2572
sg11
S'http://steamcommunity.com/market/priceoverview/?currency=13&appid=730&market_hash_name=XM1014%20%7C%20Red%20Leather%20%28Battle-Scarred%29'
p2573
sg13
S'XM1014'
p2574
sg15
I0
sg16
F2.3300000000000001
sg17
g116
sg19
g20
sba(i__main__
skin
p2575
(dp2576
g6
I00
sg7
S'Baggage'
p2577
sg8
F2.0800000000000001
sg9
S'Business Class'
p2578
sg11
S'http://steamcommunity.com/market/priceoverview/?currency=13&appid=730&market_hash_name=USP-S%20%7C%20Business%20Class%20%28Battle-Scarred%29'
p2579
sg13
S'USP-S'
p2580
sg15
I3
sg16
F2.5800000000000001
sg17
g116
sg19
g20
sba(i__main__
skin
p2581
(dp2582
g6
I00
sg7
S'Baggage'
p2583
sg8
I-1
sg9
S'First Class'
p2584
sg11
S'http://steamcommunity.com/market/priceoverview/?currency=13&appid=730&market_hash_name=Sawed-Off%20%7C%20First%20Class%20%28Battle-Scarred%29'
p2585
sg13
S'Sawed-Off'
p2586
sg15
I0
sg16
F4.5199999999999996
sg17
g116
sg19
g20
sba(i__main__
skin
p2587
(dp2588
g6
I00
sg7
S'Baggage'
p2589
sg8
F0.38
sg9
S'Coach Class'
p2590
sg11
S'http://steamcommunity.com/market/priceoverview/?currency=13&appid=730&market_hash_name=P2000%20%7C%20Coach%20Class%20%28Battle-Scarred%29'
p2591
sg13
S'P2000'
p2592
sg15
I11
sg16
F0.38
sg17
g116
sg19
g346
sba(i__main__
skin
p2593
(dp2594
g6
I00
sg7
S'Baggage'
p2595
sg8
F0.41999999999999998
sg9
S'Commuter'
p2596
sg11
S'http://steamcommunity.com/market/priceoverview/?currency=13&appid=730&market_hash_name=MAC-10%20%7C%20Commuter%20%28Battle-Scarred%29'
p2597
sg13
S'MAC-10'
p2598
sg15
I6
sg16
F0.48999999999999999
sg17
g116
sg19
g346
sba(i__main__
skin
p2599
(dp2600
g6
I00
sg7
S'Baggage'
p2601
sg8
F0.80000000000000004
sg9
S'Leather'
p2602
sg11
S'http://steamcommunity.com/market/priceoverview/?currency=13&appid=730&market_hash_name=P90%20%7C%20Leather%20%28Battle-Scarred%29'
p2603
sg13
S'P90'
p2604
sg15
I20
sg16
F0.85999999999999999
sg17
g116
sg19
g346
sba(i__main__
skin
p2605
(dp2606
g6
I00
sg7
S'Baggage'
p2607
sg8
F0.39000000000000001
sg9
S'Traveler'
p2608
sg11
S'http://steamcommunity.com/market/priceoverview/?currency=13&appid=730&market_hash_name=SG 553%20%7C%20Traveler%20%28Battle-Scarred%29'
p2609
sg13
S'SG 553'
p2610
sg15
I7
sg16
F0.46999999999999997
sg17
g116
sg19
g346
sba(i__main__
skin
p2611
(dp2612
g6
I00
sg7
S'Baggage'
p2613
sg8
F0.27000000000000002
sg9
S'Sand Dune'
p2614
sg11
S'http://steamcommunity.com/market/priceoverview/?currency=13&appid=730&market_hash_name=SSG 08%20%7C%20Sand%20Dune%20%28Battle-Scarred%29'
p2615
sg13
S'SSG 08'
p2616
sg15
I10
sg16
F0.37
sg17
g116
sg19
g383
sba(i__main__
skin
p2617
(dp2618
g6
I00
sg7
S'Baggage'
p2619
sg8
F0.38
sg9
S'Green Plaid'
p2620
sg11
S'http://steamcommunity.com/market/priceoverview/?currency=13&appid=730&market_hash_name=MP9%20%7C%20Green%20Plaid%20%28Battle-Scarred%29'
p2621
sg13
S'MP9'
p2622
sg15
I1
sg16
F0.34000000000000002
sg17
g116
sg19
g383
sba(i__main__
skin
p2623
(dp2624
g6
I00
sg7
S'Baggage'
p2625
sg8
F0.31
sg9
S'Green Plaid'
p2626
sg11
S'http://steamcommunity.com/market/priceoverview/?currency=13&appid=730&market_hash_name=CZ75-Auto%20%7C%20Green%20Plaid%20%28Battle-Scarred%29'
p2627
sg13
S'CZ75-Auto'
p2628
sg15
I6
sg16
F0.28999999999999998
sg17
g116
sg19
g383
sba(i__main__
skin
p2629
(dp2630
g6
I00
sg7
S'Baggage'
p2631
sg8
F0.20000000000000001
sg9
S'Olive Plaid'
p2632
sg11
S'http://steamcommunity.com/market/priceoverview/?currency=13&appid=730&market_hash_name=MP7%20%7C%20Olive%20Plaid%20%28Battle-Scarred%29'
p2633
sg13
S'MP7'
p2634
sg15
I9
sg16
F0.27000000000000002
sg17
g116
sg19
g383
sba(i__main__
skin
p2635
(dp2636
g6
I00
sg7
S'Baggage'
p2637
sg8
F0.29999999999999999
sg9
S'Contractor'
p2638
sg11
S'http://steamcommunity.com/market/priceoverview/?currency=13&appid=730&market_hash_name=G3SG1%20%7C%20Contractor%20%28Battle-Scarred%29'
p2639
sg13
S'G3SG1'
p2640
sg15
I8
sg16
F0.29999999999999999
sg17
g116
sg19
g383
sbasS'Safehouse'
p2641
(lp2642
(i__main__
skin
p2643
(dp2644
g6
I00
sg7
g2641
sg8
F1.6899999999999999
sg9
S'Nitro'
p2645
sg11
S'http://steamcommunity.com/market/priceoverview/?currency=13&appid=730&market_hash_name=M4A1-S%20%7C%20Nitro%20%28Battle-Scarred%29'
p2646
sg13
S'M4A1-S'
p2647
sg15
I301
sg16
F1.7
sg17
g218
sg19
g57
sba(i__main__
skin
p2648
(dp2649
g6
I00
sg7
S'Safehouse'
p2650
sg9
S'Acid Fade'
p2651
sg11
S'http://steamcommunity.com/market/priceoverview/?currency=13&appid=730&market_hash_name=SSG 08%20%7C%20Acid%20Fade%20%28Battle-Scarred%29'
p2652
sg13
S'SSG 08'
p2653
sg17
g218
sg19
g20
sba(i__main__
skin
p2654
(dp2655
g6
I00
sg7
S'Safehouse'
p2656
sg9
S'Silver Quartz'
p2657
sg11
S'http://steamcommunity.com/market/priceoverview/?currency=13&appid=730&market_hash_name=Five-SeveN%20%7C%20Silver%20Quartz%20%28Battle-Scarred%29'
p2658
sg13
S'Five-SeveN'
p2659
sg17
g218
sg19
g20
sba(i__main__
skin
p2660
(dp2661
g6
I00
sg7
S'Safehouse'
p2662
sg8
F0.23999999999999999
sg9
S'Teardown'
p2663
sg11
S'http://steamcommunity.com/market/priceoverview/?currency=13&appid=730&market_hash_name=FAMAS%20%7C%20Teardown%20%28Battle-Scarred%29'
p2664
sg13
S'FAMAS'
p2665
sg15
I44
sg16
F0.26000000000000001
sg17
g218
sg19
g20
sba(i__main__
skin
p2666
(dp2667
g6
I00
sg7
S'Safehouse'
p2668
sg8
F0.059999999999999998
sg9
S'VariCamo'
p2669
sg11
S'http://steamcommunity.com/market/priceoverview/?currency=13&appid=730&market_hash_name=G3SG1%20%7C%20VariCamo%20%28Battle-Scarred%29'
p2670
sg13
S'G3SG1'
p2671
sg15
I100
sg16
F0.070000000000000007
sg17
g218
sg19
g346
sba(i__main__
skin
p2672
(dp2673
g6
I00
sg7
S'Safehouse'
p2674
sg8
F0.10000000000000001
sg9
S'Gator Mesh'
p2675
sg11
S'http://steamcommunity.com/market/priceoverview/?currency=13&appid=730&market_hash_name=M249%20%7C%20Gator%20Mesh%20%28Battle-Scarred%29'
p2676
sg13
S'M249'
p2677
sg15
I139
sg16
F0.070000000000000007
sg17
g218
sg19
g346
sba(i__main__
skin
p2678
(dp2679
g6
I00
sg7
S'Safehouse'
p2680
sg8
F0.080000000000000002
sg9
S'VariCamo'
p2681
sg11
S'http://steamcommunity.com/market/priceoverview/?currency=13&appid=730&market_hash_name=Galil AR%20%7C%20VariCamo%20%28Battle-Scarred%29'
p2682
sg13
S'Galil AR'
p2683
sg15
I124
sg16
F0.070000000000000007
sg17
g218
sg19
g346
sba(i__main__
skin
p2684
(dp2685
g6
I00
sg7
S'Safehouse'
p2686
sg8
F0.089999999999999997
sg9
S'Forest Leaves'
p2687
sg11
S'http://steamcommunity.com/market/priceoverview/?currency=13&appid=730&market_hash_name=USP-S%20%7C%20Forest%20Leaves%20%28Battle-Scarred%29'
p2688
sg13
S'USP-S'
p2689
sg15
I585
sg16
F0.10000000000000001
sg17
g218
sg19
g346
sba(i__main__
skin
p2690
(dp2691
g6
I00
sg7
S'Safehouse'
p2692
sg8
F0.059999999999999998
sg9
S'Condemned'
p2693
sg11
S'http://steamcommunity.com/market/priceoverview/?currency=13&appid=730&market_hash_name=AUG%20%7C%20Condemned%20%28Battle-Scarred%29'
p2694
sg13
S'AUG'
p2695
sg15
I293
sg16
F0.070000000000000007
sg17
g218
sg19
g346
sba(i__main__
skin
p2696
(dp2697
g6
I00
sg7
S'Safehouse'
p2698
sg8
F0.050000000000000003
sg9
S'Orange Peel'
p2699
sg11
S'http://steamcommunity.com/market/priceoverview/?currency=13&appid=730&market_hash_name=MP9%20%7C%20Orange%20Peel%20%28Battle-Scarred%29'
p2700
sg13
S'MP9'
p2701
sg15
I214
sg16
F0.070000000000000007
sg17
g218
sg19
g346
sba(i__main__
skin
p2702
(dp2703
g6
I00
sg7
S'Safehouse'
p2704
sg8
F0.02
sg9
S'Contractor'
p2705
sg11
S'http://steamcommunity.com/market/priceoverview/?currency=13&appid=730&market_hash_name=SCAR-20%20%7C%20Contractor%20%28Battle-Scarred%29'
p2706
sg13
S'SCAR-20'
p2707
sg15
I783
sg16
F0.040000000000000001
sg17
g218
sg19
g383
sba(i__main__
skin
p2708
(dp2709
g6
I00
sg7
S'Safehouse'
p2710
sg8
F0.029999999999999999
sg9
S'Blue Spruce'
p2711
sg11
S'http://steamcommunity.com/market/priceoverview/?currency=13&appid=730&market_hash_name=SSG 08%20%7C%20Blue%20Spruce%20%28Battle-Scarred%29'
p2712
sg13
S'SSG 08'
p2713
sg15
I662
sg16
F0.040000000000000001
sg17
g218
sg19
g383
sba(i__main__
skin
p2714
(dp2715
g6
I00
sg7
S'Safehouse'
p2716
sg8
F0.02
sg9
S'Army Mesh'
p2717
sg11
S'http://steamcommunity.com/market/priceoverview/?currency=13&appid=730&market_hash_name=Tec-9%20%7C%20Army%20Mesh%20%28Battle-Scarred%29'
p2718
sg13
S'Tec-9'
p2719
sg15
I382
sg16
F0.040000000000000001
sg17
g218
sg19
g383
sba(i__main__
skin
p2720
(dp2721
g6
I00
sg7
S'Safehouse'
p2722
sg8
F0.02
sg9
S'Army Recon'
p2723
sg11
S'http://steamcommunity.com/market/priceoverview/?currency=13&appid=730&market_hash_name=MP7%20%7C%20Army%20Recon%20%28Battle-Scarred%29'
p2724
sg13
S'MP7'
p2725
sg15
I0
sg16
F0.040000000000000001
sg17
g218
sg19
g383
sba(i__main__
skin
p2726
(dp2727
g6
I00
sg7
S'Safehouse'
p2728
sg8
F0.029999999999999999
sg9
S'Contractor'
p2729
sg11
S'http://steamcommunity.com/market/priceoverview/?currency=13&appid=730&market_hash_name=Dual Berettas%20%7C%20Contractor%20%28Battle-Scarred%29'
p2730
sg13
S'Dual Berettas'
p2731
sg15
I771
sg16
F0.040000000000000001
sg17
g218
sg19
g383
sbasS'Bravo'
p2732
(lp2733
(i__main__
skin
p2734
(dp2735
g6
I00
sg7
g2732
sg9
S'Tempest'
p2736
sg11
S'http://steamcommunity.com/market/priceoverview/?currency=13&appid=730&market_hash_name=Nova%20%7C%20Tempest%20%28Battle-Scarred%29'
p2737
sg13
S'Nova'
p2738
sg17
g218
sg19
g20
sba(i__main__
skin
p2739
(dp2740
g6
I00
sg7
S'Bravo'
p2741
sg8
F0.76000000000000001
sg9
S'Black Limba'
p2742
sg11
S'http://steamcommunity.com/market/priceoverview/?currency=13&appid=730&market_hash_name=Dual Berettas%20%7C%20Black%20Limba%20%28Battle-Scarred%29'
p2743
sg13
S'Dual Berettas'
p2744
sg15
I5
sg16
F0.75
sg17
g218
sg19
g20
sba(i__main__
skin
p2745
(dp2746
g6
I00
sg7
S'Bravo'
p2747
sg9
S'Bone Pile'
p2748
sg11
S'http://steamcommunity.com/market/priceoverview/?currency=13&appid=730&market_hash_name=UMP-45%20%7C%20Bone%20Pile%20%28Battle-Scarred%29'
p2749
sg13
S'UMP-45'
p2750
sg17
g218
sg19
g20
sba(i__main__
skin
p2751
(dp2752
g6
I00
sg7
S'Bravo'
p2753
sg8
F0.88
sg9
S'Wave Spray'
p2754
sg11
S'http://steamcommunity.com/market/priceoverview/?currency=13&appid=730&market_hash_name=SG 553%20%7C%20Wave%20Spray%20%28Battle-Scarred%29'
p2755
sg13
S'SG 553'
p2756
sg15
I11
sg16
F0.96999999999999997
sg17
g218
sg19
g20
sba(i__main__
skin
p2757
(dp2758
g6
I00
sg7
S'Bravo'
p2759
sg8
F0.76000000000000001
sg9
S'Shattered'
p2760
sg11
S'http://steamcommunity.com/market/priceoverview/?currency=13&appid=730&market_hash_name=Galil AR%20%7C%20Shattered%20%28Battle-Scarred%29'
p2761
sg13
S'Galil AR'
p2762
sg15
I4
sg16
F0.75
sg17
g218
sg19
g20
sba(i__main__
skin
p2763
(dp2764
g6
I00
sg7
S'Bravo'
p2765
sg8
F0.78000000000000003
sg9
S'Demeter'
p2766
sg11
S'http://steamcommunity.com/market/priceoverview/?currency=13&appid=730&market_hash_name=G3SG1%20%7C%20Demeter%20%28Battle-Scarred%29'
p2767
sg13
S'G3SG1'
p2768
sg15
I12
sg16
F0.76000000000000001
sg17
g218
sg19
g20
sba(i__main__
skin
p2769
(dp2770
g6
I00
sg7
S'Bravo'
p2771
sg9
S'Bright Water'
p2772
sg11
S'http://steamcommunity.com/market/priceoverview/?currency=13&appid=730&market_hash_name=M4A1-S%20%7C%20Bright%20Water%20%28Battle-Scarred%29'
p2773
sg13
S'M4A1-S'
p2774
sg17
g218
sg19
g57
sba(i__main__
skin
p2775
(dp2776
g6
I00
sg7
S'Bravo'
p2777
sg9
S'Zirka'
p2778
sg11
S'http://steamcommunity.com/market/priceoverview/?currency=13&appid=730&market_hash_name=M4A4%20%7C%20Zirka%20%28Battle-Scarred%29'
p2779
sg13
S'M4A4'
p2780
sg17
g218
sg19
g57
sba(i__main__
skin
p2781
(dp2782
g6
I00
sg7
S'Bravo'
p2783
sg8
F5.5
sg9
S'Graven'
p2784
sg11
S'http://steamcommunity.com/market/priceoverview/?currency=13&appid=730&market_hash_name=MAC-10%20%7C%20Graven%20%28Battle-Scarred%29'
p2785
sg13
S'MAC-10'
p2786
sg15
I1
sg16
F5.5499999999999998
sg17
g218
sg19
g57
sba(i__main__
skin
p2787
(dp2788
g6
I00
sg7
S'Bravo'
p2789
sg8
F4.96
sg9
S'Overgrowth'
p2790
sg11
S'http://steamcommunity.com/market/priceoverview/?currency=13&appid=730&market_hash_name=USP-S%20%7C%20Overgrowth%20%28Battle-Scarred%29'
p2791
sg13
S'USP-S'
p2792
sg15
I2
sg16
F5.1399999999999997
sg17
g218
sg19
g57
sba(i__main__
skin
p2793
(dp2794
g6
I00
sg7
S'Bravo'
p2795
sg8
I-1
sg9
S'Emerald Dragon'
p2796
sg11
S'http://steamcommunity.com/market/priceoverview/?currency=13&appid=730&market_hash_name=P90%20%7C%20Emerald%20Dragon%20%28Battle-Scarred%29'
p2797
sg13
S'P90'
p2798
sg15
I0
sg16
F44.560000000000002
sg17
g218
sg19
g82
sba(i__main__
skin
p2799
(dp2800
g6
I00
sg7
S'Bravo'
p2801
sg9
S'Ocean Foam'
p2802
sg11
S'http://steamcommunity.com/market/priceoverview/?currency=13&appid=730&market_hash_name=P2000%20%7C%20Ocean%20Foam%20%28Battle-Scarred%29'
p2803
sg13
S'P2000'
p2804
sg17
g218
sg19
g82
sba(i__main__
skin
p2805
(dp2806
g6
I00
sg7
S'Bravo'
p2807
sg9
S'Graphite'
p2808
sg11
S'http://steamcommunity.com/market/priceoverview/?currency=13&appid=730&market_hash_name=AWP%20%7C%20Graphite%20%28Battle-Scarred%29'
p2809
sg13
S'AWP'
p2810
sg17
g218
sg19
g82
sba(i__main__
skin
p2811
(dp2812
g6
I00
sg7
S'Bravo'
p2813
sg9
S'Golden Koi'
p2814
sg11
S'http://steamcommunity.com/market/priceoverview/?currency=13&appid=730&market_hash_name=Desert Eagle%20%7C%20Golden%20Koi%20%28Battle-Scarred%29'
p2815
sg13
S'Desert Eagle'
p2816
sg17
g218
sg19
g101
sba(i__main__
skin
p2817
(dp2818
g6
I00
sg7
S'Bravo'
p2819
sg8
F155.18000000000001
sg9
S'Fire Serpent'
p2820
sg11
S'http://steamcommunity.com/market/priceoverview/?currency=13&appid=730&market_hash_name=AK-47%20%7C%20Fire%20Serpent%20%28Battle-Scarred%29'
p2821
sg13
S'AK-47'
p2822
sg15
I3
sg16
F171.46000000000001
sg17
g218
sg19
g101
sbasS'Winter Offensive'
p2823
(lp2824
(i__main__
skin
p2825
(dp2826
g6
I00
sg7
g2823
sg9
S'Cobalt Halftone'
p2827
sg11
S'http://steamcommunity.com/market/priceoverview/?currency=13&appid=730&market_hash_name=PP-Bizon%20%7C%20Cobalt%20Halftone%20%28Battle-Scarred%29'
p2828
sg13
S'PP-Bizon'
p2829
sg17
g218
sg19
g20
sba(i__main__
skin
p2830
(dp2831
g6
I00
sg7
S'Winter Offensive'
p2832
sg8
F0.28000000000000003
sg9
S'Magma'
p2833
sg11
S'http://steamcommunity.com/market/priceoverview/?currency=13&appid=730&market_hash_name=M249%20%7C%20Magma%20%28Battle-Scarred%29'
p2834
sg13
S'M249'
p2835
sg15
I24
sg16
F0.26000000000000001
sg17
g218
sg19
g20
sba(i__main__
skin
p2836
(dp2837
g6
I00
sg7
S'Winter Offensive'
p2838
sg9
S'Kami'
p2839
sg11
S'http://steamcommunity.com/market/priceoverview/?currency=13&appid=730&market_hash_name=Five-SeveN%20%7C%20Kami%20%28Battle-Scarred%29'
p2840
sg13
S'Five-SeveN'
p2841
sg17
g218
sg19
g20
sba(i__main__
skin
p2842
(dp2843
g6
I00
sg7
S'Winter Offensive'
p2844
sg8
F0.40999999999999998
sg9
S'Sandstorm'
p2845
sg11
S'http://steamcommunity.com/market/priceoverview/?currency=13&appid=730&market_hash_name=Galil AR%20%7C%20Sandstorm%20%28Battle-Scarred%29'
p2846
sg13
S'Galil AR'
p2847
sg15
I35
sg16
F0.31
sg17
g218
sg19
g20
sba(i__main__
skin
p2848
(dp2849
g6
I00
sg7
S'Winter Offensive'
p2850
sg8
F1.4099999999999999
sg9
S'Rising Skull'
p2851
sg11
S'http://steamcommunity.com/market/priceoverview/?currency=13&appid=730&market_hash_name=Nova%20%7C%20Rising%20Skull%20%28Battle-Scarred%29'
p2852
sg13
S'Nova'
p2853
sg15
I1
sg16
F1.6899999999999999
sg17
g218
sg19
g57
sba(i__main__
skin
p2854
(dp2855
g6
I00
sg7
S'Winter Offensive'
p2856
sg9
S'Rose Iron'
p2857
sg11
S'http://steamcommunity.com/market/priceoverview/?currency=13&appid=730&market_hash_name=MP9%20%7C%20Rose%20Iron%20%28Battle-Scarred%29'
p2858
sg13
S'MP9'
p2859
sg17
g218
sg19
g57
sba(i__main__
skin
p2860
(dp2861
g6
I00
sg7
S'Winter Offensive'
p2862
sg8
F0.059999999999999998
sg9
S'Marina'
p2863
sg11
S'http://steamcommunity.com/market/priceoverview/?currency=13&appid=730&market_hash_name=Dual Berettas%20%7C%20Marina%20%28Battle-Scarred%29'
p2864
sg13
S'Dual Berettas'
p2865
sg15
I3
sg16
F1.47
sg17
g218
sg19
g57
sba(i__main__
skin
p2866
(dp2867
g6
I00
sg7
S'Winter Offensive'
p2868
sg9
S'Pulse'
p2869
sg11
S'http://steamcommunity.com/market/priceoverview/?currency=13&appid=730&market_hash_name=FAMAS%20%7C%20Pulse%20%28Battle-Scarred%29'
p2870
sg13
S'FAMAS'
p2871
sg17
g218
sg19
g57
sba(i__main__
skin
p2872
(dp2873
g6
I00
sg7
S'Winter Offensive'
p2874
sg9
S'Redline'
p2875
sg11
S'http://steamcommunity.com/market/priceoverview/?currency=13&appid=730&market_hash_name=AWP%20%7C%20Redline%20%28Battle-Scarred%29'
p2876
sg13
S'AWP'
p2877
sg17
g218
sg19
g82
sba(i__main__
skin
p2878
(dp2879
g6
I00
sg7
S'Winter Offensive'
p2880
sg8
F5.5700000000000003
sg9
S'Mehndi'
p2881
sg11
S'http://steamcommunity.com/market/priceoverview/?currency=13&appid=730&market_hash_name=P250%20%7C%20Mehndi%20%28Battle-Scarred%29'
p2882
sg13
S'P250'
p2883
sg15
I9
sg16
F5.3799999999999999
sg17
g218
sg19
g82
sba(i__main__
skin
p2884
(dp2885
g6
I00
sg7
S'Winter Offensive'
p2886
sg8
F7.4500000000000002
sg9
S'Guardian'
p2887
sg11
S'http://steamcommunity.com/market/priceoverview/?currency=13&appid=730&market_hash_name=M4A1-S%20%7C%20Guardian%20%28Battle-Scarred%29'
p2888
sg13
S'M4A1-S'
p2889
sg15
I4
sg16
F7.3099999999999996
sg17
g218
sg19
g82
sba(i__main__
skin
p2890
(dp2891
g6
I00
sg7
S'Winter Offensive'
p2892
sg9
S'The Kraken'
p2893
sg11
S'http://steamcommunity.com/market/priceoverview/?currency=13&appid=730&market_hash_name=Sawed-Off%20%7C%20The%20Kraken%20%28Battle-Scarred%29'
p2894
sg13
S'Sawed-Off'
p2895
sg17
g218
sg19
g101
sba(i__main__
skin
p2896
(dp2897
g6
I00
sg7
S'Winter Offensive'
p2898
sg8
F19.640000000000001
sg9
S'Asiimov'
p2899
sg11
S'http://steamcommunity.com/market/priceoverview/?currency=13&appid=730&market_hash_name=M4A4%20%7C%20Asiimov%20%28Battle-Scarred%29'
p2900
sg13
S'M4A4'
p2901
sg15
I195
sg16
F18.879999999999999
sg17
g218
sg19
g101
sbasS'Falchion Case'
p2902
(lp2903
(i__main__
skin
p2904
(dp2905
g6
I00
sg7
g2902
sg8
F0.10000000000000001
sg9
S'Rocket Pop'
p2906
sg11
S'http://steamcommunity.com/market/priceoverview/?currency=13&appid=730&market_hash_name=Galil AR%20%7C%20Rocket%20Pop%20%28Battle-Scarred%29'
p2907
sg13
S'Galil AR'
p2908
sg15
I371
sg16
F0.12
sg17
g218
sg19
g20
sba(i__main__
skin
p2909
(dp2910
g6
I00
sg7
S'Falchion Case'
p2911
sg8
F0.16
sg9
S'Bunsen Burner'
p2912
sg11
S'http://steamcommunity.com/market/priceoverview/?currency=13&appid=730&market_hash_name=Glock-18%20%7C%20Bunsen%20Burner%20%28Battle-Scarred%29'
p2913
sg13
S'Glock-18'
p2914
sg15
I678
sg16
F0.14999999999999999
sg17
g218
sg19
g20
sba(i__main__
skin
p2915
(dp2916
g6
I00
sg7
S'Falchion Case'
p2917
sg8
F0.10000000000000001
sg9
S'Ranger'
p2918
sg11
S'http://steamcommunity.com/market/priceoverview/?currency=13&appid=730&market_hash_name=Nova%20%7C%20Ranger%20%28Battle-Scarred%29'
p2919
sg13
S'Nova'
p2920
sg15
I292
sg16
F0.12
sg17
g218
sg19
g20
sba(i__main__
skin
p2921
(dp2922
g6
I00
sg7
S'Falchion Case'
p2923
sg8
F0.11
sg9
S'Elite Build'
p2924
sg11
S'http://steamcommunity.com/market/priceoverview/?currency=13&appid=730&market_hash_name=P90%20%7C%20Elite%20Build%20%28Battle-Scarred%29'
p2925
sg13
S'P90'
p2926
sg15
I477
sg16
F0.12
sg17
g218
sg19
g20
sba(i__main__
skin
p2927
(dp2928
g6
I00
sg7
S'Falchion Case'
p2929
sg8
F0.10000000000000001
sg9
S'Riot'
p2930
sg11
S'http://steamcommunity.com/market/priceoverview/?currency=13&appid=730&market_hash_name=UMP-45%20%7C%20Riot%20%28Battle-Scarred%29'
p2931
sg13
S'UMP-45'
p2932
sg15
I243
sg16
F0.13
sg17
g218
sg19
g20
sba(i__main__
skin
p2933
(dp2934
g6
I00
sg7
S'Falchion Case'
p2935
sg8
F0.44
sg9
S'Torque'
p2936
sg11
S'http://steamcommunity.com/market/priceoverview/?currency=13&appid=730&market_hash_name=USP-S%20%7C%20Torque%20%28Battle-Scarred%29'
p2937
sg13
S'USP-S'
p2938
sg15
I62
sg16
F0.42999999999999999
sg17
g218
sg19
g20
sba(i__main__
skin
p2939
(dp2940
g6
I00
sg7
S'Falchion Case'
p2941
sg8
F0.41999999999999998
sg9
S'Neural Net'
p2942
sg11
S'http://steamcommunity.com/market/priceoverview/?currency=13&appid=730&market_hash_name=FAMAS%20%7C%20Neural%20Net%20%28Battle-Scarred%29'
p2943
sg13
S'FAMAS'
p2944
sg15
I89
sg16
F0.41999999999999998
sg17
g218
sg19
g57
sba(i__main__
skin
p2945
(dp2946
g6
I00
sg7
S'Falchion Case'
p2947
sg8
F0.95999999999999996
sg9
S'Evil Daimyo'
p2948
sg11
S'http://steamcommunity.com/market/priceoverview/?currency=13&appid=730&market_hash_name=M4A4%20%7C%20Evil%20Daimyo%20%28Battle-Scarred%29'
p2949
sg13
S'M4A4'
p2950
sg15
I107
sg16
F0.94999999999999996
sg17
g218
sg19
g57
sba(i__main__
skin
p2951
(dp2952
g6
I00
sg7
S'Falchion Case'
p2953
sg8
F0.54000000000000004
sg9
S'Ruby Poison Dart'
p2954
sg11
S'http://steamcommunity.com/market/priceoverview/?currency=13&appid=730&market_hash_name=MP9%20%7C%20Ruby%20Poison%20Dart%20%28Battle-Scarred%29'
p2955
sg13
S'MP9'
p2956
sg15
I48
sg16
F0.53000000000000003
sg17
g218
sg19
g57
sba(i__main__
skin
p2957
(dp2958
g6
I00
sg7
S'Falchion Case'
p2959
sg8
F0.38
sg9
S'Loudmouth'
p2960
sg11
S'http://steamcommunity.com/market/priceoverview/?currency=13&appid=730&market_hash_name=Negev%20%7C%20Loudmouth%20%28Battle-Scarred%29'
p2961
sg13
S'Negev'
p2962
sg15
I102
sg16
F0.40999999999999998
sg17
g218
sg19
g57
sba(i__main__
skin
p2963
(dp2964
g6
I00
sg7
S'Falchion Case'
p2965
sg8
F0.41999999999999998
sg9
S'Handgun'
p2966
sg11
S'http://steamcommunity.com/market/priceoverview/?currency=13&appid=730&market_hash_name=P2000%20%7C%20Handgun%20%28Battle-Scarred%29'
p2967
sg13
S'P2000'
p2968
sg15
I226
sg16
F0.41999999999999998
sg17
g218
sg19
g57
sba(i__main__
skin
p2969
(dp2970
g6
I00
sg7
S'Falchion Case'
p2971
sg8
F3.2799999999999998
sg9
S'Yellow Jacket'
p2972
sg11
S'http://steamcommunity.com/market/priceoverview/?currency=13&appid=730&market_hash_name=CZ75-Auto%20%7C%20Yellow%20Jacket%20%28Battle-Scarred%29'
p2973
sg13
S'CZ75-Auto'
p2974
sg15
I80
sg16
F3.1299999999999999
sg17
g218
sg19
g82
sba(i__main__
skin
p2975
(dp2976
g6
I00
sg7
S'Falchion Case'
p2977
sg9
S'Nemesis'
p2978
sg11
S'http://steamcommunity.com/market/priceoverview/?currency=13&appid=730&market_hash_name=MP7%20%7C%20Nemesis%20%28Battle-Scarred%29'
p2979
sg13
S'MP7'
p2980
sg17
g218
sg19
g82
sba(i__main__
skin
p2981
(dp2982
g6
I00
sg7
S'Falchion Case'
p2983
sg8
F2.8799999999999999
sg9
S'Cyrex'
p2984
sg11
S'http://steamcommunity.com/market/priceoverview/?currency=13&appid=730&market_hash_name=SG 553%20%7C%20Cyrex%20%28Battle-Scarred%29'
p2985
sg13
S'SG 553'
p2986
sg15
I84
sg16
F3.25
sg17
g218
sg19
g82
sba(i__main__
skin
p2987
(dp2988
g6
I00
sg7
S'Falchion Case'
p2989
sg8
F14.6
sg9
S'Aquamarine Revenge'
p2990
sg11
S'http://steamcommunity.com/market/priceoverview/?currency=13&appid=730&market_hash_name=AK-47%20%7C%20Aquamarine%20Revenge%20%28Battle-Scarred%29'
p2991
sg13
S'AK-47'
p2992
sg15
I228
sg16
F13.050000000000001
sg17
g218
sg19
g101
sba(i__main__
skin
p2993
(dp2994
g6
I00
sg7
S'Falchion Case'
p2995
sg8
F17.02
sg9
S'Hyper Beast'
p2996
sg11
S'http://steamcommunity.com/market/priceoverview/?currency=13&appid=730&market_hash_name=AWP%20%7C%20Hyper%20Beast%20%28Battle-Scarred%29'
p2997
sg13
S'AWP'
p2998
sg15
I147
sg16
F17.68
sg17
g218
sg19
g101
sbasS'eSports 2013 Winter'
p2999
(lp3000
(i__main__
skin
p3001
(dp3002
g6
I00
sg7
g2999
sg9
S'Blue Titanium'
p3003
sg11
S'http://steamcommunity.com/market/priceoverview/?currency=13&appid=730&market_hash_name=Galil AR%20%7C%20Blue%20Titanium%20%28Battle-Scarred%29'
p3004
sg13
S'Galil AR'
p3005
sg17
g218
sg19
g20
sba(i__main__
skin
p3006
(dp3007
g6
I00
sg7
S'eSports 2013 Winter'
p3008
sg8
F0.72999999999999998
sg9
S'Nightshade'
p3009
sg11
S'http://steamcommunity.com/market/priceoverview/?currency=13&appid=730&market_hash_name=Five-SeveN%20%7C%20Nightshade%20%28Battle-Scarred%29'
p3010
sg13
S'Five-SeveN'
p3011
sg15
I4
sg16
F0.71999999999999997
sg17
g218
sg19
g20
sba(i__main__
skin
p3012
(dp3013
g6
I00
sg7
S'eSports 2013 Winter'
p3014
sg8
F0.46999999999999997
sg9
S'Water Sigil'
p3015
sg11
S'http://steamcommunity.com/market/priceoverview/?currency=13&appid=730&market_hash_name=PP-Bizon%20%7C%20Water%20Sigil%20%28Battle-Scarred%29'
p3016
sg13
S'PP-Bizon'
p3017
sg15
I5
sg16
F0.42999999999999999
sg17
g218
sg19
g20
sba(i__main__
skin
p3018
(dp3019
g6
I00
sg7
S'eSports 2013 Winter'
p3020
sg9
S'Ghost Camo'
p3021
sg11
S'http://steamcommunity.com/market/priceoverview/?currency=13&appid=730&market_hash_name=Nova%20%7C%20Ghost%20Camo%20%28Battle-Scarred%29'
p3022
sg13
S'Nova'
p3023
sg17
g218
sg19
g20
sba(i__main__
skin
p3024
(dp3025
g6
I00
sg7
S'eSports 2013 Winter'
p3026
sg9
S'Azure Zebra'
p3027
sg11
S'http://steamcommunity.com/market/priceoverview/?currency=13&appid=730&market_hash_name=G3SG1%20%7C%20Azure%20Zebra%20%28Battle-Scarred%29'
p3028
sg13
S'G3SG1'
p3029
sg17
g218
sg19
g20
sba(i__main__
skin
p3030
(dp3031
g6
I00
sg7
S'eSports 2013 Winter'
p3032
sg9
S'Steel Disruption'
p3033
sg11
S'http://steamcommunity.com/market/priceoverview/?currency=13&appid=730&market_hash_name=P250%20%7C%20Steel%20Disruption%20%28Battle-Scarred%29'
p3034
sg13
S'P250'
p3035
sg17
g218
sg19
g20
sba(i__main__
skin
p3036
(dp3037
g6
I00
sg7
S'eSports 2013 Winter'
p3038
sg9
S'Blue Laminate'
p3039
sg11
S'http://steamcommunity.com/market/priceoverview/?currency=13&appid=730&market_hash_name=AK-47%20%7C%20Blue%20Laminate%20%28Battle-Scarred%29'
p3040
sg13
S'AK-47'
p3041
sg17
g218
sg19
g57
sba(i__main__
skin
p3042
(dp3043
g6
I00
sg7
S'eSports 2013 Winter'
p3044
sg8
F1.26
sg9
S'Blind Spot'
p3045
sg11
S'http://steamcommunity.com/market/priceoverview/?currency=13&appid=730&market_hash_name=P90%20%7C%20Blind%20Spot%20%28Battle-Scarred%29'
p3046
sg13
S'P90'
p3047
sg15
I1
sg16
F1.29
sg17
g218
sg19
g57
sba(i__main__
skin
p3048
(dp3049
g6
I00
sg7
S'eSports 2013 Winter'
p3050
sg9
S'Afterimage'
p3051
sg11
S'http://steamcommunity.com/market/priceoverview/?currency=13&appid=730&market_hash_name=FAMAS%20%7C%20Afterimage%20%28Battle-Scarred%29'
p3052
sg13
S'FAMAS'
p3053
sg17
g218
sg19
g82
sba(i__main__
skin
p3054
(dp3055
g6
I00
sg7
S'eSports 2013 Winter'
p3056
sg9
S'Electric Hive'
p3057
sg11
S'http://steamcommunity.com/market/priceoverview/?currency=13&appid=730&market_hash_name=AWP%20%7C%20Electric%20Hive%20%28Battle-Scarred%29'
p3058
sg13
S'AWP'
p3059
sg17
g218
sg19
g82
sba(i__main__
skin
p3060
(dp3061
g6
I00
sg7
S'eSports 2013 Winter'
p3062
sg9
S'Cobalt Disruption'
p3063
sg11
S'http://steamcommunity.com/market/priceoverview/?currency=13&appid=730&market_hash_name=Desert Eagle%20%7C%20Cobalt%20Disruption%20%28Battle-Scarred%29'
p3064
sg13
S'Desert Eagle'
p3065
sg17
g218
sg19
g82
sba(i__main__
skin
p3066
(dp3067
g6
I00
sg7
S'eSports 2013 Winter'
p3068
sg9
S'X-Ray'
p3069
sg11
S'http://steamcommunity.com/market/priceoverview/?currency=13&appid=730&market_hash_name=M4A4%20%7C%20X-Ray%20%28Battle-Scarred%29'
p3070
sg13
S'M4A4'
p3071
sg17
g218
sg19
g101
sbasS'Chop Shop'
p3072
(lp3073
(i__main__
skin
p3074
(dp3075
g6
I00
sg7
g3072
sg8
I-1
sg9
S'Duelist'
p3076
sg11
S'http://steamcommunity.com/market/priceoverview/?currency=13&appid=730&market_hash_name=Dual Berettas%20%7C%20Duelist%20%28Battle-Scarred%29'
p3077
sg13
S'Dual Berettas'
p3078
sg15
I0
sg16
F32.5
sg17
g218
sg19
g57
sba(i__main__
skin
p3079
(dp3080
g6
I00
sg7
S'Chop Shop'
p3081
sg9
S'Twilight Galaxy'
p3082
sg11
S'http://steamcommunity.com/market/priceoverview/?currency=13&appid=730&market_hash_name=Glock-18%20%7C%20Twilight%20Galaxy%20%28Battle-Scarred%29'
p3083
sg13
S'Glock-18'
p3084
sg17
g218
sg19
g82
sba(i__main__
skin
p3085
(dp3086
g6
I00
sg7
S'Chop Shop'
p3087
sg9
S'Hot Rod'
p3088
sg11
S'http://steamcommunity.com/market/priceoverview/?currency=13&appid=730&market_hash_name=M4A1-S%20%7C%20Hot%20Rod%20%28Battle-Scarred%29'
p3089
sg13
S'M4A1-S'
p3090
sg17
g218
sg19
g82
sba(i__main__
skin
p3091
(dp3092
g6
I00
sg7
S'Chop Shop'
p3093
sg8
F13.59
sg9
S'Bulldozer'
p3094
sg11
S'http://steamcommunity.com/market/priceoverview/?currency=13&appid=730&market_hash_name=SG 553%20%7C%20Bulldozer%20%28Battle-Scarred%29'
p3095
sg13
S'SG 553'
p3096
sg15
I1
sg16
F22.170000000000002
sg17
g218
sg19
g57
sba(i__main__
skin
p3097
(dp3098
g6
I00
sg7
S'Chop Shop'
p3099
sg9
S'Emerald'
p3100
sg11
S'http://steamcommunity.com/market/priceoverview/?currency=13&appid=730&market_hash_name=CZ75-Auto%20%7C%20Emerald%20%28Battle-Scarred%29'
p3101
sg13
S'CZ75-Auto'
p3102
sg17
g218
sg19
g20
sba(i__main__
skin
p3103
(dp3104
g6
I00
sg7
S'Chop Shop'
p3105
sg8
I-1
sg9
S'Nitro'
p3106
sg11
S'http://steamcommunity.com/market/priceoverview/?currency=13&appid=730&market_hash_name=Five-SeveN%20%7C%20Nitro%20%28Battle-Scarred%29'
p3107
sg13
S'Five-SeveN'
p3108
sg15
I0
sg16
F6.2199999999999998
sg17
g218
sg19
g20
sba(i__main__
skin
p3109
(dp3110
g6
I00
sg7
S'Chop Shop'
p3111
sg8
I-1
sg9
S'Full Stop'
p3112
sg11
S'http://steamcommunity.com/market/priceoverview/?currency=13&appid=730&market_hash_name=MP7%20%7C%20Full%20Stop%20%28Battle-Scarred%29'
p3113
sg13
S'MP7'
p3114
sg15
I0
sg16
F3.52
sg17
g218
sg19
g20
sba(i__main__
skin
p3115
(dp3116
g6
I00
sg7
S'Chop Shop'
p3117
sg8
F4.54
sg9
S'Whiteout'
p3118
sg11
S'http://steamcommunity.com/market/priceoverview/?currency=13&appid=730&market_hash_name=P250%20%7C%20Whiteout%20%28Battle-Scarred%29'
p3119
sg13
S'P250'
p3120
sg15
I3
sg16
F4.5599999999999996
sg17
g218
sg19
g20
sba(i__main__
skin
p3121
(dp3122
g6
I00
sg7
S'Chop Shop'
p3123
sg9
S'Fade'
p3124
sg11
S'http://steamcommunity.com/market/priceoverview/?currency=13&appid=730&market_hash_name=MAC-10%20%7C%20Fade%20%28Battle-Scarred%29'
p3125
sg13
S'MAC-10'
p3126
sg17
g218
sg19
g20
sba(i__main__
skin
p3127
(dp3128
g6
I00
sg7
S'Chop Shop'
p3129
sg8
F0.76000000000000001
sg9
S'Para Green'
p3130
sg11
S'http://steamcommunity.com/market/priceoverview/?currency=13&appid=730&market_hash_name=USP-S%20%7C%20Para%20Green%20%28Battle-Scarred%29'
p3131
sg13
S'USP-S'
p3132
sg15
I15
sg16
F0.80000000000000004
sg17
g218
sg19
g346
sba(i__main__
skin
p3133
(dp3134
g6
I00
sg7
S'Chop Shop'
p3135
sg8
F0.79000000000000004
sg9
S'Urban Rubble'
p3136
sg11
S'http://steamcommunity.com/market/priceoverview/?currency=13&appid=730&market_hash_name=Galil AR%20%7C%20Urban%20Rubble%20%28Battle-Scarred%29'
p3137
sg13
S'Galil AR'
p3138
sg15
I5
sg16
F0.81999999999999995
sg17
g218
sg19
g346
sba(i__main__
skin
p3139
(dp3140
g6
I00
sg7
S'Chop Shop'
p3141
sg8
F0.68999999999999995
sg9
S'Night'
p3142
sg11
S'http://steamcommunity.com/market/priceoverview/?currency=13&appid=730&market_hash_name=Desert Eagle%20%7C%20Night%20%28Battle-Scarred%29'
p3143
sg13
S'Desert Eagle'
p3144
sg15
I33
sg16
F0.80000000000000004
sg17
g218
sg19
g346
sba(i__main__
skin
p3145
(dp3146
g6
I00
sg7
S'Chop Shop'
p3147
sg8
F0.10000000000000001
sg9
S'Seabird'
p3148
sg11
S'http://steamcommunity.com/market/priceoverview/?currency=13&appid=730&market_hash_name=MAG-7%20%7C%20Seabird%20%28Battle-Scarred%29'
p3149
sg13
S'MAG-7'
p3150
sg15
I19
sg16
F0.14000000000000001
sg17
g218
sg19
g383
sba(i__main__
skin
p3151
(dp3152
g6
I00
sg7
S'Chop Shop'
p3153
sg8
F0.14000000000000001
sg9
S'Impact Drill'
p3154
sg11
S'http://steamcommunity.com/market/priceoverview/?currency=13&appid=730&market_hash_name=M249%20%7C%20Impact%20Drill%20%28Battle-Scarred%29'
p3155
sg13
S'M249'
p3156
sg15
I27
sg16
F0.14000000000000001
sg17
g218
sg19
g383
sba(i__main__
skin
p3157
(dp3158
g6
I00
sg7
S'Chop Shop'
p3159
sg9
S'Army Sheen'
p3160
sg11
S'http://steamcommunity.com/market/priceoverview/?currency=13&appid=730&market_hash_name=CZ75-Auto%20%7C%20Army%20Sheen%20%28Battle-Scarred%29'
p3161
sg13
S'CZ75-Auto'
p3162
sg17
g218
sg19
g383
sba(i__main__
skin
p3163
(dp3164
g6
I00
sg7
S'Chop Shop'
p3165
sg9
S'Army Sheen'
p3166
sg11
S'http://steamcommunity.com/market/priceoverview/?currency=13&appid=730&market_hash_name=SCAR-20%20%7C%20Army%20Sheen%20%28Battle-Scarred%29'
p3167
sg13
S'SCAR-20'
p3168
sg17
g218
sg19
g383
sbasS'Mirage'
p3169
(lp3170
(i__main__
skin
p3171
(dp3172
g6
I00
sg7
g3169
sg8
F0.62
sg9
S'Bulldozer'
p3173
sg11
S'http://steamcommunity.com/market/priceoverview/?currency=13&appid=730&market_hash_name=MAG-7%20%7C%20Bulldozer%20%28Battle-Scarred%29'
p3174
sg13
S'MAG-7'
p3175
sg15
I16
sg16
F0.62
sg17
g218
sg19
g57
sba(i__main__
skin
p3176
(dp3177
g6
I00
sg7
S'Mirage'
p3178
sg9
S'Amber Fade'
p3179
sg11
S'http://steamcommunity.com/market/priceoverview/?currency=13&appid=730&market_hash_name=MAC-10%20%7C%20Amber%20Fade%20%28Battle-Scarred%29'
p3180
sg13
S'MAC-10'
p3181
sg17
g218
sg19
g20
sba(i__main__
skin
p3182
(dp3183
g6
I00
sg7
S'Mirage'
p3184
sg9
S'Blaze'
p3185
sg11
S'http://steamcommunity.com/market/priceoverview/?currency=13&appid=730&market_hash_name=UMP-45%20%7C%20Blaze%20%28Battle-Scarred%29'
p3186
sg13
S'UMP-45'
p3187
sg17
g218
sg19
g20
sba(i__main__
skin
p3188
(dp3189
g6
I00
sg7
S'Mirage'
p3190
sg9
S'Hot Rod'
p3191
sg11
S'http://steamcommunity.com/market/priceoverview/?currency=13&appid=730&market_hash_name=MP9%20%7C%20Hot%20Rod%20%28Battle-Scarred%29'
p3192
sg13
S'MP9'
p3193
sg17
g218
sg19
g20
sba(i__main__
skin
p3194
(dp3195
g6
I00
sg7
S'Mirage'
p3196
sg8
F1.02
sg9
S'CaliCamo'
p3197
sg11
S'http://steamcommunity.com/market/priceoverview/?currency=13&appid=730&market_hash_name=Negev%20%7C%20CaliCamo%20%28Battle-Scarred%29'
p3198
sg13
S'Negev'
p3199
sg15
I3
sg16
F1.01
sg17
g218
sg19
g346
sba(i__main__
skin
p3200
(dp3201
g6
I00
sg7
S'Mirage'
p3202
sg8
F0.83999999999999997
sg9
S'Tropical Storm'
p3203
sg11
S'http://steamcommunity.com/market/priceoverview/?currency=13&appid=730&market_hash_name=SSG 08%20%7C%20Tropical%20Storm%20%28Battle-Scarred%29'
p3204
sg13
S'SSG 08'
p3205
sg15
I15
sg16
F0.85999999999999999
sg17
g218
sg19
g346
sba(i__main__
skin
p3206
(dp3207
g6
I00
sg7
S'Mirage'
p3208
sg8
F0.83999999999999997
sg9
S'Gator Mesh'
p3209
sg11
S'http://steamcommunity.com/market/priceoverview/?currency=13&appid=730&market_hash_name=SG 553%20%7C%20Gator%20Mesh%20%28Battle-Scarred%29'
p3210
sg13
S'SG 553'
p3211
sg15
I5
sg16
F0.81999999999999995
sg17
g218
sg19
g346
sba(i__main__
skin
p3212
(dp3213
g6
I00
sg7
S'Mirage'
p3214
sg8
F0.72999999999999998
sg9
S'Groundwater'
p3215
sg11
S'http://steamcommunity.com/market/priceoverview/?currency=13&appid=730&market_hash_name=Glock-18%20%7C%20Groundwater%20%28Battle-Scarred%29'
p3216
sg13
S'Glock-18'
p3217
sg15
I17
sg16
F0.78000000000000003
sg17
g218
sg19
g346
sba(i__main__
skin
p3218
(dp3219
g6
I00
sg7
S'Mirage'
p3220
sg8
F0.78000000000000003
sg9
S'Orange Peel'
p3221
sg11
S'http://steamcommunity.com/market/priceoverview/?currency=13&appid=730&market_hash_name=MP7%20%7C%20Orange%20Peel%20%28Battle-Scarred%29'
p3222
sg13
S'MP7'
p3223
sg15
I1
sg16
F0.76000000000000001
sg17
g218
sg19
g346
sba(i__main__
skin
p3224
(dp3225
g6
I00
sg7
S'Mirage'
p3226
sg8
F0.13
sg9
S'Bone Mask'
p3227
sg11
S'http://steamcommunity.com/market/priceoverview/?currency=13&appid=730&market_hash_name=P250%20%7C%20Bone%20Mask%20%28Battle-Scarred%29'
p3228
sg13
S'P250'
p3229
sg15
I18
sg16
F0.12
sg17
g218
sg19
g383
sba(i__main__
skin
p3230
(dp3231
g6
I00
sg7
S'Mirage'
p3232
sg8
F0.34999999999999998
sg9
S'Contractor'
p3233
sg11
S'http://steamcommunity.com/market/priceoverview/?currency=13&appid=730&market_hash_name=Five-SeveN%20%7C%20Contractor%20%28Battle-Scarred%29'
p3234
sg13
S'Five-SeveN'
p3235
sg15
I26
sg16
F0.40000000000000002
sg17
g218
sg19
g383
sba(i__main__
skin
p3236
(dp3237
g6
I00
sg7
S'Mirage'
p3238
sg8
F0.089999999999999997
sg9
S'Colony'
p3239
sg11
S'http://steamcommunity.com/market/priceoverview/?currency=13&appid=730&market_hash_name=AUG%20%7C%20Colony%20%28Battle-Scarred%29'
p3240
sg13
S'AUG'
p3241
sg15
I14
sg16
F0.10000000000000001
sg17
g218
sg19
g383
sba(i__main__
skin
p3242
(dp3243
g6
I00
sg7
S'Mirage'
p3244
sg8
F0.22
sg9
S'Safari Mesh'
p3245
sg11
S'http://steamcommunity.com/market/priceoverview/?currency=13&appid=730&market_hash_name=G3SG1%20%7C%20Safari%20Mesh%20%28Battle-Scarred%29'
p3246
sg13
S'G3SG1'
p3247
sg15
I14
sg16
F0.23000000000000001
sg17
g218
sg19
g383
sba(i__main__
skin
p3248
(dp3249
g6
I00
sg7
S'Mirage'
p3250
sg8
F0.28000000000000003
sg9
S'Scorched'
p3251
sg11
S'http://steamcommunity.com/market/priceoverview/?currency=13&appid=730&market_hash_name=P90%20%7C%20Scorched%20%28Battle-Scarred%29'
p3252
sg13
S'P90'
p3253
sg15
I25
sg16
F0.28000000000000003
sg17
g218
sg19
g383
sba(i__main__
skin
p3254
(dp3255
g6
I00
sg7
S'Mirage'
p3256
sg8
F0.29999999999999999
sg9
S'Hunting Blind'
p3257
sg11
S'http://steamcommunity.com/market/priceoverview/?currency=13&appid=730&market_hash_name=Galil AR%20%7C%20Hunting%20Blind%20%28Battle-Scarred%29'
p3258
sg13
S'Galil AR'
p3259
sg15
I19
sg16
F0.29999999999999999
sg17
g218
sg19
g383
sbasS'Nuke'
p3260
(lp3261
(i__main__
skin
p3262
(dp3263
g6
I00
sg7
g3260
sg8
F11.35
sg9
S'Nuclear Threat'
p3264
sg11
S'http://steamcommunity.com/market/priceoverview/?currency=13&appid=730&market_hash_name=Tec-9%20%7C%20Nuclear%20Threat%20%28Battle-Scarred%29'
p3265
sg13
S'Tec-9'
p3266
sg15
I5
sg16
F11.449999999999999
sg17
g218
sg19
g57
sba(i__main__
skin
p3267
(dp3268
g6
I00
sg7
S'Nuke'
p3269
sg8
F3.5099999999999998
sg9
S'Nuclear Threat'
p3270
sg11
S'http://steamcommunity.com/market/priceoverview/?currency=13&appid=730&market_hash_name=P250%20%7C%20Nuclear%20Threat%20%28Battle-Scarred%29'
p3271
sg13
S'P250'
p3272
sg15
I3
sg16
F4.2800000000000002
sg17
g218
sg19
g57
sba(i__main__
skin
p3273
(dp3274
g6
I00
sg7
S'Nuke'
p3275
sg8
I-1
sg9
S'Radiation Hazard'
p3276
sg11
S'http://steamcommunity.com/market/priceoverview/?currency=13&appid=730&market_hash_name=M4A4%20%7C%20Radiation%20Hazard%20%28Battle-Scarred%29'
p3277
sg13
S'M4A4'
p3278
sg15
I0
sg16
F5.9500000000000002
sg17
g218
sg19
g20
sba(i__main__
skin
p3279
(dp3280
g6
I00
sg7
S'Nuke'
p3281
sg8
F1.96
sg9
S'Fallout Warning'
p3282
sg11
S'http://steamcommunity.com/market/priceoverview/?currency=13&appid=730&market_hash_name=XM1014%20%7C%20Fallout%20Warning%20%28Battle-Scarred%29'
p3283
sg13
S'XM1014'
p3284
sg15
I1
sg16
F1.77
sg17
g218
sg19
g346
sba(i__main__
skin
p3285
(dp3286
g6
I00
sg7
S'Nuke'
p3287
sg8
F1.26
sg9
S'Fallout Warning'
p3288
sg11
S'http://steamcommunity.com/market/priceoverview/?currency=13&appid=730&market_hash_name=UMP-45%20%7C%20Fallout%20Warning%20%28Battle-Scarred%29'
p3289
sg13
S'UMP-45'
p3290
sg15
I6
sg16
F1.47
sg17
g218
sg19
g346
sba(i__main__
skin
p3291
(dp3292
g6
I00
sg7
S'Nuke'
p3293
sg8
F1.4299999999999999
sg9
S'Fallout Warning'
p3294
sg11
S'http://steamcommunity.com/market/priceoverview/?currency=13&appid=730&market_hash_name=P90%20%7C%20Fallout%20Warning%20%28Battle-Scarred%29'
p3295
sg13
S'P90'
p3296
sg15
I13
sg16
F1.47
sg17
g218
sg19
g346
sba(i__main__
skin
p3297
(dp3298
g6
I00
sg7
S'Nuke'
p3299
sg8
F0.33000000000000002
sg9
S'Irradiated Alert'
p3300
sg11
S'http://steamcommunity.com/market/priceoverview/?currency=13&appid=730&market_hash_name=PP-Bizon%20%7C%20Irradiated%20Alert%20%28Battle-Scarred%29'
p3301
sg13
S'PP-Bizon'
p3302
sg15
I7
sg16
F0.35999999999999999
sg17
g218
sg19
g383
sba(i__main__
skin
p3303
(dp3304
g6
I00
sg7
S'Nuke'
p3305
sg8
F0.31
sg9
S'Irradiated Alert'
p3306
sg11
S'http://steamcommunity.com/market/priceoverview/?currency=13&appid=730&market_hash_name=Sawed-Off%20%7C%20Irradiated%20Alert%20%28Battle-Scarred%29'
p3307
sg13
S'Sawed-Off'
p3308
sg15
I11
sg16
F0.35999999999999999
sg17
g218
sg19
g383
sba(i__main__
skin
p3309
(dp3310
g6
I00
sg7
S'Nuke'
p3311
sg8
F0.34000000000000002
sg9
S'Irradiated Alert'
p3312
sg11
S'http://steamcommunity.com/market/priceoverview/?currency=13&appid=730&market_hash_name=MAG-7%20%7C%20Irradiated%20Alert%20%28Battle-Scarred%29'
p3313
sg13
S'MAG-7'
p3314
sg15
I13
sg16
F0.35999999999999999
sg17
g218
sg19
g383
sbas.