(dp1
S'Chroma 2'
p2
(lp3
(i__main__
skin
p4
(dp5
S'statTrak'
p6
I00
sS'case'
p7
g2
sS'priceMed'
p8
F0.57999999999999996
sS'name'
p9
S'Elite Build'
p10
sS'url'
p11
S'http://steamcommunity.com/market/priceoverview/?currency=13&appid=730&market_hash_name=AK-47%20%7C%20Elite%20Build%20%28Minimal%20Wear%29'
p12
sS'weapon'
p13
S'AK-47'
p14
sS'volume'
p15
I0
sS'priceLow'
p16
F0.57999999999999996
sS'quality'
p17
S'Minimal%20Wear'
p18
sS'colour'
p19
S'Blue'
p20
sba(i__main__
skin
p21
(dp22
g6
I00
sg7
S'Chroma 2'
p23
sg8
F0.10000000000000001
sg9
S'Armor Core'
p24
sg11
S'http://steamcommunity.com/market/priceoverview/?currency=13&appid=730&market_hash_name=MP7%20%7C%20Armor%20Core%20%28Minimal%20Wear%29'
p25
sg13
S'MP7'
p26
sg15
I953
sg16
F0.11
sg17
S'Minimal%20Wear'
p27
sg19
g20
sba(i__main__
skin
p28
(dp29
g6
I00
sg7
S'Chroma 2'
p30
sg8
F0.11
sg9
S'Bronze Deco'
p31
sg11
S'http://steamcommunity.com/market/priceoverview/?currency=13&appid=730&market_hash_name=Desert Eagle%20%7C%20Bronze%20Deco%20%28Minimal%20Wear%29'
p32
sg13
S'Desert Eagle'
p33
sg15
I0
sg16
F0.12
sg17
S'Minimal%20Wear'
p34
sg19
g20
sba(i__main__
skin
p35
(dp36
g6
I00
sg7
S'Chroma 2'
p37
sg8
F0.13
sg9
S'Valence'
p38
sg11
S'http://steamcommunity.com/market/priceoverview/?currency=13&appid=730&market_hash_name=P250%20%7C%20Valence%20%28Minimal%20Wear%29'
p39
sg13
S'P250'
p40
sg15
I0
sg16
F0.13
sg17
S'Minimal%20Wear'
p41
sg19
g20
sba(i__main__
skin
p42
(dp43
g6
I00
sg7
S'Chroma 2'
p44
sg8
F0.089999999999999997
sg9
S"Man-o'-war"
p45
sg11
S'http://steamcommunity.com/market/priceoverview/?currency=13&appid=730&market_hash_name=Negev%20%7C%20Man-o%27-war%20%28Minimal%20Wear%29'
p46
sg13
S'Negev'
p47
sg15
I0
sg16
F0.10000000000000001
sg17
S'Minimal%20Wear'
p48
sg19
g20
sba(i__main__
skin
p49
(dp50
g6
I00
sg7
S'Chroma 2'
p51
sg8
F0.10000000000000001
sg9
S'Origami'
p52
sg11
S'http://steamcommunity.com/market/priceoverview/?currency=13&appid=730&market_hash_name=Sawed-Off%20%7C%20Origami%20%28Minimal%20Wear%29'
p53
sg13
S'Sawed-Off'
p54
sg15
I0
sg16
F0.11
sg17
S'Minimal%20Wear'
p55
sg19
g20
sba(i__main__
skin
p56
(dp57
g6
I00
sg7
S'Chroma 2'
p58
sg8
F1.1000000000000001
sg9
S'Worm God'
p59
sg11
S'http://steamcommunity.com/market/priceoverview/?currency=13&appid=730&market_hash_name=AWP%20%7C%20Worm%20God%20%28Minimal%20Wear%29'
p60
sg13
S'AWP'
p61
sg15
I0
sg16
F1.0900000000000001
sg17
S'Minimal%20Wear'
p62
sg19
S'Purple'
p63
sba(i__main__
skin
p64
(dp65
g6
I00
sg7
S'Chroma 2'
p66
sg8
F0.38
sg9
S'Heat'
p67
sg11
S'http://steamcommunity.com/market/priceoverview/?currency=13&appid=730&market_hash_name=MAG-7%20%7C%20Heat%20%28Minimal%20Wear%29'
p68
sg13
S'MAG-7'
p69
sg15
I796
sg16
F0.39000000000000001
sg17
S'Minimal%20Wear'
p70
sg19
g63
sba(i__main__
skin
p71
(dp72
g6
I00
sg7
S'Chroma 2'
p73
sg8
F0.35999999999999999
sg9
S'Pole Position'
p74
sg11
S'http://steamcommunity.com/market/priceoverview/?currency=13&appid=730&market_hash_name=CZ75-Auto%20%7C%20Pole%20Position%20%28Minimal%20Wear%29'
p75
sg13
S'CZ75-Auto'
p76
sg15
I0
sg16
F0.34999999999999998
sg17
S'Minimal%20Wear'
p77
sg19
g63
sba(i__main__
skin
p78
(dp79
g6
I00
sg7
S'Chroma 2'
p80
sg9
S'Grand Prix'
p81
sg11
S'http://steamcommunity.com/market/priceoverview/?currency=13&appid=730&market_hash_name=UMP-45%20%7C%20Grand%20Prix%20%28Minimal%20Wear%29'
p82
sg13
S'UMP-45'
p83
sg17
S'Minimal%20Wear'
p84
sg19
g63
sba(i__main__
skin
p85
(dp86
g6
I00
sg7
S'Chroma 2'
p87
sg8
F8.5299999999999994
sg9
S'Monkey Business'
p88
sg11
S'http://steamcommunity.com/market/priceoverview/?currency=13&appid=730&market_hash_name=Five-SeveN%20%7C%20Monkey%20Business%20%28Minimal%20Wear%29'
p89
sg13
S'Five-SeveN'
p90
sg15
I91
sg16
F7.9100000000000001
sg17
S'Minimal%20Wear'
p91
sg19
S'Pink'
p92
sba(i__main__
skin
p93
(dp94
g6
I00
sg7
S'Chroma 2'
p95
sg8
F5.7999999999999998
sg9
S'Eco'
p96
sg11
S'http://steamcommunity.com/market/priceoverview/?currency=13&appid=730&market_hash_name=Galil AR%20%7C%20Eco%20%28Minimal%20Wear%29'
p97
sg13
S'Galil AR'
p98
sg15
I68
sg16
F5.4699999999999998
sg17
S'Minimal%20Wear'
p99
sg19
g92
sba(i__main__
skin
p100
(dp101
g6
I00
sg7
S'Chroma 2'
p102
sg8
F2.3399999999999999
sg9
S'Djinn'
p103
sg11
S'http://steamcommunity.com/market/priceoverview/?currency=13&appid=730&market_hash_name=FAMAS%20%7C%20Djinn%20%28Minimal%20Wear%29'
p104
sg13
S'FAMAS'
p105
sg15
I285
sg16
F2.3500000000000001
sg17
S'Minimal%20Wear'
p106
sg19
g92
sba(i__main__
skin
p107
(dp108
g6
I00
sg7
S'Chroma 2'
p109
sg8
F32.869999999999997
sg9
S'Hyper Beast'
p110
sg11
S'http://steamcommunity.com/market/priceoverview/?currency=13&appid=730&market_hash_name=M4A1-S%20%7C%20Hyper%20Beast%20%28Minimal%20Wear%29'
p111
sg13
S'M4A1-S'
p112
sg15
I256
sg16
F33.689999999999998
sg17
S'Minimal%20Wear'
p113
sg19
S'Red'
p114
sba(i__main__
skin
p115
(dp116
g6
I00
sg7
S'Chroma 2'
p117
sg8
F3.6000000000000001
sg9
S'Neon Rider'
p118
sg11
S'http://steamcommunity.com/market/priceoverview/?currency=13&appid=730&market_hash_name=MAC-10%20%7C%20Neon%20Rider%20%28Minimal%20Wear%29'
p119
sg13
S'MAC-10'
p120
sg15
I537
sg16
F3.8100000000000001
sg17
S'Minimal%20Wear'
p121
sg19
g114
sbasS'Wildfire'
p122
(lp123
(i__main__
skin
p124
(dp125
g6
I00
sg7
S'Wildfire'
p126
sg8
F0.54000000000000004
sg9
S'Photic Zone'
p127
sg11
S'http://steamcommunity.com/market/priceoverview/?currency=13&appid=730&market_hash_name=PP-Bizon%20%7C%20Photic%20Zone%20%28Minimal%20Wear%29'
p128
sg13
S'PP-Bizon'
p129
sg15
I690
sg16
F0.53000000000000003
sg17
S'Minimal%20Wear'
p130
sg19
S'Blue'
p131
sba(i__main__
skin
p132
(dp133
g6
I00
sg7
S'Wildfire'
p134
sg8
F0.29999999999999999
sg9
S'Cartel'
p135
sg11
S'http://steamcommunity.com/market/priceoverview/?currency=13&appid=730&market_hash_name=Dual Berettas%20%7C%20Cartel%20%28Minimal%20Wear%29'
p136
sg13
S'Dual Berettas'
p137
sg15
I655
sg16
F0.29999999999999999
sg17
S'Minimal%20Wear'
p138
sg19
g131
sba(i__main__
skin
p139
(dp140
g6
I00
sg7
S'Wildfire'
p141
sg8
F0.33000000000000002
sg9
S'Lapis Gator'
p142
sg11
S'http://steamcommunity.com/market/priceoverview/?currency=13&appid=730&market_hash_name=MAC-10%20%7C%20Lapis%20Gator%20%28Minimal%20Wear%29'
p143
sg13
S'MAC-10'
p144
sg15
I694
sg16
F0.34000000000000002
sg17
S'Minimal%20Wear'
p145
sg19
g131
sba(i__main__
skin
p146
(dp147
g6
I00
sg7
S'Wildfire'
p148
sg8
F1.03
sg9
S'Necropos'
p149
sg11
S'http://steamcommunity.com/market/priceoverview/?currency=13&appid=730&market_hash_name=SSG 08%20%7C%20Necropos%20%28Minimal%20Wear%29'
p150
sg13
S'SSG 08'
p151
sg15
I889
sg16
F1.05
sg17
S'Minimal%20Wear'
p152
sg19
g131
sba(i__main__
skin
p153
(dp154
g6
I00
sg7
S'Wildfire'
p155
sg8
F0.33000000000000002
sg9
S'Jambiya'
p156
sg11
S'http://steamcommunity.com/market/priceoverview/?currency=13&appid=730&market_hash_name=Tec-9%20%7C%20Jambiya%20%28Minimal%20Wear%29'
p157
sg13
S'Tec-9'
p158
sg15
I809
sg16
F0.34000000000000002
sg17
S'Minimal%20Wear'
p159
sg19
g131
sba(i__main__
skin
p160
(dp161
g6
I00
sg7
S'Wildfire'
p162
sg8
F1.04
sg9
S'Lead Conduit'
p163
sg11
S'http://steamcommunity.com/market/priceoverview/?currency=13&appid=730&market_hash_name=USP-S%20%7C%20Lead%20Conduit%20%28Minimal%20Wear%29'
p164
sg13
S'USP-S'
p165
sg15
I0
sg16
F0.97999999999999998
sg17
S'Minimal%20Wear'
p166
sg19
g131
sba(i__main__
skin
p167
(dp168
g6
I00
sg7
S'Wildfire'
p169
sg8
F4.7000000000000002
sg9
S'Valence'
p170
sg11
S'http://steamcommunity.com/market/priceoverview/?currency=13&appid=730&market_hash_name=FAMAS%20%7C%20Valence%20%28Minimal%20Wear%29'
p171
sg13
S'FAMAS'
p172
sg15
I375
sg16
F4.6399999999999997
sg17
S'Minimal%20Wear'
p173
sg19
S'Purple'
p174
sba(i__main__
skin
p175
(dp176
g6
I00
sg7
S'Wildfire'
p177
sg8
F1.7
sg9
S'Triumvirate'
p178
sg11
S'http://steamcommunity.com/market/priceoverview/?currency=13&appid=730&market_hash_name=Five-SeveN%20%7C%20Triumvirate%20%28Minimal%20Wear%29'
p179
sg13
S'Five-SeveN'
p180
sg15
I343
sg16
F1.6799999999999999
sg17
S'Minimal%20Wear'
p181
sg19
g174
sba(i__main__
skin
p182
(dp183
g6
I00
sg7
S'Wildfire'
p184
sg8
F2.6699999999999999
sg9
S'Royal Legion'
p185
sg11
S'http://steamcommunity.com/market/priceoverview/?currency=13&appid=730&market_hash_name=Glock-18%20%7C%20Royal%20Legion%20%28Minimal%20Wear%29'
p186
sg13
S'Glock-18'
p187
sg15
I343
sg16
F2.23
sg17
S'Minimal%20Wear'
p188
sg19
g174
sba(i__main__
skin
p189
(dp190
g6
I00
sg7
S'Wildfire'
p191
sg8
F1.6200000000000001
sg9
S'Praetorian'
p192
sg11
S'http://steamcommunity.com/market/priceoverview/?currency=13&appid=730&market_hash_name=MAG-7%20%7C%20Praetorian%20%28Minimal%20Wear%29'
p193
sg13
S'MAG-7'
p194
sg15
I432
sg16
F1.75
sg17
S'Minimal%20Wear'
p195
sg19
g174
sba(i__main__
skin
p196
(dp197
g6
I00
sg7
S'Wildfire'
p198
sg8
F1.78
sg9
S'Impire'
p199
sg11
S'http://steamcommunity.com/market/priceoverview/?currency=13&appid=730&market_hash_name=MP7%20%7C%20Impire%20%28Minimal%20Wear%29'
p200
sg13
S'MP7'
p201
sg15
I500
sg16
F1.77
sg17
S'Minimal%20Wear'
p202
sg19
g174
sba(i__main__
skin
p203
(dp204
g6
I00
sg7
S'Wildfire'
p205
sg8
F22.350000000000001
sg9
S'Elite Build'
p206
sg11
S'http://steamcommunity.com/market/priceoverview/?currency=13&appid=730&market_hash_name=AWP%20%7C%20Elite%20Build%20%28Minimal%20Wear%29'
p207
sg13
S'AWP'
p208
sg15
I193
sg16
F20.199999999999999
sg17
S'Minimal%20Wear'
p209
sg19
S'Pink'
p210
sba(i__main__
skin
p211
(dp212
g6
I00
sg7
S'Wildfire'
p213
sg8
F20.140000000000001
sg9
S'Kumicho Dragon'
p214
sg11
S'http://steamcommunity.com/market/priceoverview/?currency=13&appid=730&market_hash_name=Desert Eagle%20%7C%20Kumicho%20Dragon%20%28Minimal%20Wear%29'
p215
sg13
S'Desert Eagle'
p216
sg15
I164
sg16
F20.530000000000001
sg17
S'Minimal%20Wear'
p217
sg19
g210
sba(i__main__
skin
p218
(dp219
g6
I00
sg7
S'Wildfire'
p220
sg8
F10.35
sg9
S'Hyper Beast'
p221
sg11
S'http://steamcommunity.com/market/priceoverview/?currency=13&appid=730&market_hash_name=Nova%20%7C%20Hyper%20Beast%20%28Minimal%20Wear%29'
p222
sg13
S'Nova'
p223
sg15
I208
sg16
F10.300000000000001
sg17
S'Minimal%20Wear'
p224
sg19
g210
sba(i__main__
skin
p225
(dp226
g6
I00
sg7
S'Wildfire'
p227
sg8
F76.640000000000001
sg9
S'Fuel Injector'
p228
sg11
S'http://steamcommunity.com/market/priceoverview/?currency=13&appid=730&market_hash_name=AK-47%20%7C%20Fuel%20Injector%20%28Minimal%20Wear%29'
p229
sg13
S'AK-47'
p230
sg15
I40
sg16
F75.689999999999998
sg17
S'Minimal%20Wear'
p231
sg19
S'Red'
p232
sba(i__main__
skin
p233
(dp234
g6
I00
sg7
S'Wildfire'
p235
sg8
F29.75
sg9
S'The Battlestar'
p236
sg11
S'http://steamcommunity.com/market/priceoverview/?currency=13&appid=730&market_hash_name=M4A4%20%7C%20The%20Battlestar%20%28Minimal%20Wear%29'
p237
sg13
S'M4A4'
p238
sg15
I48
sg16
F30.66
sg17
S'Minimal%20Wear'
p239
sg19
g232
sbasS'eSports 2014 Summer'
p240
(lp241
(i__main__
skin
p242
(dp243
g6
I00
sg7
g240
sg8
F0.33000000000000002
sg9
S'Dark Water'
p244
sg11
S'http://steamcommunity.com/market/priceoverview/?currency=13&appid=730&market_hash_name=SSG 08%20%7C%20Dark%20Water%20%28Minimal%20Wear%29'
p245
sg13
S'SSG 08'
p246
sg15
I447
sg16
F0.32000000000000001
sg17
S'Minimal%20Wear'
p247
sg19
g20
sba(i__main__
skin
p248
(dp249
g6
I00
sg7
S'eSports 2014 Summer'
p250
sg8
F0.56999999999999995
sg9
S'Ultraviolet'
p251
sg11
S'http://steamcommunity.com/market/priceoverview/?currency=13&appid=730&market_hash_name=MAC-10%20%7C%20Ultraviolet%20%28Minimal%20Wear%29'
p252
sg13
S'MAC-10'
p253
sg15
I96
sg16
F0.58999999999999997
sg17
S'Minimal%20Wear'
p254
sg19
g20
sba(i__main__
skin
p255
(dp256
g6
I00
sg7
S'eSports 2014 Summer'
p257
sg8
F0.38
sg9
S'Blood Tiger'
p258
sg11
S'http://steamcommunity.com/market/priceoverview/?currency=13&appid=730&market_hash_name=USP-S%20%7C%20Blood%20Tiger%20%28Minimal%20Wear%29'
p259
sg13
S'USP-S'
p260
sg15
I734
sg16
F0.35999999999999999
sg17
S'Minimal%20Wear'
p261
sg19
g20
sba(i__main__
skin
p262
(dp263
g6
I00
sg7
S'eSports 2014 Summer'
p264
sg8
F0.31
sg9
S'Hexane'
p265
sg11
S'http://steamcommunity.com/market/priceoverview/?currency=13&appid=730&market_hash_name=CZ75-Auto%20%7C%20Hexane%20%28Minimal%20Wear%29'
p266
sg13
S'CZ75-Auto'
p267
sg15
I184
sg16
F0.28999999999999998
sg17
S'Minimal%20Wear'
p268
sg19
g20
sba(i__main__
skin
p269
(dp270
g6
I00
sg7
S'eSports 2014 Summer'
p271
sg8
F0.31
sg9
S'Bratatat'
p272
sg11
S'http://steamcommunity.com/market/priceoverview/?currency=13&appid=730&market_hash_name=Negev%20%7C%20Bratatat%20%28Minimal%20Wear%29'
p273
sg13
S'Negev'
p274
sg15
I130
sg16
F0.34000000000000002
sg17
S'Minimal%20Wear'
p275
sg19
g20
sba(i__main__
skin
p276
(dp277
g6
I00
sg7
S'eSports 2014 Summer'
p278
sg8
F0.35999999999999999
sg9
S'Red Python'
p279
sg11
S'http://steamcommunity.com/market/priceoverview/?currency=13&appid=730&market_hash_name=XM1014%20%7C%20Red%20Python%20%28Minimal%20Wear%29'
p280
sg13
S'XM1014'
p281
sg15
I105
sg16
F0.32000000000000001
sg17
S'Minimal%20Wear'
p282
sg19
g20
sba(i__main__
skin
p283
(dp284
g6
I00
sg7
S'eSports 2014 Summer'
p285
sg8
F1.1799999999999999
sg9
S'Blue Streak'
p286
sg11
S'http://steamcommunity.com/market/priceoverview/?currency=13&appid=730&market_hash_name=PP-Bizon%20%7C%20Blue%20Streak%20%28Minimal%20Wear%29'
p287
sg13
S'PP-Bizon'
p288
sg15
I79
sg16
F1.1599999999999999
sg17
S'Minimal%20Wear'
p289
sg19
g63
sba(i__main__
skin
p290
(dp291
g6
I00
sg7
S'eSports 2014 Summer'
p292
sg8
F1.0800000000000001
sg9
S'Virus'
p293
sg11
S'http://steamcommunity.com/market/priceoverview/?currency=13&appid=730&market_hash_name=P90%20%7C%20Virus%20%28Minimal%20Wear%29'
p294
sg13
S'P90'
p295
sg15
I147
sg16
F1.23
sg17
S'Minimal%20Wear'
p296
sg19
g63
sba(i__main__
skin
p297
(dp298
g6
I00
sg7
S'eSports 2014 Summer'
p299
sg8
F1.8400000000000001
sg9
S'Ocean Foam'
p300
sg11
S'http://steamcommunity.com/market/priceoverview/?currency=13&appid=730&market_hash_name=MP7%20%7C%20Ocean%20Foam%20%28Minimal%20Wear%29'
p301
sg13
S'MP7'
p302
sg15
I13
sg16
F1.6799999999999999
sg17
S'Minimal%20Wear'
p303
sg19
g63
sba(i__main__
skin
p304
(dp305
g6
I00
sg7
S'eSports 2014 Summer'
p306
sg8
F0.90000000000000002
sg9
S'Steel Disruption'
p307
sg11
S'http://steamcommunity.com/market/priceoverview/?currency=13&appid=730&market_hash_name=Glock-18%20%7C%20Steel%20Disruption%20%28Minimal%20Wear%29'
p308
sg13
S'Glock-18'
p309
sg15
I144
sg16
F0.95999999999999996
sg17
S'Minimal%20Wear'
p310
sg19
g63
sba(i__main__
skin
p311
(dp312
g6
I00
sg7
S'eSports 2014 Summer'
p313
sg8
F4.6600000000000001
sg9
S'Crimson Web'
p314
sg11
S'http://steamcommunity.com/market/priceoverview/?currency=13&appid=730&market_hash_name=Desert Eagle%20%7C%20Crimson%20Web%20%28Minimal%20Wear%29'
p315
sg13
S'Desert Eagle'
p316
sg15
I282
sg16
F4.25
sg17
S'Minimal%20Wear'
p317
sg19
g63
sba(i__main__
skin
p318
(dp319
g6
I00
sg7
S'eSports 2014 Summer'
p320
sg8
F3.2000000000000002
sg9
S'Bengal Tiger'
p321
sg11
S'http://steamcommunity.com/market/priceoverview/?currency=13&appid=730&market_hash_name=AUG%20%7C%20Bengal%20Tiger%20%28Minimal%20Wear%29'
p322
sg13
S'AUG'
p323
sg15
I69
sg16
F3.3300000000000001
sg17
S'Minimal%20Wear'
p324
sg19
g92
sba(i__main__
skin
p325
(dp326
g6
I00
sg7
S'eSports 2014 Summer'
p327
sg8
F3.3700000000000001
sg9
S'Bloomstick'
p328
sg11
S'http://steamcommunity.com/market/priceoverview/?currency=13&appid=730&market_hash_name=Nova%20%7C%20Bloomstick%20%28Minimal%20Wear%29'
p329
sg13
S'Nova'
p330
sg15
I29
sg16
F3.4900000000000002
sg17
S'Minimal%20Wear'
p331
sg19
g92
sba(i__main__
skin
p332
(dp333
g6
I00
sg7
S'eSports 2014 Summer'
p334
sg8
F7.5899999999999999
sg9
S'Corticera'
p335
sg11
S'http://steamcommunity.com/market/priceoverview/?currency=13&appid=730&market_hash_name=AWP%20%7C%20Corticera%20%28Minimal%20Wear%29'
p336
sg13
S'AWP'
p337
sg15
I772
sg16
F7.5999999999999996
sg17
S'Minimal%20Wear'
p338
sg19
g92
sba(i__main__
skin
p339
(dp340
g6
I00
sg7
S'eSports 2014 Summer'
p341
sg8
F2.5899999999999999
sg9
S'Corticera'
p342
sg11
S'http://steamcommunity.com/market/priceoverview/?currency=13&appid=730&market_hash_name=P2000%20%7C%20Corticera%20%28Minimal%20Wear%29'
p343
sg13
S'P2000'
p344
sg15
I296
sg16
F2.6200000000000001
sg17
S'Minimal%20Wear'
p345
sg19
g92
sba(i__main__
skin
p346
(dp347
g6
I00
sg7
S'eSports 2014 Summer'
p348
sg8
F9.3599999999999994
sg9
S'Bullet Rain'
p349
sg11
S'http://steamcommunity.com/market/priceoverview/?currency=13&appid=730&market_hash_name=M4A4%20%7C%20Bullet%20Rain%20%28Minimal%20Wear%29'
p350
sg13
S'M4A4'
p351
sg15
I279
sg16
F9
sg17
S'Minimal%20Wear'
p352
sg19
g114
sba(i__main__
skin
p353
(dp354
g6
I00
sg7
S'eSports 2014 Summer'
p355
sg8
F18.170000000000002
sg9
S'Jaguar'
p356
sg11
S'http://steamcommunity.com/market/priceoverview/?currency=13&appid=730&market_hash_name=AK-47%20%7C%20Jaguar%20%28Minimal%20Wear%29'
p357
sg13
S'AK-47'
p358
sg15
I91
sg16
F19.949999999999999
sg17
S'Minimal%20Wear'
p359
sg19
g114
sbasS'Italy'
p360
(lp361
(i__main__
skin
p362
(dp363
g6
I00
sg7
g360
sg8
F2.3300000000000001
sg9
S'Pit Viper'
p364
sg11
S'http://steamcommunity.com/market/priceoverview/?currency=13&appid=730&market_hash_name=AWP%20%7C%20Pit%20Viper%20%28Minimal%20Wear%29'
p365
sg13
S'AWP'
p366
sg15
I0
sg16
F2.4199999999999999
sg17
S'Minimal%20Wear'
p367
sg19
g63
sba(i__main__
skin
p368
(dp369
g6
I00
sg7
S'Italy'
p370
sg8
F0.38
sg9
S'Full Stop'
p371
sg11
S'http://steamcommunity.com/market/priceoverview/?currency=13&appid=730&market_hash_name=Sawed-Off%20%7C%20Full%20Stop%20%28Minimal%20Wear%29'
p372
sg13
S'Sawed-Off'
p373
sg15
I517
sg16
F0.34000000000000002
sg17
S'Minimal%20Wear'
p374
sg19
g20
sba(i__main__
skin
p375
(dp376
g6
I00
sg7
S'Italy'
p377
sg8
F0.46999999999999997
sg9
S'Candy Apple'
p378
sg11
S'http://steamcommunity.com/market/priceoverview/?currency=13&appid=730&market_hash_name=Glock-18%20%7C%20Candy%20Apple%20%28Minimal%20Wear%29'
p379
sg13
S'Glock-18'
p380
sg15
I0
sg16
F0.47999999999999998
sg17
S'Minimal%20Wear'
p381
sg19
g20
sba(i__main__
skin
p382
(dp383
g6
I00
sg7
S'Italy'
p384
sg8
F0.65000000000000002
sg9
S'Anodized Navy'
p385
sg11
S'http://steamcommunity.com/market/priceoverview/?currency=13&appid=730&market_hash_name=MP7%20%7C%20Anodized%20Navy%20%28Minimal%20Wear%29'
p386
sg13
S'MP7'
p387
sg15
I91
sg16
F0.66000000000000003
sg17
S'Minimal%20Wear'
p388
sg19
g20
sba(i__main__
skin
p389
(dp390
g6
I00
sg7
S'Italy'
p391
sg8
F0.040000000000000001
sg9
S'CaliCamo'
p392
sg11
S'http://steamcommunity.com/market/priceoverview/?currency=13&appid=730&market_hash_name=XM1014%20%7C%20CaliCamo%20%28Minimal%20Wear%29'
p393
sg13
S'XM1014'
p394
sg15
I728
sg16
F0.059999999999999998
sg17
S'Minimal%20Wear'
p395
sg19
S'Light-Blue'
p396
sba(i__main__
skin
p397
(dp398
g6
I00
sg7
S'Italy'
p399
sg8
F0.45000000000000001
sg9
S'Boreal Forest'
p400
sg11
S'http://steamcommunity.com/market/priceoverview/?currency=13&appid=730&market_hash_name=M4A1-S%20%7C%20Boreal%20Forest%20%28Minimal%20Wear%29'
p401
sg13
S'M4A1-S'
p402
sg15
I0
sg16
F0.46999999999999997
sg17
S'Minimal%20Wear'
p403
sg19
g396
sba(i__main__
skin
p404
(dp405
g6
I00
sg7
S'Italy'
p406
sg8
F0.070000000000000007
sg9
S'Gunsmoke'
p407
sg11
S'http://steamcommunity.com/market/priceoverview/?currency=13&appid=730&market_hash_name=UMP-45%20%7C%20Gunsmoke%20%28Minimal%20Wear%29'
p408
sg13
S'UMP-45'
p409
sg15
I477
sg16
F0.080000000000000002
sg17
S'Minimal%20Wear'
p410
sg19
g396
sba(i__main__
skin
p411
(dp412
g6
I00
sg7
S'Italy'
p413
sg8
F0.059999999999999998
sg9
S'Granite Marbleized'
p414
sg11
S'http://steamcommunity.com/market/priceoverview/?currency=13&appid=730&market_hash_name=P2000%20%7C%20Granite%20Marbleized%20%28Minimal%20Wear%29'
p415
sg13
S'P2000'
p416
sg15
I758
sg16
F0.070000000000000007
sg17
S'Minimal%20Wear'
p417
sg19
g396
sba(i__main__
skin
p418
(dp419
g6
I00
sg7
S'Italy'
p420
sg8
F0.050000000000000003
sg9
S'Stained'
p421
sg11
S'http://steamcommunity.com/market/priceoverview/?currency=13&appid=730&market_hash_name=Dual Berettas%20%7C%20Stained%20%28Minimal%20Wear%29'
p422
sg13
S'Dual Berettas'
p423
sg15
I853
sg16
F0.070000000000000007
sg17
S'Minimal%20Wear'
p424
sg19
g396
sba(i__main__
skin
p425
(dp426
g6
I00
sg7
S'Italy'
p427
sg8
F0.059999999999999998
sg9
S'Candy Apple'
p428
sg11
S'http://steamcommunity.com/market/priceoverview/?currency=13&appid=730&market_hash_name=Nova%20%7C%20Candy%20Apple%20%28Minimal%20Wear%29'
p429
sg13
S'Nova'
p430
sg15
I0
sg16
F0.080000000000000002
sg17
S'Minimal%20Wear'
p431
sg19
g396
sba(i__main__
skin
p432
(dp433
g6
I00
sg7
S'Italy'
p434
sg8
F0.02
sg9
S'Groundwater'
p435
sg11
S'http://steamcommunity.com/market/priceoverview/?currency=13&appid=730&market_hash_name=Tec-9%20%7C%20Groundwater%20%28Minimal%20Wear%29'
p436
sg13
S'Tec-9'
p437
sg15
I0
sg16
F0.040000000000000001
sg17
S'Minimal%20Wear'
p438
sg19
S'White'
p439
sba(i__main__
skin
p440
(dp441
g6
I00
sg7
S'Italy'
p442
sg8
F0.02
sg9
S'Contractor'
p443
sg11
S'http://steamcommunity.com/market/priceoverview/?currency=13&appid=730&market_hash_name=AUG%20%7C%20Contractor%20%28Minimal%20Wear%29'
p444
sg13
S'AUG'
p445
sg15
I870
sg16
F0.040000000000000001
sg17
S'Minimal%20Wear'
p446
sg19
g439
sba(i__main__
skin
p447
(dp448
g6
I00
sg7
S'Italy'
p449
sg8
F0.02
sg9
S'Colony'
p450
sg11
S'http://steamcommunity.com/market/priceoverview/?currency=13&appid=730&market_hash_name=FAMAS%20%7C%20Colony%20%28Minimal%20Wear%29'
p451
sg13
S'FAMAS'
p452
sg15
I0
sg16
F0.040000000000000001
sg17
S'Minimal%20Wear'
p453
sg19
g439
sba(i__main__
skin
p454
(dp455
g6
I00
sg7
S'Italy'
p456
sg8
F0.02
sg9
S'Sand Dune'
p457
sg11
S'http://steamcommunity.com/market/priceoverview/?currency=13&appid=730&market_hash_name=Nova%20%7C%20Sand%20Dune%20%28Minimal%20Wear%29'
p458
sg13
S'Nova'
p459
sg15
I839
sg16
F0.040000000000000001
sg17
S'Minimal%20Wear'
p460
sg19
g439
sba(i__main__
skin
p461
(dp462
g6
I00
sg7
S'Italy'
p463
sg8
F0.02
sg9
S'Sand Dashed'
p464
sg11
S'http://steamcommunity.com/market/priceoverview/?currency=13&appid=730&market_hash_name=PP-Bizon%20%7C%20Sand%20Dashed%20%28Minimal%20Wear%29'
p465
sg13
S'PP-Bizon'
p466
sg15
I0
sg16
F0.040000000000000001
sg17
S'Minimal%20Wear'
p467
sg19
g439
sbasS'Arms Deal'
p468
(lp469
(i__main__
skin
p470
(dp471
g6
I00
sg7
g468
sg8
F1.23
sg9
S'Skulls'
p472
sg11
S'http://steamcommunity.com/market/priceoverview/?currency=13&appid=730&market_hash_name=MP7%20%7C%20Skulls%20%28Minimal%20Wear%29'
p473
sg13
S'MP7'
p474
sg15
I120
sg16
F1.26
sg17
S'Minimal%20Wear'
p475
sg19
g20
sba(i__main__
skin
p476
(dp477
g6
I00
sg7
S'Arms Deal'
p478
sg8
F1.24
sg9
S'Ultraviolet'
p479
sg11
S'http://steamcommunity.com/market/priceoverview/?currency=13&appid=730&market_hash_name=SG 553%20%7C%20Ultraviolet%20%28Minimal%20Wear%29'
p480
sg13
S'SG 553'
p481
sg15
I90
sg16
F1.0900000000000001
sg17
S'Minimal%20Wear'
p482
sg19
g20
sba(i__main__
skin
p483
(dp484
g6
I00
sg7
S'Arms Deal'
p485
sg8
F0.96999999999999997
sg9
S'Wings'
p486
sg11
S'http://steamcommunity.com/market/priceoverview/?currency=13&appid=730&market_hash_name=AUG%20%7C%20Wings%20%28Minimal%20Wear%29'
p487
sg13
S'AUG'
p488
sg15
I63
sg16
F0.83999999999999997
sg17
S'Minimal%20Wear'
p489
sg19
g20
sba(i__main__
skin
p490
(dp491
g6
I00
sg7
S'Arms Deal'
p492
sg8
F6.2199999999999998
sg9
S'Dark Water'
p493
sg11
S'http://steamcommunity.com/market/priceoverview/?currency=13&appid=730&market_hash_name=M4A1-S%20%7C%20Dark%20Water%20%28Minimal%20Wear%29'
p494
sg13
S'M4A1-S'
p495
sg15
I257
sg16
F6.2699999999999996
sg17
S'Minimal%20Wear'
p496
sg19
g63
sba(i__main__
skin
p497
(dp498
g6
I00
sg7
S'Arms Deal'
p499
sg8
F6.75
sg9
S'Dark Water'
p500
sg11
S'http://steamcommunity.com/market/priceoverview/?currency=13&appid=730&market_hash_name=USP-S%20%7C%20Dark%20Water%20%28Minimal%20Wear%29'
p501
sg13
S'USP-S'
p502
sg15
I56
sg16
F6.8600000000000003
sg17
S'Minimal%20Wear'
p503
sg19
g63
sba(i__main__
skin
p504
(dp505
g6
I00
sg7
S'Arms Deal'
p506
sg8
F9.2799999999999994
sg9
S'Dragon Tattoo'
p507
sg11
S'http://steamcommunity.com/market/priceoverview/?currency=13&appid=730&market_hash_name=Glock-18%20%7C%20Dragon%20Tattoo%20%28Minimal%20Wear%29'
p508
sg13
S'Glock-18'
p509
sg15
I11
sg16
F8.6500000000000004
sg17
S'Minimal%20Wear'
p510
sg19
g63
sba(i__main__
skin
p511
(dp512
g6
I00
sg7
S'Arms Deal'
p513
sg8
F14.32
sg9
S'Hypnotic'
p514
sg11
S'http://steamcommunity.com/market/priceoverview/?currency=13&appid=730&market_hash_name=Desert Eagle%20%7C%20Hypnotic%20%28Minimal%20Wear%29'
p515
sg13
S'Desert Eagle'
p516
sg15
I5
sg16
F14.34
sg17
S'Minimal%20Wear'
p517
sg19
g92
sba(i__main__
skin
p518
(dp519
g6
I00
sg7
S'Arms Deal'
p520
sg8
F40.530000000000001
sg9
S'Case Hardened'
p521
sg11
S'http://steamcommunity.com/market/priceoverview/?currency=13&appid=730&market_hash_name=AK-47%20%7C%20Case%20Hardened%20%28Minimal%20Wear%29'
p522
sg13
S'AK-47'
p523
sg15
I110
sg16
F40.549999999999997
sg17
S'Minimal%20Wear'
p524
sg19
g92
sba(i__main__
skin
p525
(dp526
g6
I00
sg7
S'Arms Deal'
p527
sg8
F70.150000000000006
sg9
S'Lightning Strike'
p528
sg11
S'http://steamcommunity.com/market/priceoverview/?currency=13&appid=730&market_hash_name=AWP%20%7C%20Lightning%20Strike%20%28Minimal%20Wear%29'
p529
sg13
S'AWP'
p530
sg15
I1
sg16
F70.150000000000006
sg17
S'Minimal%20Wear'
p531
sg19
g114
sbasS'Cache'
p532
(lp533
(i__main__
skin
p534
(dp535
g6
I00
sg7
g532
sg8
F8.5899999999999999
sg9
S'Cerberus'
p536
sg11
S'http://steamcommunity.com/market/priceoverview/?currency=13&appid=730&market_hash_name=Galil AR%20%7C%20Cerberus%20%28Minimal%20Wear%29'
p537
sg13
S'Galil AR'
p538
sg15
I49
sg16
F9.6999999999999993
sg17
S'Minimal%20Wear'
p539
sg19
g63
sba(i__main__
skin
p540
(dp541
g6
I00
sg7
S'Cache'
p542
sg8
F5.1699999999999999
sg9
S'Styx'
p543
sg11
S'http://steamcommunity.com/market/priceoverview/?currency=13&appid=730&market_hash_name=FAMAS%20%7C%20Styx%20%28Minimal%20Wear%29'
p544
sg13
S'FAMAS'
p545
sg15
I71
sg16
F5.2999999999999998
sg17
S'Minimal%20Wear'
p546
sg19
g63
sba(i__main__
skin
p547
(dp548
g6
I00
sg7
S'Cache'
p549
sg8
F5.6900000000000004
sg9
S'Toxic'
p550
sg11
S'http://steamcommunity.com/market/priceoverview/?currency=13&appid=730&market_hash_name=Tec-9%20%7C%20Toxic%20%28Minimal%20Wear%29'
p551
sg13
S'Tec-9'
p552
sg15
I106
sg16
F5.4000000000000004
sg17
S'Minimal%20Wear'
p553
sg19
g20
sba(i__main__
skin
p554
(dp555
g6
I00
sg7
S'Cache'
p556
sg8
F1.3300000000000001
sg9
S'Nuclear Garden'
p557
sg11
S'http://steamcommunity.com/market/priceoverview/?currency=13&appid=730&market_hash_name=MAC-10%20%7C%20Nuclear%20Garden%20%28Minimal%20Wear%29'
p558
sg13
S'MAC-10'
p559
sg15
I34
sg16
F1.29
sg17
S'Minimal%20Wear'
p560
sg19
g20
sba(i__main__
skin
p561
(dp562
g6
I00
sg7
S'Cache'
p563
sg8
F1.52
sg9
S'Bone Machine'
p564
sg11
S'http://steamcommunity.com/market/priceoverview/?currency=13&appid=730&market_hash_name=XM1014%20%7C%20Bone%20Machine%20%28Minimal%20Wear%29'
p565
sg13
S'XM1014'
p566
sg15
I63
sg16
F1.6200000000000001
sg17
S'Minimal%20Wear'
p567
sg19
g20
sba(i__main__
skin
p568
(dp569
g6
I00
sg7
S'Cache'
p570
sg8
F1.3700000000000001
sg9
S'Setting Sun'
p571
sg11
S'http://steamcommunity.com/market/priceoverview/?currency=13&appid=730&market_hash_name=MP9%20%7C%20Setting%20Sun%20%28Minimal%20Wear%29'
p572
sg13
S'MP9'
p573
sg15
I32
sg16
F1.47
sg17
S'Minimal%20Wear'
p574
sg19
g20
sba(i__main__
skin
p575
(dp576
g6
I00
sg7
S'Cache'
p577
sg8
F3.29
sg9
S'Reactor'
p578
sg11
S'http://steamcommunity.com/market/priceoverview/?currency=13&appid=730&market_hash_name=Glock-18%20%7C%20Reactor%20%28Minimal%20Wear%29'
p579
sg13
S'Glock-18'
p580
sg15
I155
sg16
F3.1800000000000002
sg17
S'Minimal%20Wear'
p581
sg19
g20
sba(i__main__
skin
p582
(dp583
g6
I00
sg7
S'Cache'
p584
sg8
F0.56999999999999995
sg9
S'Hot Shot'
p585
sg11
S'http://steamcommunity.com/market/priceoverview/?currency=13&appid=730&market_hash_name=Five-SeveN%20%7C%20Hot%20Shot%20%28Minimal%20Wear%29'
p586
sg13
S'Five-SeveN'
p587
sg15
I327
sg16
F0.56999999999999995
sg17
S'Minimal%20Wear'
p588
sg19
g396
sba(i__main__
skin
p589
(dp590
g6
I00
sg7
S'Cache'
p591
sg8
F0.40999999999999998
sg9
S'Fallout Warning'
p592
sg11
S'http://steamcommunity.com/market/priceoverview/?currency=13&appid=730&market_hash_name=SG 553%20%7C%20Fallout%20Warning%20%28Minimal%20Wear%29'
p593
sg13
S'SG 553'
p594
sg15
I147
sg16
F0.46000000000000002
sg17
S'Minimal%20Wear'
p595
sg19
g396
sba(i__main__
skin
p596
(dp597
g6
I00
sg7
S'Cache'
p598
sg8
F0.42999999999999999
sg9
S'Chemical Green'
p599
sg11
S'http://steamcommunity.com/market/priceoverview/?currency=13&appid=730&market_hash_name=PP-Bizon%20%7C%20Chemical%20Green%20%28Minimal%20Wear%29'
p600
sg13
S'PP-Bizon'
p601
sg15
I166
sg16
F0.40000000000000002
sg17
S'Minimal%20Wear'
p602
sg19
g396
sba(i__main__
skin
p603
(dp604
g6
I00
sg7
S'Cache'
p605
sg8
F0.46999999999999997
sg9
S'Radiation Hazard'
p606
sg11
S'http://steamcommunity.com/market/priceoverview/?currency=13&appid=730&market_hash_name=AUG%20%7C%20Radiation%20Hazard%20%28Minimal%20Wear%29'
p607
sg13
S'AUG'
p608
sg15
I215
sg16
F0.46999999999999997
sg17
S'Minimal%20Wear'
p609
sg19
g396
sba(i__main__
skin
p610
(dp611
g6
I00
sg7
S'Cache'
p612
sg8
F0.45000000000000001
sg9
S'Contamination'
p613
sg11
S'http://steamcommunity.com/market/priceoverview/?currency=13&appid=730&market_hash_name=P250%20%7C%20Contamination%20%28Minimal%20Wear%29'
p614
sg13
S'P250'
p615
sg15
I91
sg16
F0.46999999999999997
sg17
S'Minimal%20Wear'
p616
sg19
g396
sba(i__main__
skin
p617
(dp618
g6
I00
sg7
S'Cache'
p619
sg8
F0.5
sg9
S'Nuclear Waste'
p620
sg11
S'http://steamcommunity.com/market/priceoverview/?currency=13&appid=730&market_hash_name=Negev%20%7C%20Nuclear%20Waste%20%28Minimal%20Wear%29'
p621
sg13
S'Negev'
p622
sg15
I39
sg16
F0.51000000000000001
sg17
S'Minimal%20Wear'
p623
sg19
g396
sbasS'Chroma'
p624
(lp625
(i__main__
skin
p626
(dp627
g6
I00
sg7
g624
sg8
F0.12
sg9
S'Catacombs'
p628
sg11
S'http://steamcommunity.com/market/priceoverview/?currency=13&appid=730&market_hash_name=Glock-18%20%7C%20Catacombs%20%28Minimal%20Wear%29'
p629
sg13
S'Glock-18'
p630
sg15
I801
sg16
F0.13
sg17
S'Minimal%20Wear'
p631
sg19
g20
sba(i__main__
skin
p632
(dp633
g6
I00
sg7
S'Chroma'
p634
sg8
F0.11
sg9
S'System Lock'
p635
sg11
S'http://steamcommunity.com/market/priceoverview/?currency=13&appid=730&market_hash_name=M249%20%7C%20System%20Lock%20%28Minimal%20Wear%29'
p636
sg13
S'M249'
p637
sg15
I493
sg16
F0.12
sg17
S'Minimal%20Wear'
p638
sg19
g20
sba(i__main__
skin
p639
(dp640
g6
I00
sg7
S'Chroma'
p641
sg8
F0.17999999999999999
sg9
S'Deadly Poison'
p642
sg11
S'http://steamcommunity.com/market/priceoverview/?currency=13&appid=730&market_hash_name=MP9%20%7C%20Deadly%20Poison%20%28Minimal%20Wear%29'
p643
sg13
S'MP9'
p644
sg15
I789
sg16
F0.17999999999999999
sg17
S'Minimal%20Wear'
p645
sg19
g20
sba(i__main__
skin
p646
(dp647
g6
I00
sg7
S'Chroma'
p648
sg8
F0.13
sg9
S'Grotto'
p649
sg11
S'http://steamcommunity.com/market/priceoverview/?currency=13&appid=730&market_hash_name=SCAR-20%20%7C%20Grotto%20%28Minimal%20Wear%29'
p650
sg13
S'SCAR-20'
p651
sg15
I565
sg16
F0.12
sg17
S'Minimal%20Wear'
p652
sg19
g20
sba(i__main__
skin
p653
(dp654
g6
I00
sg7
S'Chroma'
p655
sg8
F0.11
sg9
S'Quicksilver'
p656
sg11
S'http://steamcommunity.com/market/priceoverview/?currency=13&appid=730&market_hash_name=XM1014%20%7C%20Quicksilver%20%28Minimal%20Wear%29'
p657
sg13
S'XM1014'
p658
sg15
I344
sg16
F0.10000000000000001
sg17
S'Minimal%20Wear'
p659
sg19
g20
sba(i__main__
skin
p660
(dp661
g6
I00
sg7
S'Chroma'
p662
sg8
F0.44
sg9
S'Urban Shock'
p663
sg11
S'http://steamcommunity.com/market/priceoverview/?currency=13&appid=730&market_hash_name=Dual Berettas%20%7C%20Urban%20Shock%20%28Minimal%20Wear%29'
p664
sg13
S'Dual Berettas'
p665
sg15
I429
sg16
F0.46000000000000002
sg17
S'Minimal%20Wear'
p666
sg19
g63
sba(i__main__
skin
p667
(dp668
g6
I00
sg7
S'Chroma'
p669
sg8
F0.52000000000000002
sg9
S'Naga'
p670
sg11
S'http://steamcommunity.com/market/priceoverview/?currency=13&appid=730&market_hash_name=Desert Eagle%20%7C%20Naga%20%28Minimal%20Wear%29'
p671
sg13
S'Desert Eagle'
p672
sg15
I701
sg16
F0.52000000000000002
sg17
S'Minimal%20Wear'
p673
sg19
g63
sba(i__main__
skin
p674
(dp675
g6
I00
sg7
S'Chroma'
p676
sg8
F0.46999999999999997
sg9
S'Malachite'
p677
sg11
S'http://steamcommunity.com/market/priceoverview/?currency=13&appid=730&market_hash_name=MAC-10%20%7C%20Malachite%20%28Minimal%20Wear%29'
p678
sg13
S'MAC-10'
p679
sg15
I366
sg16
F0.47999999999999998
sg17
S'Minimal%20Wear'
p680
sg19
g63
sba(i__main__
skin
p681
(dp682
g6
I00
sg7
S'Chroma'
p683
sg8
F0.46000000000000002
sg9
S'Serenity'
p684
sg11
S'http://steamcommunity.com/market/priceoverview/?currency=13&appid=730&market_hash_name=Sawed-Off%20%7C%20Serenity%20%28Minimal%20Wear%29'
p685
sg13
S'Sawed-Off'
p686
sg15
I328
sg16
F0.5
sg17
S'Minimal%20Wear'
p687
sg19
g63
sba(i__main__
skin
p688
(dp689
g6
I00
sg7
S'Chroma'
p690
sg8
F2.3500000000000001
sg9
S'Cartel'
p691
sg11
S'http://steamcommunity.com/market/priceoverview/?currency=13&appid=730&market_hash_name=AK-47%20%7C%20Cartel%20%28Minimal%20Wear%29'
p692
sg13
S'AK-47'
p693
sg15
I0
sg16
F2.6000000000000001
sg17
S'Minimal%20Wear'
p694
sg19
g92
sba(i__main__
skin
p695
(dp696
g6
I00
sg7
S'Chroma'
p697
sg8
F6.2000000000000002
sg9
S'\xe9\xbe\x8d\xe7\x8e\x8b (Dragon King)'
p698
sg11
S'http://steamcommunity.com/market/priceoverview/?currency=13&appid=730&market_hash_name=M4A4%20%7C%20%E9%BE%8D%E7%8E%8B%20%28Dragon%20King%29%20%28Minimal%20Wear%29'
p699
sg13
S'M4A4'
p700
sg15
I934
sg16
F6.4800000000000004
sg17
S'Minimal%20Wear'
p701
sg19
g92
sba(i__main__
skin
p702
(dp703
g6
I00
sg7
S'Chroma'
p704
sg8
F2.0699999999999998
sg9
S'Muertos'
p705
sg11
S'http://steamcommunity.com/market/priceoverview/?currency=13&appid=730&market_hash_name=P250%20%7C%20Muertos%20%28Minimal%20Wear%29'
p706
sg13
S'P250'
p707
sg15
I616
sg16
F2.04
sg17
S'Minimal%20Wear'
p708
sg19
g92
sba(i__main__
skin
p709
(dp710
g6
I00
sg7
S'Chroma'
p711
sg8
F13.960000000000001
sg9
S"Man-o'-war"
p712
sg11
S'http://steamcommunity.com/market/priceoverview/?currency=13&appid=730&market_hash_name=AWP%20%7C%20Man-o%27-war%20%28Minimal%20Wear%29'
p713
sg13
S'AWP'
p714
sg15
I848
sg16
F14.31
sg17
S'Minimal%20Wear'
p715
sg19
g114
sba(i__main__
skin
p716
(dp717
g6
I00
sg7
S'Chroma'
p718
sg9
S'Chatterbox'
p719
sg11
S'http://steamcommunity.com/market/priceoverview/?currency=13&appid=730&market_hash_name=Galil AR%20%7C%20Chatterbox%20%28Minimal%20Wear%29'
p720
sg13
S'Galil AR'
p721
sg17
S'Minimal%20Wear'
p722
sg19
g114
sbasS'Lake'
p723
(lp724
(i__main__
skin
p725
(dp726
g6
I00
sg7
g723
sg8
F0.28999999999999998
sg9
S'Cobalt Quartz'
p727
sg11
S'http://steamcommunity.com/market/priceoverview/?currency=13&appid=730&market_hash_name=Dual Berettas%20%7C%20Cobalt%20Quartz%20%28Minimal%20Wear%29'
p728
sg13
S'Dual Berettas'
p729
sg15
I0
sg16
F0.29999999999999999
sg17
S'Minimal%20Wear'
p730
sg19
g63
sba(i__main__
skin
p731
(dp732
g6
I00
sg7
S'Lake'
p733
sg8
F0.19
sg9
S'Night Ops'
p734
sg11
S'http://steamcommunity.com/market/priceoverview/?currency=13&appid=730&market_hash_name=USP-S%20%7C%20Night%20Ops%20%28Minimal%20Wear%29'
p735
sg13
S'USP-S'
p736
sg15
I980
sg16
F0.17999999999999999
sg17
S'Minimal%20Wear'
p737
sg19
g20
sba(i__main__
skin
p738
(dp739
g6
I00
sg7
S'Lake'
p740
sg8
F0.16
sg9
S'Teardown'
p741
sg11
S'http://steamcommunity.com/market/priceoverview/?currency=13&appid=730&market_hash_name=P90%20%7C%20Teardown%20%28Minimal%20Wear%29'
p742
sg13
S'P90'
p743
sg15
I721
sg16
F0.14999999999999999
sg17
S'Minimal%20Wear'
p744
sg19
g20
sba(i__main__
skin
p745
(dp746
g6
I00
sg7
S'Lake'
p747
sg8
F0.38
sg9
S'Anodized Navy'
p748
sg11
S'http://steamcommunity.com/market/priceoverview/?currency=13&appid=730&market_hash_name=SG 553%20%7C%20Anodized%20Navy%20%28Minimal%20Wear%29'
p749
sg13
S'SG 553'
p750
sg15
I64
sg16
F0.38
sg17
S'Minimal%20Wear'
p751
sg19
g20
sba(i__main__
skin
p752
(dp753
g6
I00
sg7
S'Lake'
p754
sg8
F0.059999999999999998
sg9
S'Mudder'
p755
sg11
S'http://steamcommunity.com/market/priceoverview/?currency=13&appid=730&market_hash_name=Desert Eagle%20%7C%20Mudder%20%28Minimal%20Wear%29'
p756
sg13
S'Desert Eagle'
p757
sg15
I812
sg16
F0.080000000000000002
sg17
S'Minimal%20Wear'
p758
sg19
g396
sba(i__main__
skin
p759
(dp760
g6
I00
sg7
S'Lake'
p761
sg8
F0.45000000000000001
sg9
S'Safari Mesh'
p762
sg11
S'http://steamcommunity.com/market/priceoverview/?currency=13&appid=730&market_hash_name=AWP%20%7C%20Safari%20Mesh%20%28Minimal%20Wear%29'
p763
sg13
S'AWP'
p764
sg15
I0
sg16
F0.41999999999999998
sg17
S'Minimal%20Wear'
p765
sg19
g396
sba(i__main__
skin
p766
(dp767
g6
I00
sg7
S'Lake'
p768
sg8
F0.040000000000000001
sg9
S'Night Ops'
p769
sg11
S'http://steamcommunity.com/market/priceoverview/?currency=13&appid=730&market_hash_name=PP-Bizon%20%7C%20Night%20Ops%20%28Minimal%20Wear%29'
p770
sg13
S'PP-Bizon'
p771
sg15
I642
sg16
F0.059999999999999998
sg17
S'Minimal%20Wear'
p772
sg19
g396
sba(i__main__
skin
p773
(dp774
g6
I00
sg7
S'Lake'
p775
sg8
F0.070000000000000007
sg9
S'Cyanospatter'
p776
sg11
S'http://steamcommunity.com/market/priceoverview/?currency=13&appid=730&market_hash_name=FAMAS%20%7C%20Cyanospatter%20%28Minimal%20Wear%29'
p777
sg13
S'FAMAS'
p778
sg15
I633
sg16
F0.070000000000000007
sg17
S'Minimal%20Wear'
p779
sg19
g396
sba(i__main__
skin
p780
(dp781
g6
I00
sg7
S'Lake'
p782
sg8
F0.070000000000000007
sg9
S'Blue Steel'
p783
sg11
S'http://steamcommunity.com/market/priceoverview/?currency=13&appid=730&market_hash_name=XM1014%20%7C%20Blue%20Steel%20%28Minimal%20Wear%29'
p784
sg13
S'XM1014'
p785
sg15
I517
sg16
F0.059999999999999998
sg17
S'Minimal%20Wear'
p786
sg19
g396
sba(i__main__
skin
p787
(dp788
g6
I00
sg7
S'Lake'
p789
sg8
F0.02
sg9
S'Boreal Forest'
p790
sg11
S'http://steamcommunity.com/market/priceoverview/?currency=13&appid=730&market_hash_name=P250%20%7C%20Boreal%20Forest%20%28Minimal%20Wear%29'
p791
sg13
S'P250'
p792
sg15
I0
sg16
F0.040000000000000001
sg17
S'Minimal%20Wear'
p793
sg19
g439
sba(i__main__
skin
p794
(dp795
g6
I00
sg7
S'Lake'
p796
sg8
F0.02
sg9
S'Blue Spruce'
p797
sg11
S'http://steamcommunity.com/market/priceoverview/?currency=13&appid=730&market_hash_name=XM1014%20%7C%20Blue%20Spruce%20%28Minimal%20Wear%29'
p798
sg13
S'XM1014'
p799
sg15
I819
sg16
F0.040000000000000001
sg17
S'Minimal%20Wear'
p800
sg19
g439
sba(i__main__
skin
p801
(dp802
g6
I00
sg7
S'Lake'
p803
sg8
F0.050000000000000003
sg9
S'Storm'
p804
sg11
S'http://steamcommunity.com/market/priceoverview/?currency=13&appid=730&market_hash_name=AUG%20%7C%20Storm%20%28Minimal%20Wear%29'
p805
sg13
S'AUG'
p806
sg15
I0
sg16
F0.040000000000000001
sg17
S'Minimal%20Wear'
p807
sg19
g439
sba(i__main__
skin
p808
(dp809
g6
I00
sg7
S'Lake'
p810
sg8
F0.02
sg9
S'Sage Spray'
p811
sg11
S'http://steamcommunity.com/market/priceoverview/?currency=13&appid=730&market_hash_name=Galil AR%20%7C%20Sage%20Spray%20%28Minimal%20Wear%29'
p812
sg13
S'Galil AR'
p813
sg15
I971
sg16
F0.040000000000000001
sg17
S'Minimal%20Wear'
p814
sg19
g439
sba(i__main__
skin
p815
(dp816
g6
I00
sg7
S'Lake'
p817
sg8
F0.02
sg9
S'Waves Perforated'
p818
sg11
S'http://steamcommunity.com/market/priceoverview/?currency=13&appid=730&market_hash_name=SG 553%20%7C%20Waves%20Perforated%20%28Minimal%20Wear%29'
p819
sg13
S'SG 553'
p820
sg15
I0
sg16
F0.040000000000000001
sg17
S'Minimal%20Wear'
p821
sg19
g439
sba(i__main__
skin
p822
(dp823
g6
I00
sg7
S'Lake'
p824
sg8
F0.029999999999999999
sg9
S'Jungle Dashed'
p825
sg11
S'http://steamcommunity.com/market/priceoverview/?currency=13&appid=730&market_hash_name=G3SG1%20%7C%20Jungle%20Dashed%20%28Minimal%20Wear%29'
p826
sg13
S'G3SG1'
p827
sg15
I845
sg16
F0.040000000000000001
sg17
S'Minimal%20Wear'
p828
sg19
g439
sbasS'Breakout'
p829
(lp830
(i__main__
skin
p831
(dp832
g6
I00
sg7
g829
sg8
F0.10000000000000001
sg9
S'Urban Hazard'
p833
sg11
S'http://steamcommunity.com/market/priceoverview/?currency=13&appid=730&market_hash_name=MP7%20%7C%20Urban%20Hazard%20%28Minimal%20Wear%29'
p834
sg13
S'MP7'
p835
sg15
I0
sg16
F0.10000000000000001
sg17
S'Minimal%20Wear'
p836
sg19
g20
sba(i__main__
skin
p837
(dp838
g6
I00
sg7
S'Breakout'
p839
sg8
F0.089999999999999997
sg9
S'Desert-Strike'
p840
sg11
S'http://steamcommunity.com/market/priceoverview/?currency=13&appid=730&market_hash_name=Negev%20%7C%20Desert-Strike%20%28Minimal%20Wear%29'
p841
sg13
S'Negev'
p842
sg15
I477
sg16
F0.11
sg17
S'Minimal%20Wear'
p843
sg19
g20
sba(i__main__
skin
p844
(dp845
g6
I00
sg7
S'Breakout'
p846
sg8
F0.10000000000000001
sg9
S'Ivory'
p847
sg11
S'http://steamcommunity.com/market/priceoverview/?currency=13&appid=730&market_hash_name=P2000%20%7C%20Ivory%20%28Minimal%20Wear%29'
p848
sg13
S'P2000'
p849
sg15
I973
sg16
F0.10000000000000001
sg17
S'Minimal%20Wear'
p850
sg19
g20
sba(i__main__
skin
p851
(dp852
g6
I00
sg7
S'Breakout'
p853
sg8
F0.20999999999999999
sg9
S'Abyss'
p854
sg11
S'http://steamcommunity.com/market/priceoverview/?currency=13&appid=730&market_hash_name=SSG 08%20%7C%20Abyss%20%28Minimal%20Wear%29'
p855
sg13
S'SSG 08'
p856
sg15
I0
sg16
F0.20000000000000001
sg17
S'Minimal%20Wear'
p857
sg19
g20
sba(i__main__
skin
p858
(dp859
g6
I00
sg7
S'Breakout'
p860
sg8
F0.089999999999999997
sg9
S'Labyrinth'
p861
sg11
S'http://steamcommunity.com/market/priceoverview/?currency=13&appid=730&market_hash_name=UMP-45%20%7C%20Labyrinth%20%28Minimal%20Wear%29'
p862
sg13
S'UMP-45'
p863
sg15
I720
sg16
F0.10000000000000001
sg17
S'Minimal%20Wear'
p864
sg19
g20
sba(i__main__
skin
p865
(dp866
g6
I00
sg7
S'Breakout'
p867
sg8
F0.38
sg9
S'Osiris'
p868
sg11
S'http://steamcommunity.com/market/priceoverview/?currency=13&appid=730&market_hash_name=PP-Bizon%20%7C%20Osiris%20%28Minimal%20Wear%29'
p869
sg13
S'PP-Bizon'
p870
sg15
I0
sg16
F0.38
sg17
S'Minimal%20Wear'
p871
sg19
g63
sba(i__main__
skin
p872
(dp873
g6
I00
sg7
S'Breakout'
p874
sg8
F0.40999999999999998
sg9
S'Tigris'
p875
sg11
S'http://steamcommunity.com/market/priceoverview/?currency=13&appid=730&market_hash_name=CZ75-Auto%20%7C%20Tigris%20%28Minimal%20Wear%29'
p876
sg13
S'CZ75-Auto'
p877
sg15
I858
sg16
F0.42999999999999999
sg17
S'Minimal%20Wear'
p878
sg19
g63
sba(i__main__
skin
p879
(dp880
g6
I00
sg7
S'Breakout'
p881
sg8
F0.40000000000000002
sg9
S'Koi'
p882
sg11
S'http://steamcommunity.com/market/priceoverview/?currency=13&appid=730&market_hash_name=Nova%20%7C%20Koi%20%28Minimal%20Wear%29'
p883
sg13
S'Nova'
p884
sg15
I824
sg16
F0.37
sg17
S'Minimal%20Wear'
p885
sg19
g63
sba(i__main__
skin
p886
(dp887
g6
I00
sg7
S'Breakout'
p888
sg8
F0.37
sg9
S'Supernova'
p889
sg11
S'http://steamcommunity.com/market/priceoverview/?currency=13&appid=730&market_hash_name=P250%20%7C%20Supernova%20%28Minimal%20Wear%29'
p890
sg13
S'P250'
p891
sg15
I0
sg16
F0.34999999999999998
sg17
S'Minimal%20Wear'
p892
sg19
g63
sba(i__main__
skin
p893
(dp894
g6
I00
sg7
S'Breakout'
p895
sg8
F2.3599999999999999
sg9
S'Conspiracy'
p896
sg11
S'http://steamcommunity.com/market/priceoverview/?currency=13&appid=730&market_hash_name=Desert Eagle%20%7C%20Conspiracy%20%28Minimal%20Wear%29'
p897
sg13
S'Desert Eagle'
p898
sg15
I0
sg16
F2.3199999999999998
sg17
S'Minimal%20Wear'
p899
sg19
g92
sba(i__main__
skin
p900
(dp901
g6
I00
sg7
S'Breakout'
p902
sg8
F2.1600000000000001
sg9
S'Fowl Play'
p903
sg11
S'http://steamcommunity.com/market/priceoverview/?currency=13&appid=730&market_hash_name=Five-SeveN%20%7C%20Fowl%20Play%20%28Minimal%20Wear%29'
p904
sg13
S'Five-SeveN'
p905
sg15
I323
sg16
F2.1600000000000001
sg17
S'Minimal%20Wear'
p906
sg19
g92
sba(i__main__
skin
p907
(dp908
g6
I00
sg7
S'Breakout'
p909
sg8
F4.8300000000000001
sg9
S'Water Elemental'
p910
sg11
S'http://steamcommunity.com/market/priceoverview/?currency=13&appid=730&market_hash_name=Glock-18%20%7C%20Water%20Elemental%20%28Minimal%20Wear%29'
p911
sg13
S'Glock-18'
p912
sg15
I0
sg16
F4.7999999999999998
sg17
S'Minimal%20Wear'
p913
sg19
g92
sba(i__main__
skin
p914
(dp915
g6
I00
sg7
S'Breakout'
p916
sg8
F13.56
sg9
S'Asiimov'
p917
sg11
S'http://steamcommunity.com/market/priceoverview/?currency=13&appid=730&market_hash_name=P90%20%7C%20Asiimov%20%28Minimal%20Wear%29'
p918
sg13
S'P90'
p919
sg15
I270
sg16
F13.470000000000001
sg17
S'Minimal%20Wear'
p920
sg19
g114
sba(i__main__
skin
p921
(dp922
g6
I00
sg7
S'Breakout'
p923
sg8
F17.510000000000002
sg9
S'Cyrex'
p924
sg11
S'http://steamcommunity.com/market/priceoverview/?currency=13&appid=730&market_hash_name=M4A1-S%20%7C%20Cyrex%20%28Minimal%20Wear%29'
p925
sg13
S'M4A1-S'
p926
sg15
I447
sg16
F16.82
sg17
S'Minimal%20Wear'
p927
sg19
g114
sbasS'Rising Sun'
p928
(lp929
(i__main__
skin
p930
(dp931
g6
I00
sg7
g928
sg8
F0.33000000000000002
sg9
S'Bamboo Print'
p932
sg11
S'http://steamcommunity.com/market/priceoverview/?currency=13&appid=730&market_hash_name=PP-Bizon%20%7C%20Bamboo%20Print%20%28Minimal%20Wear%29'
p933
sg13
S'PP-Bizon'
p934
sg15
I114
sg16
F0.34000000000000002
sg17
S'Minimal%20Wear'
p935
sg19
g439
sba(i__main__
skin
p936
(dp937
g6
I00
sg7
S'Rising Sun'
p938
sg8
F0.34999999999999998
sg9
S'Bamboo Shadow'
p939
sg11
S'http://steamcommunity.com/market/priceoverview/?currency=13&appid=730&market_hash_name=Sawed-Off%20%7C%20Bamboo%20Shadow%20%28Minimal%20Wear%29'
p940
sg13
S'Sawed-Off'
p941
sg15
I128
sg16
F0.35999999999999999
sg17
S'Minimal%20Wear'
p942
sg19
g439
sba(i__main__
skin
p943
(dp944
g6
I00
sg7
S'Rising Sun'
p945
sg8
F0.44
sg9
S'Bamboo Forest'
p946
sg11
S'http://steamcommunity.com/market/priceoverview/?currency=13&appid=730&market_hash_name=Tec-9%20%7C%20Bamboo%20Forest%20%28Minimal%20Wear%29'
p947
sg13
S'Tec-9'
p948
sg15
I775
sg16
F0.46999999999999997
sg17
S'Minimal%20Wear'
p949
sg19
g439
sba(i__main__
skin
p950
(dp951
g6
I00
sg7
S'Rising Sun'
p952
sg8
F0.27000000000000002
sg9
S'Orange Kimono'
p953
sg11
S'http://steamcommunity.com/market/priceoverview/?currency=13&appid=730&market_hash_name=G3SG1%20%7C%20Orange%20Kimono%20%28Minimal%20Wear%29'
p954
sg13
S'G3SG1'
p955
sg15
I215
sg16
F0.29999999999999999
sg17
S'Minimal%20Wear'
p956
sg19
g439
sba(i__main__
skin
p957
(dp958
g6
I00
sg7
S'Rising Sun'
p959
sg8
F0.27000000000000002
sg9
S'Mint Kimono'
p960
sg11
S'http://steamcommunity.com/market/priceoverview/?currency=13&appid=730&market_hash_name=P250%20%7C%20Mint%20Kimono%20%28Minimal%20Wear%29'
p961
sg13
S'P250'
p962
sg15
I341
sg16
F0.25
sg17
S'Minimal%20Wear'
p963
sg19
g439
sba(i__main__
skin
p964
(dp965
g6
I00
sg7
S'Rising Sun'
p966
sg8
F0.96999999999999997
sg9
S'Crimson Kimono'
p967
sg11
S'http://steamcommunity.com/market/priceoverview/?currency=13&appid=730&market_hash_name=P250%20%7C%20Crimson%20Kimono%20%28Minimal%20Wear%29'
p968
sg13
S'P250'
p969
sg15
I164
sg16
F0.88
sg17
S'Minimal%20Wear'
p970
sg19
g396
sba(i__main__
skin
p971
(dp972
g6
I00
sg7
S'Rising Sun'
p973
sg8
F3.1400000000000001
sg9
S'Midnight Storm'
p974
sg11
S'http://steamcommunity.com/market/priceoverview/?currency=13&appid=730&market_hash_name=Desert Eagle%20%7C%20Midnight%20Storm%20%28Minimal%20Wear%29'
p975
sg13
S'Desert Eagle'
p976
sg15
I301
sg16
F3.1400000000000001
sg17
S'Minimal%20Wear'
p977
sg19
g396
sba(i__main__
skin
p978
(dp979
g6
I00
sg7
S'Rising Sun'
p980
sg8
F5.7199999999999998
sg9
S'Aqua Terrace'
p981
sg11
S'http://steamcommunity.com/market/priceoverview/?currency=13&appid=730&market_hash_name=Galil AR%20%7C%20Aqua%20Terrace%20%28Minimal%20Wear%29'
p982
sg13
S'Galil AR'
p983
sg15
I5
sg16
F6.3499999999999996
sg17
S'Minimal%20Wear'
p984
sg19
g20
sba(i__main__
skin
p985
(dp986
g6
I00
sg7
S'Rising Sun'
p987
sg8
F5.9400000000000004
sg9
S'Counter Terrace'
p988
sg11
S'http://steamcommunity.com/market/priceoverview/?currency=13&appid=730&market_hash_name=MAG-7%20%7C%20Counter%20Terrace%20%28Minimal%20Wear%29'
p989
sg13
S'MAG-7'
p990
sg15
I2
sg16
F6.2699999999999996
sg17
S'Minimal%20Wear'
p991
sg19
g20
sba(i__main__
skin
p992
(dp993
g6
I00
sg7
S'Rising Sun'
p994
sg8
F6.1799999999999997
sg9
S'Terrace'
p995
sg11
S'http://steamcommunity.com/market/priceoverview/?currency=13&appid=730&market_hash_name=Tec-9%20%7C%20Terrace%20%28Minimal%20Wear%29'
p996
sg13
S'Tec-9'
p997
sg15
I28
sg16
F6.1799999999999997
sg17
S'Minimal%20Wear'
p998
sg19
g20
sba(i__main__
skin
p999
(dp1000
g6
I00
sg7
S'Rising Sun'
p1001
sg8
F31.280000000000001
sg9
S'Neon Kimono'
p1002
sg11
S'http://steamcommunity.com/market/priceoverview/?currency=13&appid=730&market_hash_name=Five-SeveN%20%7C%20Neon%20Kimono%20%28Minimal%20Wear%29'
p1003
sg13
S'Five-SeveN'
p1004
sg15
I4
sg16
F30.52
sg17
S'Minimal%20Wear'
p1005
sg19
g63
sba(i__main__
skin
p1006
(dp1007
g6
I00
sg7
S'Rising Sun'
p1008
sg8
F23.870000000000001
sg9
S'Sunset Storm \xe5\xa3\xb1'
p1009
sg11
S'http://steamcommunity.com/market/priceoverview/?currency=13&appid=730&market_hash_name=Desert Eagle%20%7C%20Sunset%20Storm%20%E5%A3%B1%20%28Minimal%20Wear%29'
p1010
sg13
S'Desert Eagle'
p1011
sg15
I4
sg16
F26.370000000000001
sg17
S'Minimal%20Wear'
p1012
sg19
g63
sba(i__main__
skin
p1013
(dp1014
g6
I00
sg7
S'Rising Sun'
p1015
sg8
F21.920000000000002
sg9
S'Sunset Storm \xe5\xbc\x90'
p1016
sg11
S'http://steamcommunity.com/market/priceoverview/?currency=13&appid=730&market_hash_name=Desert Eagle%20%7C%20Sunset%20Storm%20%E5%BC%90%20%28Minimal%20Wear%29'
p1017
sg13
S'Desert Eagle'
p1018
sg15
I6
sg16
F24.280000000000001
sg17
S'Minimal%20Wear'
p1019
sg19
g63
sba(i__main__
skin
p1020
(dp1021
g6
I00
sg7
S'Rising Sun'
p1022
sg8
F27.850000000000001
sg9
S'Daybreak'
p1023
sg11
S'http://steamcommunity.com/market/priceoverview/?currency=13&appid=730&market_hash_name=M4A4%20%7C%20Daybreak%20%28Minimal%20Wear%29'
p1024
sg13
S'M4A4'
p1025
sg15
I28
sg16
F25.960000000000001
sg17
S'Minimal%20Wear'
p1026
sg19
g63
sba(i__main__
skin
p1027
(dp1028
g6
I00
sg7
S'Rising Sun'
p1029
sg8
F487.33999999999997
sg9
S'Akihabara Accept'
p1030
sg11
S'http://steamcommunity.com/market/priceoverview/?currency=13&appid=730&market_hash_name=AUG%20%7C%20Akihabara%20Accept%20%28Minimal%20Wear%29'
p1031
sg13
S'AUG'
p1032
sg15
I2
sg16
F509.62
sg17
S'Minimal%20Wear'
p1033
sg19
g114
sba(i__main__
skin
p1034
(dp1035
g6
I00
sg7
S'Rising Sun'
p1036
sg8
F189.93000000000001
sg9
S'Hydroponic'
p1037
sg11
S'http://steamcommunity.com/market/priceoverview/?currency=13&appid=730&market_hash_name=AK-47%20%7C%20Hydroponic%20%28Minimal%20Wear%29'
p1038
sg13
S'AK-47'
p1039
sg15
I4
sg16
F202.53
sg17
S'Minimal%20Wear'
p1040
sg19
g92
sbasS'Inferno'
p1041
(lp1042
(i__main__
skin
p1043
(dp1044
g6
I00
sg7
g1041
sg8
F1.54
sg9
S'Brass'
p1045
sg11
S'http://steamcommunity.com/market/priceoverview/?currency=13&appid=730&market_hash_name=Tec-9%20%7C%20Brass%20%28Minimal%20Wear%29'
p1046
sg13
S'Tec-9'
p1047
sg15
I38
sg16
F2.0299999999999998
sg17
S'Minimal%20Wear'
p1048
sg19
g20
sba(i__main__
skin
p1049
(dp1050
g6
I00
sg7
S'Inferno'
p1051
sg8
I-1
sg9
S'Anodized Navy'
p1052
sg11
S'http://steamcommunity.com/market/priceoverview/?currency=13&appid=730&market_hash_name=Dual Berettas%20%7C%20Anodized%20Navy%20%28Minimal%20Wear%29'
p1053
sg13
S'Dual Berettas'
p1054
sg15
I0
sg16
F1.4199999999999999
sg17
S'Minimal%20Wear'
p1055
sg19
g20
sba(i__main__
skin
p1056
(dp1057
g6
I00
sg7
S'Inferno'
p1058
sg8
F1.5600000000000001
sg9
S'Tornado'
p1059
sg11
S'http://steamcommunity.com/market/priceoverview/?currency=13&appid=730&market_hash_name=M4A4%20%7C%20Tornado%20%28Minimal%20Wear%29'
p1060
sg13
S'M4A4'
p1061
sg15
I114
sg16
F1.4199999999999999
sg17
S'Minimal%20Wear'
p1062
sg19
g396
sba(i__main__
skin
p1063
(dp1064
g6
I00
sg7
S'Inferno'
p1065
sg8
F1.1000000000000001
sg9
S'Gunsmoke'
p1066
sg11
S'http://steamcommunity.com/market/priceoverview/?currency=13&appid=730&market_hash_name=P250%20%7C%20Gunsmoke%20%28Minimal%20Wear%29'
p1067
sg13
S'P250'
p1068
sg15
I78
sg16
F0.96999999999999997
sg17
S'Minimal%20Wear'
p1069
sg19
g396
sba(i__main__
skin
p1070
(dp1071
g6
I00
sg7
S'Inferno'
p1072
sg8
F0.46999999999999997
sg9
S'Walnut'
p1073
sg11
S'http://steamcommunity.com/market/priceoverview/?currency=13&appid=730&market_hash_name=Nova%20%7C%20Walnut%20%28Minimal%20Wear%29'
p1074
sg13
S'Nova'
p1075
sg15
I62
sg16
F0.48999999999999999
sg17
S'Minimal%20Wear'
p1076
sg19
g439
sba(i__main__
skin
p1077
(dp1078
g6
I00
sg7
S'Inferno'
p1079
sg8
F0.38
sg9
S'Sand Dune'
p1080
sg11
S'http://steamcommunity.com/market/priceoverview/?currency=13&appid=730&market_hash_name=MAG-7%20%7C%20Sand%20Dune%20%28Minimal%20Wear%29'
p1081
sg13
S'MAG-7'
p1082
sg15
I20
sg16
F0.35999999999999999
sg17
S'Minimal%20Wear'
p1083
sg19
g439
sbasS'Shadow Case'
p1084
(lp1085
(i__main__
skin
p1086
(dp1087
g6
I00
sg7
g1084
sg8
F0.17000000000000001
sg9
S'Dualing Dragons'
p1088
sg11
S'http://steamcommunity.com/market/priceoverview/?currency=13&appid=730&market_hash_name=Dual Berettas%20%7C%20Dualing%20Dragons%20%28Minimal%20Wear%29'
p1089
sg13
S'Dual Berettas'
p1090
sg15
I0
sg16
F0.16
sg17
S'Minimal%20Wear'
p1091
sg19
g20
sba(i__main__
skin
p1092
(dp1093
g6
I00
sg7
S'Shadow Case'
p1094
sg8
F0.16
sg9
S'Survivor Z'
p1095
sg11
S'http://steamcommunity.com/market/priceoverview/?currency=13&appid=730&market_hash_name=FAMAS%20%7C%20Survivor%20Z%20%28Minimal%20Wear%29'
p1096
sg13
S'FAMAS'
p1097
sg15
I0
sg16
F0.14999999999999999
sg17
S'Minimal%20Wear'
p1098
sg19
g20
sba(i__main__
skin
p1099
(dp1100
g6
I00
sg7
S'Shadow Case'
p1101
sg8
F0.12
sg9
S'Wraiths'
p1102
sg11
S'http://steamcommunity.com/market/priceoverview/?currency=13&appid=730&market_hash_name=Glock-18%20%7C%20Wraiths%20%28Minimal%20Wear%29'
p1103
sg13
S'Glock-18'
p1104
sg15
I0
sg16
F0.13
sg17
S'Minimal%20Wear'
p1105
sg19
g20
sba(i__main__
skin
p1106
(dp1107
g6
I00
sg7
S'Shadow Case'
p1108
sg8
F0.089999999999999997
sg9
S'Rangeen'
p1109
sg11
S'http://steamcommunity.com/market/priceoverview/?currency=13&appid=730&market_hash_name=MAC-10%20%7C%20Rangeen%20%28Minimal%20Wear%29'
p1110
sg13
S'MAC-10'
p1111
sg15
I0
sg16
F0.10000000000000001
sg17
S'Minimal%20Wear'
p1112
sg19
g20
sba(i__main__
skin
p1113
(dp1114
g6
I00
sg7
S'Shadow Case'
p1115
sg8
F0.10000000000000001
sg9
S'Cobalt Core'
p1116
sg11
S'http://steamcommunity.com/market/priceoverview/?currency=13&appid=730&market_hash_name=MAG-7%20%7C%20Cobalt%20Core%20%28Minimal%20Wear%29'
p1117
sg13
S'MAG-7'
p1118
sg15
I0
sg16
F0.10000000000000001
sg17
S'Minimal%20Wear'
p1119
sg19
g20
sba(i__main__
skin
p1120
(dp1121
g6
I00
sg7
S'Shadow Case'
p1122
sg8
F0.12
sg9
S'Green Marine'
p1123
sg11
S'http://steamcommunity.com/market/priceoverview/?currency=13&appid=730&market_hash_name=SCAR-20%20%7C%20Green%20Marine%20%28Minimal%20Wear%29'
p1124
sg13
S'SCAR-20'
p1125
sg15
I609
sg16
F0.10000000000000001
sg17
S'Minimal%20Wear'
p1126
sg19
g20
sba(i__main__
skin
p1127
(dp1128
g6
I00
sg7
S'Shadow Case'
p1129
sg8
F0.080000000000000002
sg9
S'Scumbria'
p1130
sg11
S'http://steamcommunity.com/market/priceoverview/?currency=13&appid=730&market_hash_name=XM1014%20%7C%20Scumbria%20%28Minimal%20Wear%29'
p1131
sg13
S'XM1014'
p1132
sg15
I586
sg16
F0.10000000000000001
sg17
S'Minimal%20Wear'
p1133
sg19
g20
sba(i__main__
skin
p1134
(dp1135
g6
I00
sg7
S'Shadow Case'
p1136
sg8
F0.84999999999999998
sg9
S'Stone Cold'
p1137
sg11
S'http://steamcommunity.com/market/priceoverview/?currency=13&appid=730&market_hash_name=Galil AR%20%7C%20Stone%20Cold%20%28Minimal%20Wear%29'
p1138
sg13
S'Galil AR'
p1139
sg15
I0
sg16
F0.92000000000000004
sg17
S'Minimal%20Wear'
p1140
sg19
g63
sba(i__main__
skin
p1141
(dp1142
g6
I00
sg7
S'Shadow Case'
p1143
sg8
F0.70999999999999996
sg9
S'Nebula Crusader'
p1144
sg11
S'http://steamcommunity.com/market/priceoverview/?currency=13&appid=730&market_hash_name=M249%20%7C%20Nebula%20Crusader%20%28Minimal%20Wear%29'
p1145
sg13
S'M249'
p1146
sg15
I514
sg16
F0.73999999999999999
sg17
S'Minimal%20Wear'
p1147
sg19
g63
sba(i__main__
skin
p1148
(dp1149
g6
I00
sg7
S'Shadow Case'
p1150
sg8
F0.68999999999999995
sg9
S'Special Delivery'
p1151
sg11
S'http://steamcommunity.com/market/priceoverview/?currency=13&appid=730&market_hash_name=MP7%20%7C%20Special%20Delivery%20%28Minimal%20Wear%29'
p1152
sg13
S'MP7'
p1153
sg15
I869
sg16
F0.66000000000000003
sg17
S'Minimal%20Wear'
p1154
sg19
g63
sba(i__main__
skin
p1155
(dp1156
g6
I00
sg7
S'Shadow Case'
p1157
sg8
F0.79000000000000004
sg9
S'Wingshot'
p1158
sg11
S'http://steamcommunity.com/market/priceoverview/?currency=13&appid=730&market_hash_name=P250%20%7C%20Wingshot%20%28Minimal%20Wear%29'
p1159
sg13
S'P250'
p1160
sg15
I0
sg16
F0.82999999999999996
sg17
S'Minimal%20Wear'
p1161
sg19
g63
sba(i__main__
skin
p1162
(dp1163
g6
I00
sg7
S'Shadow Case'
p1164
sg8
F16.949999999999999
sg9
S'Frontside Misty'
p1165
sg11
S'http://steamcommunity.com/market/priceoverview/?currency=13&appid=730&market_hash_name=AK-47%20%7C%20Frontside%20Misty%20%28Minimal%20Wear%29'
p1166
sg13
S'AK-47'
p1167
sg15
I875
sg16
F18.350000000000001
sg17
S'Minimal%20Wear'
p1168
sg19
g92
sba(i__main__
skin
p1169
(dp1170
g6
I00
sg7
S'Shadow Case'
p1171
sg8
F4.0499999999999998
sg9
S'Flux'
p1172
sg11
S'http://steamcommunity.com/market/priceoverview/?currency=13&appid=730&market_hash_name=G3SG1%20%7C%20Flux%20%28Minimal%20Wear%29'
p1173
sg13
S'G3SG1'
p1174
sg15
I285
sg16
F3.54
sg17
S'Minimal%20Wear'
p1175
sg19
g92
sba(i__main__
skin
p1176
(dp1177
g6
I00
sg7
S'Shadow Case'
p1178
sg8
F4.0800000000000001
sg9
S'Big Iron'
p1179
sg11
S'http://steamcommunity.com/market/priceoverview/?currency=13&appid=730&market_hash_name=SSG 08%20%7C%20Big%20Iron%20%28Minimal%20Wear%29'
p1180
sg13
S'SSG 08'
p1181
sg15
I732
sg16
F4.0499999999999998
sg17
S'Minimal%20Wear'
p1182
sg19
g92
sba(i__main__
skin
p1183
(dp1184
g6
I00
sg7
S'Shadow Case'
p1185
sg8
F44.310000000000002
sg9
S'Golden Coil'
p1186
sg11
S'http://steamcommunity.com/market/priceoverview/?currency=13&appid=730&market_hash_name=M4A1-S%20%7C%20Golden%20Coil%20%28Minimal%20Wear%29'
p1187
sg13
S'M4A1-S'
p1188
sg15
I151
sg16
F39.240000000000002
sg17
S'Minimal%20Wear'
p1189
sg19
g114
sba(i__main__
skin
p1190
(dp1191
g6
I00
sg7
S'Shadow Case'
p1192
sg8
F37.359999999999999
sg9
S'Kill Confirmed'
p1193
sg11
S'http://steamcommunity.com/market/priceoverview/?currency=13&appid=730&market_hash_name=USP-S%20%7C%20Kill%20Confirmed%20%28Minimal%20Wear%29'
p1194
sg13
S'USP-S'
p1195
sg15
I130
sg16
F41.289999999999999
sg17
S'Minimal%20Wear'
p1196
sg19
g114
sbasS'eSports 2013'
p1197
(lp1198
(i__main__
skin
p1199
(dp1200
g6
I00
sg7
g1197
sg8
F0.65000000000000002
sg9
S'Faded Zebra'
p1201
sg11
S'http://steamcommunity.com/market/priceoverview/?currency=13&appid=730&market_hash_name=M4A4%20%7C%20Faded%20Zebra%20%28Minimal%20Wear%29'
p1202
sg13
S'M4A4'
p1203
sg15
I85
sg16
F0.66000000000000003
sg17
S'Minimal%20Wear'
p1204
sg19
g20
sba(i__main__
skin
p1205
(dp1206
g6
I00
sg7
S'eSports 2013'
p1207
sg8
F0.67000000000000004
sg9
S'Doomkitty'
p1208
sg11
S'http://steamcommunity.com/market/priceoverview/?currency=13&appid=730&market_hash_name=FAMAS%20%7C%20Doomkitty%20%28Minimal%20Wear%29'
p1209
sg13
S'FAMAS'
p1210
sg15
I161
sg16
F0.68999999999999995
sg17
S'Minimal%20Wear'
p1211
sg19
g20
sba(i__main__
skin
p1212
(dp1213
g6
I00
sg7
S'eSports 2013'
p1214
sg8
F0.68000000000000005
sg9
S'Memento'
p1215
sg11
S'http://steamcommunity.com/market/priceoverview/?currency=13&appid=730&market_hash_name=MAG-7%20%7C%20Memento%20%28Minimal%20Wear%29'
p1216
sg13
S'MAG-7'
p1217
sg15
I42
sg16
F0.71999999999999997
sg17
S'Minimal%20Wear'
p1218
sg19
g20
sba(i__main__
skin
p1219
(dp1220
g6
I00
sg7
S'eSports 2013'
p1221
sg8
F3.0600000000000001
sg9
S'Orange DDPAT'
p1222
sg11
S'http://steamcommunity.com/market/priceoverview/?currency=13&appid=730&market_hash_name=Sawed-Off%20%7C%20Orange%20DDPAT%20%28Minimal%20Wear%29'
p1223
sg13
S'Sawed-Off'
p1224
sg15
I5
sg16
F4.1399999999999997
sg17
S'Minimal%20Wear'
p1225
sg19
g63
sba(i__main__
skin
p1226
(dp1227
g6
I00
sg7
S'eSports 2013'
p1228
sg8
F3.9399999999999999
sg9
S'Splash'
p1229
sg11
S'http://steamcommunity.com/market/priceoverview/?currency=13&appid=730&market_hash_name=P250%20%7C%20Splash%20%28Minimal%20Wear%29'
p1230
sg13
S'P250'
p1231
sg15
I53
sg16
F4.25
sg17
S'Minimal%20Wear'
p1232
sg19
g63
sba(i__main__
skin
p1233
(dp1234
g6
I00
sg7
S'eSports 2013'
p1235
sg8
F4.5999999999999996
sg9
S'Orange DDPAT'
p1236
sg11
S'http://steamcommunity.com/market/priceoverview/?currency=13&appid=730&market_hash_name=Galil AR%20%7C%20Orange%20DDPAT%20%28Minimal%20Wear%29'
p1237
sg13
S'Galil AR'
p1238
sg15
I18
sg16
F4.5700000000000003
sg17
S'Minimal%20Wear'
p1239
sg19
g63
sba(i__main__
skin
p1240
(dp1241
g6
I00
sg7
S'eSports 2013'
p1242
sg8
F8.9299999999999997
sg9
S'Red Laminate'
p1243
sg11
S'http://steamcommunity.com/market/priceoverview/?currency=13&appid=730&market_hash_name=AK-47%20%7C%20Red%20Laminate%20%28Minimal%20Wear%29'
p1244
sg13
S'AK-47'
p1245
sg15
I95
sg16
F9.6999999999999993
sg17
S'Minimal%20Wear'
p1246
sg19
g92
sba(i__main__
skin
p1247
(dp1248
g6
I00
sg7
S'eSports 2013'
p1249
sg8
F24.84
sg9
S'BOOM'
p1250
sg11
S'http://steamcommunity.com/market/priceoverview/?currency=13&appid=730&market_hash_name=AWP%20%7C%20BOOM%20%28Minimal%20Wear%29'
p1251
sg13
S'AWP'
p1252
sg15
I325
sg16
F25.34
sg17
S'Minimal%20Wear'
p1253
sg19
g92
sba(i__main__
skin
p1254
(dp1255
g6
I00
sg7
S'eSports 2013'
p1256
sg8
F45.090000000000003
sg9
S'Death by Kitty'
p1257
sg11
S'http://steamcommunity.com/market/priceoverview/?currency=13&appid=730&market_hash_name=P90%20%7C%20Death%20by%20Kitty%20%28Minimal%20Wear%29'
p1258
sg13
S'P90'
p1259
sg15
I22
sg16
F43.810000000000002
sg17
S'Minimal%20Wear'
p1260
sg19
g114
sbasS'Phoenix'
p1261
(lp1262
(i__main__
skin
p1263
(dp1264
g6
I00
sg7
g1261
sg8
F0.11
sg9
S'Corporal'
p1265
sg11
S'http://steamcommunity.com/market/priceoverview/?currency=13&appid=730&market_hash_name=UMP-45%20%7C%20Corporal%20%28Minimal%20Wear%29'
p1266
sg13
S'UMP-45'
p1267
sg15
I671
sg16
F0.11
sg17
S'Minimal%20Wear'
p1268
sg19
g20
sba(i__main__
skin
p1269
(dp1270
g6
I00
sg7
S'Phoenix'
p1271
sg8
F0.089999999999999997
sg9
S'Terrain'
p1272
sg11
S'http://steamcommunity.com/market/priceoverview/?currency=13&appid=730&market_hash_name=Negev%20%7C%20Terrain%20%28Minimal%20Wear%29'
p1273
sg13
S'Negev'
p1274
sg15
I608
sg16
F0.11
sg17
S'Minimal%20Wear'
p1275
sg19
g20
sba(i__main__
skin
p1276
(dp1277
g6
I00
sg7
S'Phoenix'
p1278
sg8
F0.28999999999999998
sg9
S'Sandstorm'
p1279
sg11
S'http://steamcommunity.com/market/priceoverview/?currency=13&appid=730&market_hash_name=Tec-9%20%7C%20Sandstorm%20%28Minimal%20Wear%29'
p1280
sg13
S'Tec-9'
p1281
sg15
I431
sg16
F0.27000000000000002
sg17
S'Minimal%20Wear'
p1282
sg19
g20
sba(i__main__
skin
p1283
(dp1284
g6
I00
sg7
S'Phoenix'
p1285
sg8
F0.10000000000000001
sg9
S'Heaven Guard'
p1286
sg11
S'http://steamcommunity.com/market/priceoverview/?currency=13&appid=730&market_hash_name=MAG-7%20%7C%20Heaven%20Guard%20%28Minimal%20Wear%29'
p1287
sg13
S'MAG-7'
p1288
sg15
I861
sg16
F0.10000000000000001
sg17
S'Minimal%20Wear'
p1289
sg19
g20
sba(i__main__
skin
p1290
(dp1291
g6
I00
sg7
S'Phoenix'
p1292
sg8
F0.68999999999999995
sg9
S'Heat'
p1293
sg11
S'http://steamcommunity.com/market/priceoverview/?currency=13&appid=730&market_hash_name=MAC-10%20%7C%20Heat%20%28Minimal%20Wear%29'
p1294
sg13
S'MAC-10'
p1295
sg15
I275
sg16
F0.76000000000000001
sg17
S'Minimal%20Wear'
p1296
sg19
g63
sba(i__main__
skin
p1297
(dp1298
g6
I00
sg7
S'Phoenix'
p1299
sg8
F0.98999999999999999
sg9
S'Pulse'
p1300
sg11
S'http://steamcommunity.com/market/priceoverview/?currency=13&appid=730&market_hash_name=SG 553%20%7C%20Pulse%20%28Minimal%20Wear%29'
p1301
sg13
S'SG 553'
p1302
sg15
I435
sg16
F1.0900000000000001
sg17
S'Minimal%20Wear'
p1303
sg19
g63
sba(i__main__
skin
p1304
(dp1305
g6
I00
sg7
S'Phoenix'
p1306
sg8
F1.0800000000000001
sg9
S'Sergeant'
p1307
sg11
S'http://steamcommunity.com/market/priceoverview/?currency=13&appid=730&market_hash_name=FAMAS%20%7C%20Sergeant%20%28Minimal%20Wear%29'
p1308
sg13
S'FAMAS'
p1309
sg15
I79
sg16
F1.0900000000000001
sg17
S'Minimal%20Wear'
p1310
sg19
g63
sba(i__main__
skin
p1311
(dp1312
g6
I00
sg7
S'Phoenix'
p1313
sg8
F0.73999999999999999
sg9
S'Guardian'
p1314
sg11
S'http://steamcommunity.com/market/priceoverview/?currency=13&appid=730&market_hash_name=USP-S%20%7C%20Guardian%20%28Minimal%20Wear%29'
p1315
sg13
S'USP-S'
p1316
sg15
I0
sg16
F0.69999999999999996
sg17
S'Minimal%20Wear'
p1317
sg19
g63
sba(i__main__
skin
p1318
(dp1319
g6
I00
sg7
S'Phoenix'
p1320
sg8
F17.989999999999998
sg9
S'Redline'
p1321
sg11
S'http://steamcommunity.com/market/priceoverview/?currency=13&appid=730&market_hash_name=AK-47%20%7C%20Redline%20%28Minimal%20Wear%29'
p1322
sg13
S'AK-47'
p1323
sg15
I164
sg16
F18.420000000000002
sg17
S'Minimal%20Wear'
p1324
sg19
g92
sba(i__main__
skin
p1325
(dp1326
g6
I00
sg7
S'Phoenix'
p1327
sg8
F4.21
sg9
S'Trigon'
p1328
sg11
S'http://steamcommunity.com/market/priceoverview/?currency=13&appid=730&market_hash_name=P90%20%7C%20Trigon%20%28Minimal%20Wear%29'
p1329
sg13
S'P90'
p1330
sg15
I255
sg16
F4.6600000000000001
sg17
S'Minimal%20Wear'
p1331
sg19
g92
sba(i__main__
skin
p1332
(dp1333
g6
I00
sg7
S'Phoenix'
p1334
sg8
F3.5600000000000001
sg9
S'Antique'
p1335
sg11
S'http://steamcommunity.com/market/priceoverview/?currency=13&appid=730&market_hash_name=Nova%20%7C%20Antique%20%28Minimal%20Wear%29'
p1336
sg13
S'Nova'
p1337
sg15
I259
sg16
F3.4199999999999999
sg17
S'Minimal%20Wear'
p1338
sg19
g92
sba(i__main__
skin
p1339
(dp1340
g6
I00
sg7
S'Phoenix'
p1341
sg9
S'Asiimov'
p1342
sg11
S'http://steamcommunity.com/market/priceoverview/?currency=13&appid=730&market_hash_name=AWP%20%7C%20Asiimov%20%28Minimal%20Wear%29'
p1343
sg13
S'AWP'
p1344
sg17
S'Minimal%20Wear'
p1345
sg19
g114
sba(i__main__
skin
p1346
(dp1347
g6
I00
sg7
S'Phoenix'
p1348
sg8
F1.9199999999999999
sg9
S'Chameleon'
p1349
sg11
S'http://steamcommunity.com/market/priceoverview/?currency=13&appid=730&market_hash_name=AUG%20%7C%20Chameleon%20%28Minimal%20Wear%29'
p1350
sg13
S'AUG'
p1351
sg15
I507
sg16
F1.9299999999999999
sg17
S'Minimal%20Wear'
p1352
sg19
g114
sbasS'Huntsman'
p1353
(lp1354
(i__main__
skin
p1355
(dp1356
g6
I00
sg7
g1353
sg8
F0.73999999999999999
sg9
S'Isaac'
p1357
sg11
S'http://steamcommunity.com/market/priceoverview/?currency=13&appid=730&market_hash_name=Tec-9%20%7C%20Isaac%20%28Minimal%20Wear%29'
p1358
sg13
S'Tec-9'
p1359
sg15
I935
sg16
F0.75
sg17
S'Minimal%20Wear'
p1360
sg19
g20
sba(i__main__
skin
p1361
(dp1362
g6
I00
sg7
S'Huntsman'
p1363
sg9
S'Slashed'
p1364
sg11
S'http://steamcommunity.com/market/priceoverview/?currency=13&appid=730&market_hash_name=SSG 08%20%7C%20Slashed%20%28Minimal%20Wear%29'
p1365
sg13
S'SSG 08'
p1366
sg17
S'Minimal%20Wear'
p1367
sg19
g20
sba(i__main__
skin
p1368
(dp1369
g6
I00
sg7
S'Huntsman'
p1370
sg9
S'Retribution **'
p1371
sg11
S'http://steamcommunity.com/market/priceoverview/?currency=13&appid=730&market_hash_name=Dual Berettas%20%7C%20Retribution%20%2A%2A%20%28Minimal%20Wear%29'
p1372
sg13
S'Dual Berettas'
p1373
sg17
S'Minimal%20Wear'
p1374
sg19
g20
sba(i__main__
skin
p1375
(dp1376
g6
I00
sg7
S'Huntsman'
p1377
sg8
F0.16
sg9
S'Kami'
p1378
sg11
S'http://steamcommunity.com/market/priceoverview/?currency=13&appid=730&market_hash_name=Galil AR%20%7C%20Kami%20%28Minimal%20Wear%29'
p1379
sg13
S'Galil AR'
p1380
sg15
I391
sg16
F0.17000000000000001
sg17
S'Minimal%20Wear'
p1381
sg19
g20
sba(i__main__
skin
p1382
(dp1383
g6
I00
sg7
S'Huntsman'
p1384
sg9
S'Desert Warfare **'
p1385
sg11
S'http://steamcommunity.com/market/priceoverview/?currency=13&appid=730&market_hash_name=P90%20%7C%20Desert%20Warfare%20%2A%2A%20%28Minimal%20Wear%29'
p1386
sg13
S'P90'
p1387
sg17
S'Minimal%20Wear'
p1388
sg19
g20
sba(i__main__
skin
p1389
(dp1390
g6
I00
sg7
S'Huntsman'
p1391
sg9
S'Poison Dart **'
p1392
sg11
S'http://steamcommunity.com/market/priceoverview/?currency=13&appid=730&market_hash_name=CZ75-Auto%20%7C%20Poison%20Dart%20%2A%2A%20%28Minimal%20Wear%29'
p1393
sg13
S'CZ75-Auto'
p1394
sg17
S'Minimal%20Wear'
p1395
sg19
g20
sba(i__main__
skin
p1396
(dp1397
g6
I00
sg7
S'Huntsman'
p1398
sg9
S'Twist *'
p1399
sg11
S'http://steamcommunity.com/market/priceoverview/?currency=13&appid=730&market_hash_name=CZ75-Auto%20%7C%20Twist%20%2A%20%28Minimal%20Wear%29'
p1400
sg13
S'CZ75-Auto'
p1401
sg17
S'Minimal%20Wear'
p1402
sg19
g20
sba(i__main__
skin
p1403
(dp1404
g6
I00
sg7
S'Huntsman'
p1405
sg9
S'Module *'
p1406
sg11
S'http://steamcommunity.com/market/priceoverview/?currency=13&appid=730&market_hash_name=P90%20%7C%20Module%20%2A%20%28Minimal%20Wear%29'
p1407
sg13
S'P90'
p1408
sg17
S'Minimal%20Wear'
p1409
sg19
g20
sba(i__main__
skin
p1410
(dp1411
g6
I00
sg7
S'Huntsman'
p1412
sg9
S'Pulse *'
p1413
sg11
S'http://steamcommunity.com/market/priceoverview/?currency=13&appid=730&market_hash_name=P2000%20%7C%20Pulse%20%2A%20%28Minimal%20Wear%29'
p1414
sg13
S'P2000'
p1415
sg17
S'Minimal%20Wear'
p1416
sg19
g20
sba(i__main__
skin
p1417
(dp1418
g6
I00
sg7
S'Huntsman'
p1419
sg8
F0.85999999999999999
sg9
S'Torque'
p1420
sg11
S'http://steamcommunity.com/market/priceoverview/?currency=13&appid=730&market_hash_name=AUG%20%7C%20Torque%20%28Minimal%20Wear%29'
p1421
sg13
S'AUG'
p1422
sg15
I330
sg16
F0.81999999999999995
sg17
S'Minimal%20Wear'
p1423
sg19
g63
sba(i__main__
skin
p1424
(dp1425
g6
I00
sg7
S'Huntsman'
p1426
sg8
F0.84999999999999998
sg9
S'Antique'
p1427
sg11
S'http://steamcommunity.com/market/priceoverview/?currency=13&appid=730&market_hash_name=PP-Bizon%20%7C%20Antique%20%28Minimal%20Wear%29'
p1428
sg13
S'PP-Bizon'
p1429
sg15
I203
sg16
F0.81000000000000005
sg17
S'Minimal%20Wear'
p1430
sg19
g63
sba(i__main__
skin
p1431
(dp1432
g6
I00
sg7
S'Huntsman'
p1433
sg8
F0.80000000000000004
sg9
S'Heaven Guard'
p1434
sg11
S'http://steamcommunity.com/market/priceoverview/?currency=13&appid=730&market_hash_name=XM1014%20%7C%20Heaven%20Guard%20%28Minimal%20Wear%29'
p1435
sg13
S'XM1014'
p1436
sg15
I184
sg16
F0.81000000000000005
sg17
S'Minimal%20Wear'
p1437
sg19
g63
sba(i__main__
skin
p1438
(dp1439
g6
I00
sg7
S'Huntsman'
p1440
sg9
S'Curse **'
p1441
sg11
S'http://steamcommunity.com/market/priceoverview/?currency=13&appid=730&market_hash_name=MAC-10%20%7C%20Curse%20%2A%2A%20%28Minimal%20Wear%29'
p1442
sg13
S'MAC-10'
p1443
sg17
S'Minimal%20Wear'
p1444
sg19
g63
sba(i__main__
skin
p1445
(dp1446
g6
I00
sg7
S'Huntsman'
p1447
sg9
S'Tatter *'
p1448
sg11
S'http://steamcommunity.com/market/priceoverview/?currency=13&appid=730&market_hash_name=MAC-10%20%7C%20Tatter%20%2A%20%28Minimal%20Wear%29'
p1449
sg13
S'MAC-10'
p1450
sg17
S'Minimal%20Wear'
p1451
sg19
g63
sba(i__main__
skin
p1452
(dp1453
g6
I00
sg7
S'Huntsman'
p1454
sg8
F6.0300000000000002
sg9
S'Atomic Alloy'
p1455
sg11
S'http://steamcommunity.com/market/priceoverview/?currency=13&appid=730&market_hash_name=M4A1-S%20%7C%20Atomic%20Alloy%20%28Minimal%20Wear%29'
p1456
sg13
S'M4A1-S'
p1457
sg15
I802
sg16
F6.2699999999999996
sg17
S'Minimal%20Wear'
p1458
sg19
g92
sba(i__main__
skin
p1459
(dp1460
g6
I00
sg7
S'Huntsman'
p1461
sg8
F4.2199999999999998
sg9
S'Cyrex'
p1462
sg11
S'http://steamcommunity.com/market/priceoverview/?currency=13&appid=730&market_hash_name=SCAR-20%20%7C%20Cyrex%20%28Minimal%20Wear%29'
p1463
sg13
S'SCAR-20'
p1464
sg15
I73
sg16
F4.3899999999999997
sg17
S'Minimal%20Wear'
p1465
sg19
g92
sba(i__main__
skin
p1466
(dp1467
g6
I00
sg7
S'Huntsman'
p1468
sg9
S'Orion **'
p1469
sg11
S'http://steamcommunity.com/market/priceoverview/?currency=13&appid=730&market_hash_name=USP-S%20%7C%20Orion%20%2A%2A%20%28Minimal%20Wear%29'
p1470
sg13
S'USP-S'
p1471
sg17
S'Minimal%20Wear'
p1472
sg19
g92
sba(i__main__
skin
p1473
(dp1474
g6
I00
sg7
S'Huntsman'
p1475
sg9
S'Caiman *'
p1476
sg11
S'http://steamcommunity.com/market/priceoverview/?currency=13&appid=730&market_hash_name=USP-S%20%7C%20Caiman%20%2A%20%28Minimal%20Wear%29'
p1477
sg13
S'USP-S'
p1478
sg17
S'Minimal%20Wear'
p1479
sg19
g92
sba(i__main__
skin
p1480
(dp1481
g6
I00
sg7
S'Huntsman'
p1482
sg8
F55.780000000000001
sg9
S'Vulcan'
p1483
sg11
S'http://steamcommunity.com/market/priceoverview/?currency=13&appid=730&market_hash_name=AK-47%20%7C%20Vulcan%20%28Minimal%20Wear%29'
p1484
sg13
S'AK-47'
p1485
sg15
I166
sg16
F56.310000000000002
sg17
S'Minimal%20Wear'
p1486
sg19
g114
sba(i__main__
skin
p1487
(dp1488
g6
I00
sg7
S'Huntsman'
p1489
sg9
S'Desert-Strike *'
p1490
sg11
S'http://steamcommunity.com/market/priceoverview/?currency=13&appid=730&market_hash_name=M4A4%20%7C%20Desert-Strike%20%2A%20%28Minimal%20Wear%29'
p1491
sg13
S'M4A4'
p1492
sg17
S'Minimal%20Wear'
p1493
sg19
g114
sba(i__main__
skin
p1494
(dp1495
g6
I00
sg7
S'Huntsman'
p1496
sg9
S'Howl **'
p1497
sg11
S'http://steamcommunity.com/market/priceoverview/?currency=13&appid=730&market_hash_name=M4A4%20%7C%20Howl%20%2A%2A%20%28Minimal%20Wear%29'
p1498
sg13
S'M4A4'
p1499
sg17
S'Minimal%20Wear'
p1500
sg19
S'Brown'
p1501
sbasS'Cobblestone'
p1502
(lp1503
(i__main__
skin
p1504
(dp1505
g6
I00
sg7
g1502
sg8
I-1
sg9
S'Dragon Lore'
p1506
sg11
S'http://steamcommunity.com/market/priceoverview/?currency=13&appid=730&market_hash_name=AWP%20%7C%20Dragon%20Lore%20%28Minimal%20Wear%29'
p1507
sg13
S'AWP'
p1508
sg15
I0
sg16
I-1
sg17
S'Minimal%20Wear'
p1509
sg19
g114
sba(i__main__
skin
p1510
(dp1511
g6
I00
sg7
S'Cobblestone'
p1512
sg8
F496.93000000000001
sg9
S'Knight'
p1513
sg11
S'http://steamcommunity.com/market/priceoverview/?currency=13&appid=730&market_hash_name=M4A1-S%20%7C%20Knight%20%28Minimal%20Wear%29'
p1514
sg13
S'M4A1-S'
p1515
sg15
I1
sg16
F557.57000000000005
sg17
S'Minimal%20Wear'
p1516
sg19
g92
sba(i__main__
skin
p1517
(dp1518
g6
I00
sg7
S'Cobblestone'
p1519
sg8
I-1
sg9
S'Chalice'
p1520
sg11
S'http://steamcommunity.com/market/priceoverview/?currency=13&appid=730&market_hash_name=CZ75-Auto%20%7C%20Chalice%20%28Minimal%20Wear%29'
p1521
sg13
S'CZ75-Auto'
p1522
sg15
I0
sg16
F63.340000000000003
sg17
S'Minimal%20Wear'
p1523
sg19
g63
sba(i__main__
skin
p1524
(dp1525
g6
I00
sg7
S'Cobblestone'
p1526
sg8
F62.75
sg9
S'Hand Cannon'
p1527
sg11
S'http://steamcommunity.com/market/priceoverview/?currency=13&appid=730&market_hash_name=Desert Eagle%20%7C%20Hand%20Cannon%20%28Minimal%20Wear%29'
p1528
sg13
S'Desert Eagle'
p1529
sg15
I5
sg16
F64.109999999999999
sg17
S'Minimal%20Wear'
p1530
sg19
g63
sba(i__main__
skin
p1531
(dp1532
g6
I00
sg7
S'Cobblestone'
p1533
sg8
F8.0199999999999996
sg9
S'Dark Age'
p1534
sg11
S'http://steamcommunity.com/market/priceoverview/?currency=13&appid=730&market_hash_name=MP9%20%7C%20Dark%20Age%20%28Minimal%20Wear%29'
p1535
sg13
S'MP9'
p1536
sg15
I3
sg16
F7.9800000000000004
sg17
S'Minimal%20Wear'
p1537
sg19
g20
sba(i__main__
skin
p1538
(dp1539
g6
I00
sg7
S'Cobblestone'
p1540
sg8
F8.6099999999999994
sg9
S'Chainmail'
p1541
sg11
S'http://steamcommunity.com/market/priceoverview/?currency=13&appid=730&market_hash_name=P2000%20%7C%20Chainmail%20%28Minimal%20Wear%29'
p1542
sg13
S'P2000'
p1543
sg15
I3
sg16
F8.2400000000000002
sg17
S'Minimal%20Wear'
p1544
sg19
g20
sba(i__main__
skin
p1545
(dp1546
g6
I00
sg7
S'Cobblestone'
p1547
sg8
F0.79000000000000004
sg9
S'Rust Coat'
p1548
sg11
S'http://steamcommunity.com/market/priceoverview/?currency=13&appid=730&market_hash_name=Sawed-Off%20%7C%20Rust%20Coat%20%28Minimal%20Wear%29'
p1549
sg13
S'Sawed-Off'
p1550
sg15
I26
sg16
F0.92000000000000004
sg17
S'Minimal%20Wear'
p1551
sg19
g396
sba(i__main__
skin
p1552
(dp1553
g6
I00
sg7
S'Cobblestone'
p1554
sg8
F1.1899999999999999
sg9
S'Silver'
p1555
sg11
S'http://steamcommunity.com/market/priceoverview/?currency=13&appid=730&market_hash_name=MAG-7%20%7C%20Silver%20%28Minimal%20Wear%29'
p1556
sg13
S'MAG-7'
p1557
sg15
I6
sg16
F1.2
sg17
S'Minimal%20Wear'
p1558
sg19
g396
sba(i__main__
skin
p1559
(dp1560
g6
I00
sg7
S'Cobblestone'
p1561
sg8
F0.80000000000000004
sg9
S'Green Apple'
p1562
sg11
S'http://steamcommunity.com/market/priceoverview/?currency=13&appid=730&market_hash_name=Nova%20%7C%20Green%20Apple%20%28Minimal%20Wear%29'
p1563
sg13
S'Nova'
p1564
sg15
I102
sg16
F0.83999999999999997
sg17
S'Minimal%20Wear'
p1565
sg19
g396
sba(i__main__
skin
p1566
(dp1567
g6
I00
sg7
S'Cobblestone'
p1568
sg8
F1.4199999999999999
sg9
S'Royal Blue'
p1569
sg11
S'http://steamcommunity.com/market/priceoverview/?currency=13&appid=730&market_hash_name=USP-S%20%7C%20Royal%20Blue%20%28Minimal%20Wear%29'
p1570
sg13
S'USP-S'
p1571
sg15
I297
sg16
F1.4399999999999999
sg17
S'Minimal%20Wear'
p1572
sg19
g396
sba(i__main__
skin
p1573
(dp1574
g6
I00
sg7
S'Cobblestone'
p1575
sg8
F0.13
sg9
S'Briar'
p1576
sg11
S'http://steamcommunity.com/market/priceoverview/?currency=13&appid=730&market_hash_name=Dual Berettas%20%7C%20Briar%20%28Minimal%20Wear%29'
p1577
sg13
S'Dual Berettas'
p1578
sg15
I212
sg16
F0.13
sg17
S'Minimal%20Wear'
p1579
sg19
g439
sba(i__main__
skin
p1580
(dp1581
g6
I00
sg7
S'Cobblestone'
p1582
sg8
F0.17000000000000001
sg9
S'Storm'
p1583
sg11
S'http://steamcommunity.com/market/priceoverview/?currency=13&appid=730&market_hash_name=SCAR-20%20%7C%20Storm%20%28Minimal%20Wear%29'
p1584
sg13
S'SCAR-20'
p1585
sg15
I64
sg16
F0.14999999999999999
sg17
S'Minimal%20Wear'
p1586
sg19
g439
sba(i__main__
skin
p1587
(dp1588
g6
I00
sg7
S'Cobblestone'
p1589
sg8
F0.17000000000000001
sg9
S'Indigo'
p1590
sg11
S'http://steamcommunity.com/market/priceoverview/?currency=13&appid=730&market_hash_name=MAC-10%20%7C%20Indigo%20%28Minimal%20Wear%29'
p1591
sg13
S'MAC-10'
p1592
sg15
I142
sg16
F0.14999999999999999
sg17
S'Minimal%20Wear'
p1593
sg19
g439
sba(i__main__
skin
p1594
(dp1595
g6
I00
sg7
S'Cobblestone'
p1596
sg8
F0.17999999999999999
sg9
S'Indigo'
p1597
sg11
S'http://steamcommunity.com/market/priceoverview/?currency=13&appid=730&market_hash_name=UMP-45%20%7C%20Indigo%20%28Minimal%20Wear%29'
p1598
sg13
S'UMP-45'
p1599
sg15
I186
sg16
F0.17999999999999999
sg17
S'Minimal%20Wear'
p1600
sg19
g439
sba(i__main__
skin
p1601
(dp1602
g6
I00
sg7
S'Cobblestone'
p1603
sg8
F0.17000000000000001
sg9
S'Storm'
p1604
sg11
S'http://steamcommunity.com/market/priceoverview/?currency=13&appid=730&market_hash_name=P90%20%7C%20Storm%20%28Minimal%20Wear%29'
p1605
sg13
S'P90'
p1606
sg15
I311
sg16
F0.17000000000000001
sg17
S'Minimal%20Wear'
p1607
sg19
g439
sbasS'Assault'
p1608
(lp1609
(i__main__
skin
p1610
(dp1611
g6
I00
sg7
g1608
sg8
I-1
sg9
S'Fade'
p1612
sg11
S'http://steamcommunity.com/market/priceoverview/?currency=13&appid=730&market_hash_name=Glock-18%20%7C%20Fade%20%28Minimal%20Wear%29'
p1613
sg13
S'Glock-18'
p1614
sg15
I0
sg16
F417.07999999999998
sg17
S'Minimal%20Wear'
p1615
sg19
g63
sba(i__main__
skin
p1616
(dp1617
g6
I00
sg7
S'Assault'
p1618
sg8
F16.190000000000001
sg9
S'Bulldozer'
p1619
sg11
S'http://steamcommunity.com/market/priceoverview/?currency=13&appid=730&market_hash_name=MP9%20%7C%20Bulldozer%20%28Minimal%20Wear%29'
p1620
sg13
S'MP9'
p1621
sg15
I3
sg16
F18.77
sg17
S'Minimal%20Wear'
p1622
sg19
g63
sba(i__main__
skin
p1623
(dp1624
g6
I00
sg7
S'Assault'
p1625
sg8
I-1
sg9
S'Anodized Navy'
p1626
sg11
S'http://steamcommunity.com/market/priceoverview/?currency=13&appid=730&market_hash_name=Negev%20%7C%20Anodized%20Navy%20%28Minimal%20Wear%29'
p1627
sg13
S'Negev'
p1628
sg15
I0
sg16
F132.90000000000001
sg17
S'Minimal%20Wear'
p1629
sg19
g20
sba(i__main__
skin
p1630
(dp1631
g6
I00
sg7
S'Assault'
p1632
sg8
I-1
sg9
S'Hot Rod'
p1633
sg11
S'http://steamcommunity.com/market/priceoverview/?currency=13&appid=730&market_hash_name=AUG%20%7C%20Hot%20Rod%20%28Minimal%20Wear%29'
p1634
sg13
S'AUG'
p1635
sg15
I0
sg16
F88.159999999999997
sg17
S'Minimal%20Wear'
p1636
sg19
g20
sba(i__main__
skin
p1637
(dp1638
g6
I00
sg7
S'Assault'
p1639
sg9
S'Candy Apple *'
p1640
sg11
S'http://steamcommunity.com/market/priceoverview/?currency=13&appid=730&market_hash_name=Five-SeveN%20%7C%20Candy%20Apple%20%2A%20%28Minimal%20Wear%29'
p1641
sg13
S'Five-SeveN'
p1642
sg17
S'Minimal%20Wear'
p1643
sg19
g396
sba(i__main__
skin
p1644
(dp1645
g6
I00
sg7
S'Assault'
p1646
sg8
F1.9199999999999999
sg9
S'Caramel'
p1647
sg11
S'http://steamcommunity.com/market/priceoverview/?currency=13&appid=730&market_hash_name=UMP-45%20%7C%20Caramel%20%28Minimal%20Wear%29'
p1648
sg13
S'UMP-45'
p1649
sg15
I30
sg16
F2.21
sg17
S'Minimal%20Wear'
p1650
sg19
g439
sba(i__main__
skin
p1651
(dp1652
g6
I00
sg7
S'Assault'
p1653
sg8
F1.25
sg9
S'Tornado'
p1654
sg11
S'http://steamcommunity.com/market/priceoverview/?currency=13&appid=730&market_hash_name=SG 553%20%7C%20Tornado%20%28Minimal%20Wear%29'
p1655
sg13
S'SG 553'
p1656
sg15
I29
sg16
F1.23
sg17
S'Minimal%20Wear'
p1657
sg19
g439
sbasS'Train'
p1658
(lp1659
(i__main__
skin
p1660
(dp1661
g6
I00
sg7
g1658
sg8
F0.34999999999999998
sg9
S'Red Quartz'
p1662
sg11
S'http://steamcommunity.com/market/priceoverview/?currency=13&appid=730&market_hash_name=Tec-9%20%7C%20Red%20Quartz%20%28Minimal%20Wear%29'
p1663
sg13
S'Tec-9'
p1664
sg15
I812
sg16
F0.34000000000000002
sg17
S'Minimal%20Wear'
p1665
sg19
g63
sba(i__main__
skin
p1666
(dp1667
g6
I00
sg7
S'Train'
p1668
sg8
F0.11
sg9
S'Urban Rubble'
p1669
sg11
S'http://steamcommunity.com/market/priceoverview/?currency=13&appid=730&market_hash_name=Desert Eagle%20%7C%20Urban%20Rubble%20%28Minimal%20Wear%29'
p1670
sg13
S'Desert Eagle'
p1671
sg15
I667
sg16
F0.11
sg17
S'Minimal%20Wear'
p1672
sg19
g20
sba(i__main__
skin
p1673
(dp1674
g6
I00
sg7
S'Train'
p1675
sg8
F0.13
sg9
S'Amber Fade'
p1676
sg11
S'http://steamcommunity.com/market/priceoverview/?currency=13&appid=730&market_hash_name=Sawed-Off%20%7C%20Amber%20Fade%20%28Minimal%20Wear%29'
p1677
sg13
S'Sawed-Off'
p1678
sg15
I394
sg16
F0.11
sg17
S'Minimal%20Wear'
p1679
sg19
g20
sba(i__main__
skin
p1680
(dp1681
g6
I00
sg7
S'Train'
p1682
sg8
F0.11
sg9
S'Metallic DDPAT'
p1683
sg11
S'http://steamcommunity.com/market/priceoverview/?currency=13&appid=730&market_hash_name=P250%20%7C%20Metallic%20DDPAT%20%28Minimal%20Wear%29'
p1684
sg13
S'P250'
p1685
sg15
I190
sg16
F0.089999999999999997
sg17
S'Minimal%20Wear'
p1686
sg19
g396
sba(i__main__
skin
p1687
(dp1688
g6
I00
sg7
S'Train'
p1689
sg8
F0.059999999999999998
sg9
S'Metallic DDPAT'
p1690
sg11
S'http://steamcommunity.com/market/priceoverview/?currency=13&appid=730&market_hash_name=MAG-7%20%7C%20Metallic%20DDPAT%20%28Minimal%20Wear%29'
p1691
sg13
S'MAG-7'
p1692
sg15
I148
sg16
F0.080000000000000002
sg17
S'Minimal%20Wear'
p1693
sg19
g396
sba(i__main__
skin
p1694
(dp1695
g6
I00
sg7
S'Train'
p1696
sg8
F0.050000000000000003
sg9
S'Carbon Fiber'
p1697
sg11
S'http://steamcommunity.com/market/priceoverview/?currency=13&appid=730&market_hash_name=SCAR-20%20%7C%20Carbon%20Fiber%20%28Minimal%20Wear%29'
p1698
sg13
S'SCAR-20'
p1699
sg15
I314
sg16
F0.070000000000000007
sg17
S'Minimal%20Wear'
p1700
sg19
g396
sba(i__main__
skin
p1701
(dp1702
g6
I00
sg7
S'Train'
p1703
sg8
F0.040000000000000001
sg9
S'Ash Wood'
p1704
sg11
S'http://steamcommunity.com/market/priceoverview/?currency=13&appid=730&market_hash_name=P90%20%7C%20Ash%20Wood%20%28Minimal%20Wear%29'
p1705
sg13
S'P90'
p1706
sg15
I0
sg16
F0.059999999999999998
sg17
S'Minimal%20Wear'
p1707
sg19
g396
sba(i__main__
skin
p1708
(dp1709
g6
I00
sg7
S'Train'
p1710
sg8
F0.050000000000000003
sg9
S'Candy Apple'
p1711
sg11
S'http://steamcommunity.com/market/priceoverview/?currency=13&appid=730&market_hash_name=MAC-10%20%7C%20Candy%20Apple%20%28Minimal%20Wear%29'
p1712
sg13
S'MAC-10'
p1713
sg15
I0
sg16
F0.059999999999999998
sg17
S'Minimal%20Wear'
p1714
sg19
g396
sba(i__main__
skin
p1715
(dp1716
g6
I00
sg7
S'Train'
p1717
sg8
F0.33000000000000002
sg9
S'Urban DDPAT'
p1718
sg11
S'http://steamcommunity.com/market/priceoverview/?currency=13&appid=730&market_hash_name=M4A4%20%7C%20Urban%20DDPAT%20%28Minimal%20Wear%29'
p1719
sg13
S'M4A4'
p1720
sg15
I0
sg16
F0.34999999999999998
sg17
S'Minimal%20Wear'
p1721
sg19
g396
sba(i__main__
skin
p1722
(dp1723
g6
I00
sg7
S'Train'
p1724
sg8
F0.02
sg9
S'Urban DDPAT'
p1725
sg11
S'http://steamcommunity.com/market/priceoverview/?currency=13&appid=730&market_hash_name=UMP-45%20%7C%20Urban%20DDPAT%20%28Minimal%20Wear%29'
p1726
sg13
S'UMP-45'
p1727
sg15
I878
sg16
F0.040000000000000001
sg17
S'Minimal%20Wear'
p1728
sg19
g439
sba(i__main__
skin
p1729
(dp1730
g6
I00
sg7
S'Train'
p1731
sg8
F0.050000000000000003
sg9
S'Colony'
p1732
sg11
S'http://steamcommunity.com/market/priceoverview/?currency=13&appid=730&market_hash_name=Dual Berettas%20%7C%20Colony%20%28Minimal%20Wear%29'
p1733
sg13
S'Dual Berettas'
p1734
sg15
I717
sg16
F0.040000000000000001
sg17
S'Minimal%20Wear'
p1735
sg19
g439
sba(i__main__
skin
p1736
(dp1737
g6
I00
sg7
S'Train'
p1738
sg8
F0.02
sg9
S'Polar Camo'
p1739
sg11
S'http://steamcommunity.com/market/priceoverview/?currency=13&appid=730&market_hash_name=G3SG1%20%7C%20Polar%20Camo%20%28Minimal%20Wear%29'
p1740
sg13
S'G3SG1'
p1741
sg15
I881
sg16
F0.040000000000000001
sg17
S'Minimal%20Wear'
p1742
sg19
g439
sba(i__main__
skin
p1743
(dp1744
g6
I00
sg7
S'Train'
p1745
sg8
F0.040000000000000001
sg9
S'Forest Night'
p1746
sg11
S'http://steamcommunity.com/market/priceoverview/?currency=13&appid=730&market_hash_name=Five-SeveN%20%7C%20Forest%20Night%20%28Minimal%20Wear%29'
p1747
sg13
S'Five-SeveN'
p1748
sg15
I0
sg16
F0.050000000000000003
sg17
S'Minimal%20Wear'
p1749
sg19
g439
sba(i__main__
skin
p1750
(dp1751
g6
I00
sg7
S'Train'
p1752
sg8
F0.029999999999999999
sg9
S'Polar Mesh'
p1753
sg11
S'http://steamcommunity.com/market/priceoverview/?currency=13&appid=730&market_hash_name=Nova%20%7C%20Polar%20Mesh%20%28Minimal%20Wear%29'
p1754
sg13
S'Nova'
p1755
sg15
I0
sg16
F0.040000000000000001
sg17
S'Minimal%20Wear'
p1756
sg19
g439
sba(i__main__
skin
p1757
(dp1758
g6
I00
sg7
S'Train'
p1759
sg8
F0.02
sg9
S'Urban Dashed'
p1760
sg11
S'http://steamcommunity.com/market/priceoverview/?currency=13&appid=730&market_hash_name=PP-Bizon%20%7C%20Urban%20Dashed%20%28Minimal%20Wear%29'
p1761
sg13
S'PP-Bizon'
p1762
sg15
I713
sg16
F0.040000000000000001
sg17
S'Minimal%20Wear'
p1763
sg19
g439
sbasS'Dust'
p1764
(lp1765
(i__main__
skin
p1766
(dp1767
g6
I00
sg7
g1764
sg8
F5.1900000000000004
sg9
S'Brass'
p1768
sg11
S'http://steamcommunity.com/market/priceoverview/?currency=13&appid=730&market_hash_name=Glock-18%20%7C%20Brass%20%28Minimal%20Wear%29'
p1769
sg13
S'Glock-18'
p1770
sg15
I29
sg16
F4.6900000000000004
sg17
S'Minimal%20Wear'
p1771
sg19
g63
sba(i__main__
skin
p1772
(dp1773
g6
I00
sg7
S'Dust'
p1774
sg8
F4.5999999999999996
sg9
S'Scorpion'
p1775
sg11
S'http://steamcommunity.com/market/priceoverview/?currency=13&appid=730&market_hash_name=P2000%20%7C%20Scorpion%20%28Minimal%20Wear%29'
p1776
sg13
S'P2000'
p1777
sg15
I4
sg16
F6.0099999999999998
sg17
S'Minimal%20Wear'
p1778
sg19
g63
sba(i__main__
skin
p1779
(dp1780
g6
I00
sg7
S'Dust'
p1781
sg8
F53.130000000000003
sg9
S'Blaze'
p1782
sg11
S'http://steamcommunity.com/market/priceoverview/?currency=13&appid=730&market_hash_name=Desert Eagle%20%7C%20Blaze%20%28Minimal%20Wear%29'
p1783
sg13
S'Desert Eagle'
p1784
sg15
I3
sg16
F60.030000000000001
sg17
S'Minimal%20Wear'
p1785
sg19
g63
sba(i__main__
skin
p1786
(dp1787
g6
I00
sg7
S'Dust'
p1788
sg8
I-1
sg9
S'Copper'
p1789
sg11
S'http://steamcommunity.com/market/priceoverview/?currency=13&appid=730&market_hash_name=Sawed-Off%20%7C%20Copper%20%28Minimal%20Wear%29'
p1790
sg13
S'Sawed-Off'
p1791
sg15
I0
sg16
F6.3499999999999996
sg17
S'Minimal%20Wear'
p1792
sg19
g20
sba(i__main__
skin
p1793
(dp1794
g6
I00
sg7
S'Dust'
p1795
sg8
F9.3699999999999992
sg9
S'Copperhead'
p1796
sg11
S'http://steamcommunity.com/market/priceoverview/?currency=13&appid=730&market_hash_name=AUG%20%7C%20Copperhead%20%28Minimal%20Wear%29'
p1797
sg13
S'AUG'
p1798
sg15
I2
sg16
F10.050000000000001
sg17
S'Minimal%20Wear'
p1799
sg19
g20
sba(i__main__
skin
p1800
(dp1801
g6
I00
sg7
S'Dust'
p1802
sg8
F6.5099999999999998
sg9
S'Snake Camo'
p1803
sg11
S'http://steamcommunity.com/market/priceoverview/?currency=13&appid=730&market_hash_name=AWP%20%7C%20Snake%20Camo%20%28Minimal%20Wear%29'
p1804
sg13
S'AWP'
p1805
sg15
I25
sg16
F6.0599999999999996
sg17
S'Minimal%20Wear'
p1806
sg19
g20
sba(i__main__
skin
p1807
(dp1808
g6
I00
sg7
S'Dust'
p1809
sg8
F1.0800000000000001
sg9
S'Predator'
p1810
sg11
S'http://steamcommunity.com/market/priceoverview/?currency=13&appid=730&market_hash_name=AK-47%20%7C%20Predator%20%28Minimal%20Wear%29'
p1811
sg13
S'AK-47'
p1812
sg15
I251
sg16
F0.94999999999999996
sg17
S'Minimal%20Wear'
p1813
sg19
g396
sba(i__main__
skin
p1814
(dp1815
g6
I00
sg7
S'Dust'
p1816
sg8
F0.72999999999999998
sg9
S'Palm'
p1817
sg11
S'http://steamcommunity.com/market/priceoverview/?currency=13&appid=730&market_hash_name=SCAR-20%20%7C%20Palm%20%28Minimal%20Wear%29'
p1818
sg13
S'SCAR-20'
p1819
sg15
I11
sg16
F0.73999999999999999
sg17
S'Minimal%20Wear'
p1820
sg19
g396
sba(i__main__
skin
p1821
(dp1822
g6
I00
sg7
S'Dust'
p1823
sg8
F0.81999999999999995
sg9
S'Desert Storm'
p1824
sg11
S'http://steamcommunity.com/market/priceoverview/?currency=13&appid=730&market_hash_name=M4A4%20%7C%20Desert%20Storm%20%28Minimal%20Wear%29'
p1825
sg13
S'M4A4'
p1826
sg15
I190
sg16
F0.73999999999999999
sg17
S'Minimal%20Wear'
p1827
sg19
g396
sbasS'Alpha'
p1828
(lp1829
(i__main__
skin
p1830
(dp1831
g6
I00
sg7
g1828
sg8
F1.3999999999999999
sg9
S'Emerald'
p1832
sg11
S'http://steamcommunity.com/market/priceoverview/?currency=13&appid=730&market_hash_name=SCAR-20%20%7C%20Emerald%20%28Minimal%20Wear%29'
p1833
sg13
S'SCAR-20'
p1834
sg15
I2
sg16
F11.449999999999999
sg17
S'Minimal%20Wear'
p1835
sg19
g63
sba(i__main__
skin
p1836
(dp1837
g6
I00
sg7
S'Alpha'
p1838
sg8
F1.74
sg9
S'Mayan Dreams'
p1839
sg11
S'http://steamcommunity.com/market/priceoverview/?currency=13&appid=730&market_hash_name=SSG 08%20%7C%20Mayan%20Dreams%20%28Minimal%20Wear%29'
p1840
sg13
S'SSG 08'
p1841
sg15
I21
sg16
F2.3900000000000001
sg17
S'Minimal%20Wear'
p1842
sg19
g396
sba(i__main__
skin
p1843
(dp1844
g6
I00
sg7
S'Alpha'
p1845
sg8
F0.91000000000000003
sg9
S'Palm'
p1846
sg11
S'http://steamcommunity.com/market/priceoverview/?currency=13&appid=730&market_hash_name=Negev%20%7C%20Palm%20%28Minimal%20Wear%29'
p1847
sg13
S'Negev'
p1848
sg15
I3
sg16
F1.0700000000000001
sg17
S'Minimal%20Wear'
p1849
sg19
g396
sba(i__main__
skin
p1850
(dp1851
g6
I00
sg7
S'Alpha'
p1852
sg8
F1.3200000000000001
sg9
S'Mosaico'
p1853
sg11
S'http://steamcommunity.com/market/priceoverview/?currency=13&appid=730&market_hash_name=Sawed-Off%20%7C%20Mosaico%20%28Minimal%20Wear%29'
p1854
sg13
S'Sawed-Off'
p1855
sg15
I6
sg16
F1.26
sg17
S'Minimal%20Wear'
p1856
sg19
g396
sba(i__main__
skin
p1857
(dp1858
g6
I00
sg7
S'Alpha'
p1859
sg8
F1.04
sg9
S'Facets'
p1860
sg11
S'http://steamcommunity.com/market/priceoverview/?currency=13&appid=730&market_hash_name=P250%20%7C%20Facets%20%28Minimal%20Wear%29'
p1861
sg13
S'P250'
p1862
sg15
I9
sg16
F1.0700000000000001
sg17
S'Minimal%20Wear'
p1863
sg19
g396
sba(i__main__
skin
p1864
(dp1865
g6
I00
sg7
S'Alpha'
p1866
sg8
I-1
sg9
S'Anodized Navy'
p1867
sg11
S'http://steamcommunity.com/market/priceoverview/?currency=13&appid=730&market_hash_name=AUG%20%7C%20Anodized%20Navy%20%28Minimal%20Wear%29'
p1868
sg13
S'AUG'
p1869
sg15
I0
sg16
F14.779999999999999
sg17
S'Minimal%20Wear'
p1870
sg19
g20
sba(i__main__
skin
p1871
(dp1872
g6
I00
sg7
S'Alpha'
p1873
sg8
F5.5999999999999996
sg9
S'Hazard'
p1874
sg11
S'http://steamcommunity.com/market/priceoverview/?currency=13&appid=730&market_hash_name=MAG-7%20%7C%20Hazard%20%28Minimal%20Wear%29'
p1875
sg13
S'MAG-7'
p1876
sg15
I2
sg16
F5.5899999999999999
sg17
S'Minimal%20Wear'
p1877
sg19
g20
sba(i__main__
skin
p1878
(dp1879
g6
I00
sg7
S'Alpha'
p1880
sg8
F5.0999999999999996
sg9
S'Rust Coat'
p1881
sg11
S'http://steamcommunity.com/market/priceoverview/?currency=13&appid=730&market_hash_name=PP-Bizon%20%7C%20Rust%20Coat%20%28Minimal%20Wear%29'
p1882
sg13
S'PP-Bizon'
p1883
sg15
I1
sg16
F6.2699999999999996
sg17
S'Minimal%20Wear'
p1884
sg19
g20
sba(i__main__
skin
p1885
(dp1886
g6
I00
sg7
S'Alpha'
p1887
sg8
F29.640000000000001
sg9
S'Spitfire'
p1888
sg11
S'http://steamcommunity.com/market/priceoverview/?currency=13&appid=730&market_hash_name=FAMAS%20%7C%20Spitfire%20%28Minimal%20Wear%29'
p1889
sg13
S'FAMAS'
p1890
sg15
I2
sg16
F36.700000000000003
sg17
S'Minimal%20Wear'
p1891
sg19
g63
sba(i__main__
skin
p1892
(dp1893
g6
I00
sg7
S'Alpha'
p1894
sg8
F1.3300000000000001
sg9
S'Sand Dune'
p1895
sg11
S'http://steamcommunity.com/market/priceoverview/?currency=13&appid=730&market_hash_name=Glock-18%20%7C%20Sand%20Dune%20%28Minimal%20Wear%29'
p1896
sg13
S'Glock-18'
p1897
sg15
I21
sg16
F1.4199999999999999
sg17
S'Minimal%20Wear'
p1898
sg19
g396
sba(i__main__
skin
p1899
(dp1900
g6
I00
sg7
S'Alpha'
p1901
sg8
F0.48999999999999999
sg9
S'Groundwater'
p1902
sg11
S'http://steamcommunity.com/market/priceoverview/?currency=13&appid=730&market_hash_name=MP7%20%7C%20Groundwater%20%28Minimal%20Wear%29'
p1903
sg13
S'MP7'
p1904
sg15
I14
sg16
F0.48999999999999999
sg17
S'Minimal%20Wear'
p1905
sg19
g439
sba(i__main__
skin
p1906
(dp1907
g6
I00
sg7
S'Alpha'
p1908
sg8
F0.48999999999999999
sg9
S'Jungle'
p1909
sg11
S'http://steamcommunity.com/market/priceoverview/?currency=13&appid=730&market_hash_name=XM1014%20%7C%20Jungle%20%28Minimal%20Wear%29'
p1910
sg13
S'XM1014'
p1911
sg15
I13
sg16
F0.47999999999999998
sg17
S'Minimal%20Wear'
p1912
sg19
g439
sba(i__main__
skin
p1913
(dp1914
g6
I00
sg7
S'Alpha'
p1915
sg8
F3.96
sg9
S'Anodized Gunmetal'
p1916
sg11
S'http://steamcommunity.com/market/priceoverview/?currency=13&appid=730&market_hash_name=Five-SeveN%20%7C%20Anodized%20Gunmetal%20%28Minimal%20Wear%29'
p1917
sg13
S'Five-SeveN'
p1918
sg15
I12
sg16
F4.3899999999999997
sg17
S'Minimal%20Wear'
p1919
sg19
g439
sba(i__main__
skin
p1920
(dp1921
g6
I00
sg7
S'Alpha'
p1922
sg8
F0.42999999999999999
sg9
S'Dry Season'
p1923
sg11
S'http://steamcommunity.com/market/priceoverview/?currency=13&appid=730&market_hash_name=MP9%20%7C%20Dry%20Season%20%28Minimal%20Wear%29'
p1924
sg13
S'MP9'
p1925
sg15
I8
sg16
F0.35999999999999999
sg17
S'Minimal%20Wear'
p1926
sg19
g439
sba(i__main__
skin
p1927
(dp1928
g6
I00
sg7
S'Alpha'
p1929
sg8
F0.79000000000000004
sg9
S'Tornado'
p1930
sg11
S'http://steamcommunity.com/market/priceoverview/?currency=13&appid=730&market_hash_name=Tec-9%20%7C%20Tornado%20%28Minimal%20Wear%29'
p1931
sg13
S'Tec-9'
p1932
sg15
I15
sg16
F0.78000000000000003
sg17
S'Minimal%20Wear'
p1933
sg19
g439
sba(i__main__
skin
p1934
(dp1935
g6
I00
sg7
S'Alpha'
p1936
sg8
F0.40000000000000002
sg9
S'Jungle DDPAT'
p1937
sg11
S'http://steamcommunity.com/market/priceoverview/?currency=13&appid=730&market_hash_name=M249%20%7C%20Jungle%20DDPAT%20%28Minimal%20Wear%29'
p1938
sg13
S'M249'
p1939
sg15
I8
sg16
F0.42999999999999999
sg17
S'Minimal%20Wear'
p1940
sg19
g439
sbasS'Bank'
p1941
(lp1942
(i__main__
skin
p1943
(dp1944
g6
I00
sg7
g1941
sg8
F0.82999999999999996
sg9
S'Franklin'
p1945
sg11
S'http://steamcommunity.com/market/priceoverview/?currency=13&appid=730&market_hash_name=P250%20%7C%20Franklin%20%28Minimal%20Wear%29'
p1946
sg13
S'P250'
p1947
sg15
I944
sg16
F0.89000000000000001
sg17
S'Minimal%20Wear'
p1948
sg19
g92
sba(i__main__
skin
p1949
(dp1950
g6
I00
sg7
S'Bank'
p1951
sg8
F1.6299999999999999
sg9
S'Emerald Pinstripe'
p1952
sg11
S'http://steamcommunity.com/market/priceoverview/?currency=13&appid=730&market_hash_name=AK-47%20%7C%20Emerald%20Pinstripe%20%28Minimal%20Wear%29'
p1953
sg13
S'AK-47'
p1954
sg15
I627
sg16
F1.6200000000000001
sg17
S'Minimal%20Wear'
p1955
sg19
g63
sba(i__main__
skin
p1956
(dp1957
g6
I00
sg7
S'Bank'
p1958
sg8
F0.20999999999999999
sg9
S'Tuxedo'
p1959
sg11
S'http://steamcommunity.com/market/priceoverview/?currency=13&appid=730&market_hash_name=CZ75-Auto%20%7C%20Tuxedo%20%28Minimal%20Wear%29'
p1960
sg13
S'CZ75-Auto'
p1961
sg15
I380
sg16
F0.19
sg17
S'Minimal%20Wear'
p1962
sg19
g20
sba(i__main__
skin
p1963
(dp1964
g6
I00
sg7
S'Bank'
p1965
sg8
F0.29999999999999999
sg9
S'Meteorite'
p1966
sg11
S'http://steamcommunity.com/market/priceoverview/?currency=13&appid=730&market_hash_name=Desert Eagle%20%7C%20Meteorite%20%28Minimal%20Wear%29'
p1967
sg13
S'Desert Eagle'
p1968
sg15
I841
sg16
F0.28999999999999998
sg17
S'Minimal%20Wear'
p1969
sg19
g20
sba(i__main__
skin
p1970
(dp1971
g6
I00
sg7
S'Bank'
p1972
sg8
F0.22
sg9
S'Tuxedo'
p1973
sg11
S'http://steamcommunity.com/market/priceoverview/?currency=13&appid=730&market_hash_name=Galil AR%20%7C%20Tuxedo%20%28Minimal%20Wear%29'
p1974
sg13
S'Galil AR'
p1975
sg15
I437
sg16
F0.20000000000000001
sg17
S'Minimal%20Wear'
p1976
sg19
g20
sba(i__main__
skin
p1977
(dp1978
g6
I00
sg7
S'Bank'
p1979
sg8
F0.040000000000000001
sg9
S'Green Apple'
p1980
sg11
S'http://steamcommunity.com/market/priceoverview/?currency=13&appid=730&market_hash_name=G3SG1%20%7C%20Green%20Apple%20%28Minimal%20Wear%29'
p1981
sg13
S'G3SG1'
p1982
sg15
I0
sg16
F0.059999999999999998
sg17
S'Minimal%20Wear'
p1983
sg19
g396
sba(i__main__
skin
p1984
(dp1985
g6
I00
sg7
S'Bank'
p1986
sg8
F0.059999999999999998
sg9
S'Death Rattle'
p1987
sg11
S'http://steamcommunity.com/market/priceoverview/?currency=13&appid=730&market_hash_name=Glock-18%20%7C%20Death%20Rattle%20%28Minimal%20Wear%29'
p1988
sg13
S'Glock-18'
p1989
sg15
I0
sg16
F0.070000000000000007
sg17
S'Minimal%20Wear'
p1990
sg19
g396
sba(i__main__
skin
p1991
(dp1992
g6
I00
sg7
S'Bank'
p1993
sg8
F0.089999999999999997
sg9
S'Silver'
p1994
sg11
S'http://steamcommunity.com/market/priceoverview/?currency=13&appid=730&market_hash_name=MAC-10%20%7C%20Silver%20%28Minimal%20Wear%29'
p1995
sg13
S'MAC-10'
p1996
sg15
I118
sg16
F0.089999999999999997
sg17
S'Minimal%20Wear'
p1997
sg19
g396
sba(i__main__
skin
p1998
(dp1999
g6
I00
sg7
S'Bank'
p2000
sg8
F0.040000000000000001
sg9
S'Caged Steel'
p2001
sg11
S'http://steamcommunity.com/market/priceoverview/?currency=13&appid=730&market_hash_name=Nova%20%7C%20Caged%20Steel%20%28Minimal%20Wear%29'
p2002
sg13
S'Nova'
p2003
sg15
I764
sg16
F0.059999999999999998
sg17
S'Minimal%20Wear'
p2004
sg19
g396
sba(i__main__
skin
p2005
(dp2006
g6
I00
sg7
S'Bank'
p2007
sg8
F0.059999999999999998
sg9
S'Carbon Fiber'
p2008
sg11
S'http://steamcommunity.com/market/priceoverview/?currency=13&appid=730&market_hash_name=UMP-45%20%7C%20Carbon%20Fiber%20%28Minimal%20Wear%29'
p2009
sg13
S'UMP-45'
p2010
sg15
I295
sg16
F0.070000000000000007
sg17
S'Minimal%20Wear'
p2011
sg19
g396
sba(i__main__
skin
p2012
(dp2013
g6
I00
sg7
S'Bank'
p2014
sg8
F0.040000000000000001
sg9
S'Bone Mask'
p2015
sg11
S'http://steamcommunity.com/market/priceoverview/?currency=13&appid=730&market_hash_name=R8 Revolver%20%7C%20Bone%20Mask%20%28Minimal%20Wear%29'
p2016
sg13
S'R8 Revolver'
p2017
sg15
I0
sg16
F0.050000000000000003
sg17
S'Minimal%20Wear'
p2018
sg19
g439
sba(i__main__
skin
p2019
(dp2020
g6
I00
sg7
S'Bank'
p2021
sg8
F0.02
sg9
S'Forest DDPAT'
p2022
sg11
S'http://steamcommunity.com/market/priceoverview/?currency=13&appid=730&market_hash_name=MP7%20%7C%20Forest%20DDPAT%20%28Minimal%20Wear%29'
p2023
sg13
S'MP7'
p2024
sg15
I916
sg16
F0.040000000000000001
sg17
S'Minimal%20Wear'
p2025
sg19
g439
sba(i__main__
skin
p2026
(dp2027
g6
I00
sg7
S'Bank'
p2028
sg8
F0.02
sg9
S'Army Sheen'
p2029
sg11
S'http://steamcommunity.com/market/priceoverview/?currency=13&appid=730&market_hash_name=Negev%20%7C%20Army%20Sheen%20%28Minimal%20Wear%29'
p2030
sg13
S'Negev'
p2031
sg15
I0
sg16
F0.040000000000000001
sg17
S'Minimal%20Wear'
p2032
sg19
g439
sba(i__main__
skin
p2033
(dp2034
g6
I00
sg7
S'Bank'
p2035
sg8
F0.02
sg9
S'Forest DDPAT'
p2036
sg11
S'http://steamcommunity.com/market/priceoverview/?currency=13&appid=730&market_hash_name=Sawed-Off%20%7C%20Forest%20DDPAT%20%28Minimal%20Wear%29'
p2037
sg13
S'Sawed-Off'
p2038
sg15
I627
sg16
F0.040000000000000001
sg17
S'Minimal%20Wear'
p2039
sg19
g439
sba(i__main__
skin
p2040
(dp2041
g6
I00
sg7
S'Bank'
p2042
sg8
F0.02
sg9
S'Army Sheen'
p2043
sg11
S'http://steamcommunity.com/market/priceoverview/?currency=13&appid=730&market_hash_name=SG 553%20%7C%20Army%20Sheen%20%28Minimal%20Wear%29'
p2044
sg13
S'SG 553'
p2045
sg15
I0
sg16
F0.040000000000000001
sg17
S'Minimal%20Wear'
p2046
sg19
g439
sba(i__main__
skin
p2047
(dp2048
g6
I00
sg7
S'Bank'
p2049
sg8
F0.02
sg9
S'Urban DDPAT'
p2050
sg11
S'http://steamcommunity.com/market/priceoverview/?currency=13&appid=730&market_hash_name=Tec-9%20%7C%20Urban%20DDPAT%20%28Minimal%20Wear%29'
p2051
sg13
S'Tec-9'
p2052
sg15
I0
sg16
F0.040000000000000001
sg17
S'Minimal%20Wear'
p2053
sg19
g439
sbasS'Dust 2'
p2054
(lp2055
(i__main__
skin
p2056
(dp2057
g6
I00
sg7
g2054
sg8
F1.5
sg9
S'Amber Fade'
p2058
sg11
S'http://steamcommunity.com/market/priceoverview/?currency=13&appid=730&market_hash_name=R8 Revolver%20%7C%20Amber%20Fade%20%28Minimal%20Wear%29'
p2059
sg13
S'R8 Revolver'
p2060
sg15
I279
sg16
F1.52
sg17
S'Minimal%20Wear'
p2061
sg19
g92
sba(i__main__
skin
p2062
(dp2063
g6
I00
sg7
S'Dust 2'
p2064
sg8
F0.40000000000000002
sg9
S'Amber Fade'
p2065
sg11
S'http://steamcommunity.com/market/priceoverview/?currency=13&appid=730&market_hash_name=P2000%20%7C%20Amber%20Fade%20%28Minimal%20Wear%29'
p2066
sg13
S'P2000'
p2067
sg15
I456
sg16
F0.40000000000000002
sg17
S'Minimal%20Wear'
p2068
sg19
g63
sba(i__main__
skin
p2069
(dp2070
g6
I00
sg7
S'Dust 2'
p2071
sg8
F0.13
sg9
S'Damascus Steel'
p2072
sg11
S'http://steamcommunity.com/market/priceoverview/?currency=13&appid=730&market_hash_name=SG 553%20%7C%20Damascus%20Steel%20%28Minimal%20Wear%29'
p2073
sg13
S'SG 553'
p2074
sg15
I345
sg16
F0.12
sg17
S'Minimal%20Wear'
p2075
sg19
g20
sba(i__main__
skin
p2076
(dp2077
g6
I00
sg7
S'Dust 2'
p2078
sg8
F0.17999999999999999
sg9
S'Brass'
p2079
sg11
S'http://steamcommunity.com/market/priceoverview/?currency=13&appid=730&market_hash_name=PP-Bizon%20%7C%20Brass%20%28Minimal%20Wear%29'
p2080
sg13
S'PP-Bizon'
p2081
sg15
I429
sg16
F0.14999999999999999
sg17
S'Minimal%20Wear'
p2082
sg19
g20
sba(i__main__
skin
p2083
(dp2084
g6
I00
sg7
S'Dust 2'
p2085
sg8
F0.41999999999999998
sg9
S'VariCamo'
p2086
sg11
S'http://steamcommunity.com/market/priceoverview/?currency=13&appid=730&market_hash_name=M4A1-S%20%7C%20VariCamo%20%28Minimal%20Wear%29'
p2087
sg13
S'M4A1-S'
p2088
sg15
I0
sg16
F0.41999999999999998
sg17
S'Minimal%20Wear'
p2089
sg19
g20
sba(i__main__
skin
p2090
(dp2091
g6
I00
sg7
S'Dust 2'
p2092
sg8
F0.040000000000000001
sg9
S'Snake Camo'
p2093
sg11
S'http://steamcommunity.com/market/priceoverview/?currency=13&appid=730&market_hash_name=Sawed-Off%20%7C%20Snake%20Camo%20%28Minimal%20Wear%29'
p2094
sg13
S'Sawed-Off'
p2095
sg15
I353
sg16
F0.059999999999999998
sg17
S'Minimal%20Wear'
p2096
sg19
g396
sba(i__main__
skin
p2097
(dp2098
g6
I00
sg7
S'Dust 2'
p2099
sg8
F0.23999999999999999
sg9
S'Safari Mesh'
p2100
sg11
S'http://steamcommunity.com/market/priceoverview/?currency=13&appid=730&market_hash_name=AK-47%20%7C%20Safari%20Mesh%20%28Minimal%20Wear%29'
p2101
sg13
S'AK-47'
p2102
sg15
I0
sg16
F0.23999999999999999
sg17
S'Minimal%20Wear'
p2103
sg19
g396
sba(i__main__
skin
p2104
(dp2105
g6
I00
sg7
S'Dust 2'
p2106
sg8
F0.16
sg9
S'Orange Peel'
p2107
sg11
S'http://steamcommunity.com/market/priceoverview/?currency=13&appid=730&market_hash_name=Five-SeveN%20%7C%20Orange%20Peel%20%28Minimal%20Wear%29'
p2108
sg13
S'Five-SeveN'
p2109
sg15
I952
sg16
F0.16
sg17
S'Minimal%20Wear'
p2110
sg19
g396
sba(i__main__
skin
p2111
(dp2112
g6
I00
sg7
S'Dust 2'
p2113
sg8
F0.040000000000000001
sg9
S'Palm'
p2114
sg11
S'http://steamcommunity.com/market/priceoverview/?currency=13&appid=730&market_hash_name=MAC-10%20%7C%20Palm%20%28Minimal%20Wear%29'
p2115
sg13
S'MAC-10'
p2116
sg15
I376
sg16
F0.059999999999999998
sg17
S'Minimal%20Wear'
p2117
sg19
g396
sba(i__main__
skin
p2118
(dp2119
g6
I00
sg7
S'Dust 2'
p2120
sg8
F0.050000000000000003
sg9
S'VariCamo'
p2121
sg11
S'http://steamcommunity.com/market/priceoverview/?currency=13&appid=730&market_hash_name=Tec-9%20%7C%20VariCamo%20%28Minimal%20Wear%29'
p2122
sg13
S'Tec-9'
p2123
sg15
I835
sg16
F0.059999999999999998
sg17
S'Minimal%20Wear'
p2124
sg19
g396
sba(i__main__
skin
p2125
(dp2126
g6
I00
sg7
S'Dust 2'
p2127
sg8
F0.02
sg9
S'Desert Storm'
p2128
sg11
S'http://steamcommunity.com/market/priceoverview/?currency=13&appid=730&market_hash_name=G3SG1%20%7C%20Desert%20Storm%20%28Minimal%20Wear%29'
p2129
sg13
S'G3SG1'
p2130
sg15
I645
sg16
F0.040000000000000001
sg17
S'Minimal%20Wear'
p2131
sg19
g439
sba(i__main__
skin
p2132
(dp2133
g6
I00
sg7
S'Dust 2'
p2134
sg8
F0.029999999999999999
sg9
S'Sand Dune'
p2135
sg11
S'http://steamcommunity.com/market/priceoverview/?currency=13&appid=730&market_hash_name=P250%20%7C%20Sand%20Dune%20%28Minimal%20Wear%29'
p2136
sg13
S'P250'
p2137
sg15
I0
sg16
F0.050000000000000003
sg17
S'Minimal%20Wear'
p2138
sg19
g439
sba(i__main__
skin
p2139
(dp2140
g6
I00
sg7
S'Dust 2'
p2141
sg8
F0.02
sg9
S'Sand Mesh'
p2142
sg11
S'http://steamcommunity.com/market/priceoverview/?currency=13&appid=730&market_hash_name=SCAR-20%20%7C%20Sand%20Mesh%20%28Minimal%20Wear%29'
p2143
sg13
S'SCAR-20'
p2144
sg15
I694
sg16
F0.040000000000000001
sg17
S'Minimal%20Wear'
p2145
sg19
g439
sba(i__main__
skin
p2146
(dp2147
g6
I00
sg7
S'Dust 2'
p2148
sg8
F0.02
sg9
S'Sand Spray'
p2149
sg11
S'http://steamcommunity.com/market/priceoverview/?currency=13&appid=730&market_hash_name=P90%20%7C%20Sand%20Spray%20%28Minimal%20Wear%29'
p2150
sg13
S'P90'
p2151
sg15
I985
sg16
F0.040000000000000001
sg17
S'Minimal%20Wear'
p2152
sg19
g439
sba(i__main__
skin
p2153
(dp2154
g6
I00
sg7
S'Dust 2'
p2155
sg8
F0.040000000000000001
sg9
S'Sand Dashed'
p2156
sg11
S'http://steamcommunity.com/market/priceoverview/?currency=13&appid=730&market_hash_name=MP9%20%7C%20Sand%20Dashed%20%28Minimal%20Wear%29'
p2157
sg13
S'MP9'
p2158
sg15
I819
sg16
F0.040000000000000001
sg17
S'Minimal%20Wear'
p2159
sg19
g439
sba(i__main__
skin
p2160
(dp2161
g6
I00
sg7
S'Dust 2'
p2162
sg8
F0.02
sg9
S'Predator'
p2163
sg11
S'http://steamcommunity.com/market/priceoverview/?currency=13&appid=730&market_hash_name=Nova%20%7C%20Predator%20%28Minimal%20Wear%29'
p2164
sg13
S'Nova'
p2165
sg15
I739
sg16
F0.040000000000000001
sg17
S'Minimal%20Wear'
p2166
sg19
g439
sbasS'Aztec'
p2167
(lp2168
(i__main__
skin
p2169
(dp2170
g6
I00
sg7
g2167
sg8
F2.8599999999999999
sg9
S'Ossified'
p2171
sg11
S'http://steamcommunity.com/market/priceoverview/?currency=13&appid=730&market_hash_name=Tec-9%20%7C%20Ossified%20%28Minimal%20Wear%29'
p2172
sg13
S'Tec-9'
p2173
sg15
I8
sg16
F2.6600000000000001
sg17
S'Minimal%20Wear'
p2174
sg19
g20
sba(i__main__
skin
p2175
(dp2176
g6
I00
sg7
S'Aztec'
p2177
sg8
F1.1699999999999999
sg9
S'Jungle Tiger'
p2178
sg11
S'http://steamcommunity.com/market/priceoverview/?currency=13&appid=730&market_hash_name=M4A4%20%7C%20Jungle%20Tiger%20%28Minimal%20Wear%29'
p2179
sg13
S'M4A4'
p2180
sg15
I83
sg16
F1.26
sg17
S'Minimal%20Wear'
p2181
sg19
g396
sba(i__main__
skin
p2182
(dp2183
g6
I00
sg7
S'Aztec'
p2184
sg8
F1.6499999999999999
sg9
S'Jungle Spray'
p2185
sg11
S'http://steamcommunity.com/market/priceoverview/?currency=13&appid=730&market_hash_name=AK-47%20%7C%20Jungle%20Spray%20%28Minimal%20Wear%29'
p2186
sg13
S'AK-47'
p2187
sg15
I87
sg16
F1.6899999999999999
sg17
S'Minimal%20Wear'
p2188
sg19
g396
sba(i__main__
skin
p2189
(dp2190
g6
I00
sg7
S'Aztec'
p2191
sg8
F0.35999999999999999
sg9
S'Lichen Dashed'
p2192
sg11
S'http://steamcommunity.com/market/priceoverview/?currency=13&appid=730&market_hash_name=SSG 08%20%7C%20Lichen%20Dashed%20%28Minimal%20Wear%29'
p2193
sg13
S'SSG 08'
p2194
sg15
I41
sg16
F0.40000000000000002
sg17
S'Minimal%20Wear'
p2195
sg19
g439
sba(i__main__
skin
p2196
(dp2197
g6
I00
sg7
S'Aztec'
p2198
sg8
F0.40000000000000002
sg9
S'Jungle'
p2199
sg11
S'http://steamcommunity.com/market/priceoverview/?currency=13&appid=730&market_hash_name=Five-SeveN%20%7C%20Jungle%20%28Minimal%20Wear%29'
p2200
sg13
S'Five-SeveN'
p2201
sg15
I51
sg16
F0.53000000000000003
sg17
S'Minimal%20Wear'
p2202
sg19
g439
sba(i__main__
skin
p2203
(dp2204
g6
I00
sg7
S'Aztec'
p2205
sg8
F0.38
sg9
S'Forest Leaves'
p2206
sg11
S'http://steamcommunity.com/market/priceoverview/?currency=13&appid=730&market_hash_name=Nova%20%7C%20Forest%20Leaves%20%28Minimal%20Wear%29'
p2207
sg13
S'Nova'
p2208
sg15
I5
sg16
F0.37
sg17
S'Minimal%20Wear'
p2209
sg19
g439
sbasS'Arms Deal 3'
p2210
(lp2211
(i__main__
skin
p2212
(dp2213
g6
I00
sg7
g2210
sg8
F0.92000000000000004
sg9
S'Crimson Web'
p2214
sg11
S'http://steamcommunity.com/market/priceoverview/?currency=13&appid=730&market_hash_name=CZ75-Auto%20%7C%20Crimson%20Web%20%28Minimal%20Wear%29'
p2215
sg13
S'CZ75-Auto'
p2216
sg15
I206
sg16
F0.93999999999999995
sg17
S'Minimal%20Wear'
p2217
sg19
g20
sba(i__main__
skin
p2218
(dp2219
g6
I00
sg7
S'Arms Deal 3'
p2220
sg8
F0.26000000000000001
sg9
S'Red FragCam'
p2221
sg11
S'http://steamcommunity.com/market/priceoverview/?currency=13&appid=730&market_hash_name=P2000%20%7C%20Red%20FragCam%20%28Minimal%20Wear%29'
p2222
sg13
S'P2000'
p2223
sg15
I139
sg16
F0.25
sg17
S'Minimal%20Wear'
p2224
sg19
g20
sba(i__main__
skin
p2225
(dp2226
g6
I00
sg7
S'Arms Deal 3'
p2227
sg8
F0.55000000000000004
sg9
S'Panther'
p2228
sg11
S'http://steamcommunity.com/market/priceoverview/?currency=13&appid=730&market_hash_name=Dual Berettas%20%7C%20Panther%20%28Minimal%20Wear%29'
p2229
sg13
S'Dual Berettas'
p2230
sg15
I153
sg16
F0.60999999999999999
sg17
S'Minimal%20Wear'
p2231
sg19
g20
sba(i__main__
skin
p2232
(dp2233
g6
I00
sg7
S'Arms Deal 3'
p2234
sg8
F1.8999999999999999
sg9
S'Stainless'
p2235
sg11
S'http://steamcommunity.com/market/priceoverview/?currency=13&appid=730&market_hash_name=USP-S%20%7C%20Stainless%20%28Minimal%20Wear%29'
p2236
sg13
S'USP-S'
p2237
sg15
I294
sg16
F1.8999999999999999
sg17
S'Minimal%20Wear'
p2238
sg19
g20
sba(i__main__
skin
p2239
(dp2240
g6
I00
sg7
S'Arms Deal 3'
p2241
sg8
F0.80000000000000004
sg9
S'Blue Fissure'
p2242
sg11
S'http://steamcommunity.com/market/priceoverview/?currency=13&appid=730&market_hash_name=Glock-18%20%7C%20Blue%20Fissure%20%28Minimal%20Wear%29'
p2243
sg13
S'Glock-18'
p2244
sg15
I335
sg16
F0.85999999999999999
sg17
S'Minimal%20Wear'
p2245
sg19
g20
sba(i__main__
skin
p2246
(dp2247
g6
I00
sg7
S'Arms Deal 3'
p2248
sg8
F0.57999999999999996
sg9
S'Tread Plate'
p2249
sg11
S'http://steamcommunity.com/market/priceoverview/?currency=13&appid=730&market_hash_name=CZ75-Auto%20%7C%20Tread%20Plate%20%28Minimal%20Wear%29'
p2250
sg13
S'CZ75-Auto'
p2251
sg15
I36
sg16
F0.58999999999999997
sg17
S'Minimal%20Wear'
p2252
sg19
g63
sba(i__main__
skin
p2253
(dp2254
g6
I00
sg7
S'Arms Deal 3'
p2255
sg8
F1.1799999999999999
sg9
S'Titanium Bit'
p2256
sg11
S'http://steamcommunity.com/market/priceoverview/?currency=13&appid=730&market_hash_name=Tec-9%20%7C%20Titanium%20Bit%20%28Minimal%20Wear%29'
p2257
sg13
S'Tec-9'
p2258
sg15
I101
sg16
F1.22
sg17
S'Minimal%20Wear'
p2259
sg19
g63
sba(i__main__
skin
p2260
(dp2261
g6
I00
sg7
S'Arms Deal 3'
p2262
sg8
F1.23
sg9
S'Heirloom'
p2263
sg11
S'http://steamcommunity.com/market/priceoverview/?currency=13&appid=730&market_hash_name=Desert Eagle%20%7C%20Heirloom%20%28Minimal%20Wear%29'
p2264
sg13
S'Desert Eagle'
p2265
sg15
I167
sg16
F1.1699999999999999
sg17
S'Minimal%20Wear'
p2266
sg19
g63
sba(i__main__
skin
p2267
(dp2268
g6
I00
sg7
S'Arms Deal 3'
p2269
sg8
F1.9299999999999999
sg9
S'Copper Galaxy'
p2270
sg11
S'http://steamcommunity.com/market/priceoverview/?currency=13&appid=730&market_hash_name=Five-SeveN%20%7C%20Copper%20Galaxy%20%28Minimal%20Wear%29'
p2271
sg13
S'Five-SeveN'
p2272
sg15
I106
sg16
F1.96
sg17
S'Minimal%20Wear'
p2273
sg19
g63
sba(i__main__
skin
p2274
(dp2275
g6
I00
sg7
S'Arms Deal 3'
p2276
sg8
F3.0899999999999999
sg9
S'The Fuschia Is Now'
p2277
sg11
S'http://steamcommunity.com/market/priceoverview/?currency=13&appid=730&market_hash_name=CZ75-Auto%20%7C%20The%20Fuschia%20Is%20Now%20%28Minimal%20Wear%29'
p2278
sg13
S'CZ75-Auto'
p2279
sg15
I36
sg16
F2.7999999999999998
sg17
S'Minimal%20Wear'
p2280
sg19
g92
sba(i__main__
skin
p2281
(dp2282
g6
I00
sg7
S'Arms Deal 3'
p2283
sg8
F3.7799999999999998
sg9
S'Undertow'
p2284
sg11
S'http://steamcommunity.com/market/priceoverview/?currency=13&appid=730&market_hash_name=P250%20%7C%20Undertow%20%28Minimal%20Wear%29'
p2285
sg13
S'P250'
p2286
sg15
I65
sg16
F3.9399999999999999
sg17
S'Minimal%20Wear'
p2287
sg19
g92
sba(i__main__
skin
p2288
(dp2289
g6
I00
sg7
S'Arms Deal 3'
p2290
sg8
F6.3499999999999996
sg9
S'Victoria'
p2291
sg11
S'http://steamcommunity.com/market/priceoverview/?currency=13&appid=730&market_hash_name=CZ75-Auto%20%7C%20Victoria%20%28Minimal%20Wear%29'
p2292
sg13
S'CZ75-Auto'
p2293
sg15
I55
sg16
F6.9000000000000004
sg17
S'Minimal%20Wear'
p2294
sg19
g114
sbasS'Vanguard'
p2295
(lp2296
(i__main__
skin
p2297
(dp2298
g6
I00
sg7
g2295
sg8
F0.23000000000000001
sg9
S'Murky'
p2299
sg11
S'http://steamcommunity.com/market/priceoverview/?currency=13&appid=730&market_hash_name=G3SG1%20%7C%20Murky%20%28Minimal%20Wear%29'
p2300
sg13
S'G3SG1'
p2301
sg15
I200
sg16
F0.20000000000000001
sg17
S'Minimal%20Wear'
p2302
sg19
g20
sba(i__main__
skin
p2303
(dp2304
g6
I00
sg7
S'Vanguard'
p2305
sg8
F0.22
sg9
S'Firestarter'
p2306
sg11
S'http://steamcommunity.com/market/priceoverview/?currency=13&appid=730&market_hash_name=MAG-7%20%7C%20Firestarter%20%28Minimal%20Wear%29'
p2307
sg13
S'MAG-7'
p2308
sg15
I145
sg16
F0.19
sg17
S'Minimal%20Wear'
p2309
sg19
g20
sba(i__main__
skin
p2310
(dp2311
g6
I00
sg7
S'Vanguard'
p2312
sg8
F0.28999999999999998
sg9
S'Dart'
p2313
sg11
S'http://steamcommunity.com/market/priceoverview/?currency=13&appid=730&market_hash_name=MP9%20%7C%20Dart%20%28Minimal%20Wear%29'
p2314
sg13
S'MP9'
p2315
sg15
I142
sg16
F0.29999999999999999
sg17
S'Minimal%20Wear'
p2316
sg19
g20
sba(i__main__
skin
p2317
(dp2318
g6
I00
sg7
S'Vanguard'
p2319
sg8
F0.55000000000000004
sg9
S'Urban Hazard'
p2320
sg11
S'http://steamcommunity.com/market/priceoverview/?currency=13&appid=730&market_hash_name=Five-SeveN%20%7C%20Urban%20Hazard%20%28Minimal%20Wear%29'
p2321
sg13
S'Five-SeveN'
p2322
sg15
I0
sg16
F0.58999999999999997
sg17
S'Minimal%20Wear'
p2323
sg19
g20
sba(i__main__
skin
p2324
(dp2325
g6
I00
sg7
S'Vanguard'
p2326
sg8
F0.20999999999999999
sg9
S'Delusion'
p2327
sg11
S'http://steamcommunity.com/market/priceoverview/?currency=13&appid=730&market_hash_name=UMP-45%20%7C%20Delusion%20%28Minimal%20Wear%29'
p2328
sg13
S'UMP-45'
p2329
sg15
I320
sg16
F0.17999999999999999
sg17
S'Minimal%20Wear'
p2330
sg19
g20
sba(i__main__
skin
p2331
(dp2332
g6
I00
sg7
S'Vanguard'
p2333
sg8
F0.56999999999999995
sg9
S'Grinder'
p2334
sg11
S'http://steamcommunity.com/market/priceoverview/?currency=13&appid=730&market_hash_name=Glock-18%20%7C%20Grinder%20%28Minimal%20Wear%29'
p2335
sg13
S'Glock-18'
p2336
sg15
I739
sg16
F0.58999999999999997
sg17
S'Minimal%20Wear'
p2337
sg19
g63
sba(i__main__
skin
p2338
(dp2339
g6
I00
sg7
S'Vanguard'
p2340
sg8
F1.6499999999999999
sg9
S'Basilisk'
p2341
sg11
S'http://steamcommunity.com/market/priceoverview/?currency=13&appid=730&market_hash_name=M4A1-S%20%7C%20Basilisk%20%28Minimal%20Wear%29'
p2342
sg13
S'M4A1-S'
p2343
sg15
I0
sg16
F1.6100000000000001
sg17
S'Minimal%20Wear'
p2344
sg19
g63
sba(i__main__
skin
p2345
(dp2346
g6
I00
sg7
S'Vanguard'
p2347
sg8
F1.5
sg9
S'Griffin'
p2348
sg11
S'http://steamcommunity.com/market/priceoverview/?currency=13&appid=730&market_hash_name=M4A4%20%7C%20Griffin%20%28Minimal%20Wear%29'
p2349
sg13
S'M4A4'
p2350
sg15
I892
sg16
F1.3999999999999999
sg17
S'Minimal%20Wear'
p2351
sg19
g63
sba(i__main__
skin
p2352
(dp2353
g6
I00
sg7
S'Vanguard'
p2354
sg8
F0.41999999999999998
sg9
S'Highwayman'
p2355
sg11
S'http://steamcommunity.com/market/priceoverview/?currency=13&appid=730&market_hash_name=Sawed-Off%20%7C%20Highwayman%20%28Minimal%20Wear%29'
p2356
sg13
S'Sawed-Off'
p2357
sg15
I74
sg16
F0.41999999999999998
sg17
S'Minimal%20Wear'
p2358
sg19
g63
sba(i__main__
skin
p2359
(dp2360
g6
I00
sg7
S'Vanguard'
p2361
sg8
F2.79
sg9
S'Cartel'
p2362
sg11
S'http://steamcommunity.com/market/priceoverview/?currency=13&appid=730&market_hash_name=P250%20%7C%20Cartel%20%28Minimal%20Wear%29'
p2363
sg13
S'P250'
p2364
sg15
I136
sg16
F3.1299999999999999
sg17
S'Minimal%20Wear'
p2365
sg19
g92
sba(i__main__
skin
p2366
(dp2367
g6
I00
sg7
S'Vanguard'
p2368
sg8
F3.4399999999999999
sg9
S'Cardiac'
p2369
sg11
S'http://steamcommunity.com/market/priceoverview/?currency=13&appid=730&market_hash_name=SCAR-20%20%7C%20Cardiac%20%28Minimal%20Wear%29'
p2370
sg13
S'SCAR-20'
p2371
sg15
I90
sg16
F3.4700000000000002
sg17
S'Minimal%20Wear'
p2372
sg19
g92
sba(i__main__
skin
p2373
(dp2374
g6
I00
sg7
S'Vanguard'
p2375
sg8
F3.1499999999999999
sg9
S'Tranquility'
p2376
sg11
S'http://steamcommunity.com/market/priceoverview/?currency=13&appid=730&market_hash_name=XM1014%20%7C%20Tranquility%20%28Minimal%20Wear%29'
p2377
sg13
S'XM1014'
p2378
sg15
I87
sg16
F3.1400000000000001
sg17
S'Minimal%20Wear'
p2379
sg19
g92
sba(i__main__
skin
p2380
(dp2381
g6
I00
sg7
S'Vanguard'
p2382
sg8
F30.109999999999999
sg9
S'Wasteland Rebel'
p2383
sg11
S'http://steamcommunity.com/market/priceoverview/?currency=13&appid=730&market_hash_name=AK-47%20%7C%20Wasteland%20Rebel%20%28Minimal%20Wear%29'
p2384
sg13
S'AK-47'
p2385
sg15
I107
sg16
F30.09
sg17
S'Minimal%20Wear'
p2386
sg19
g114
sba(i__main__
skin
p2387
(dp2388
g6
I00
sg7
S'Vanguard'
p2389
sg8
F11.699999999999999
sg9
S'Fire Elemental'
p2390
sg11
S'http://steamcommunity.com/market/priceoverview/?currency=13&appid=730&market_hash_name=P2000%20%7C%20Fire%20Elemental%20%28Minimal%20Wear%29'
p2391
sg13
S'P2000'
p2392
sg15
I151
sg16
F11.300000000000001
sg17
S'Minimal%20Wear'
p2393
sg19
g114
sbasS'Militia'
p2394
(lp2395
(i__main__
skin
p2396
(dp2397
g6
I00
sg7
g2394
sg8
F15.779999999999999
sg9
S'Splash Jam'
p2398
sg11
S'http://steamcommunity.com/market/priceoverview/?currency=13&appid=730&market_hash_name=SCAR-20%20%7C%20Splash%20Jam%20%28Minimal%20Wear%29'
p2399
sg13
S'SCAR-20'
p2400
sg15
I4
sg16
F14.390000000000001
sg17
S'Minimal%20Wear'
p2401
sg19
g92
sba(i__main__
skin
p2402
(dp2403
g6
I00
sg7
S'Militia'
p2404
sg9
S'Modern Hunter *'
p2405
sg11
S'http://steamcommunity.com/market/priceoverview/?currency=13&appid=730&market_hash_name=M4A4%20%7C%20Modern%20Hunter%20%2A%20%28Minimal%20Wear%29'
p2406
sg13
S'M4A4'
p2407
sg17
S'Minimal%20Wear'
p2408
sg19
g63
sba(i__main__
skin
p2409
(dp2410
g6
I00
sg7
S'Militia'
p2411
sg8
F5.4900000000000002
sg9
S'Modern Hunter'
p2412
sg11
S'http://steamcommunity.com/market/priceoverview/?currency=13&appid=730&market_hash_name=PP-Bizon%20%7C%20Modern%20Hunter%20%28Minimal%20Wear%29'
p2413
sg13
S'PP-Bizon'
p2414
sg15
I1
sg16
F6.1100000000000003
sg17
S'Minimal%20Wear'
p2415
sg19
g20
sba(i__main__
skin
p2416
(dp2417
g6
I00
sg7
S'Militia'
p2418
sg8
F6.9299999999999997
sg9
S'Blaze Orange'
p2419
sg11
S'http://steamcommunity.com/market/priceoverview/?currency=13&appid=730&market_hash_name=XM1014%20%7C%20Blaze%20Orange%20%28Minimal%20Wear%29'
p2420
sg13
S'XM1014'
p2421
sg15
I4
sg16
F6.8600000000000003
sg17
S'Minimal%20Wear'
p2422
sg19
g20
sba(i__main__
skin
p2423
(dp2424
g6
I00
sg7
S'Militia'
p2425
sg8
F6.29
sg9
S'Modern Hunter'
p2426
sg11
S'http://steamcommunity.com/market/priceoverview/?currency=13&appid=730&market_hash_name=P250%20%7C%20Modern%20Hunter%20%28Minimal%20Wear%29'
p2427
sg13
S'P250'
p2428
sg15
I5
sg16
F6.9800000000000004
sg17
S'Minimal%20Wear'
p2429
sg19
g20
sba(i__main__
skin
p2430
(dp2431
g6
I00
sg7
S'Militia'
p2432
sg8
F7.7599999999999998
sg9
S'Blaze Orange'
p2433
sg11
S'http://steamcommunity.com/market/priceoverview/?currency=13&appid=730&market_hash_name=Nova%20%7C%20Blaze%20Orange%20%28Minimal%20Wear%29'
p2434
sg13
S'Nova'
p2435
sg15
I6
sg16
F8.3399999999999999
sg17
S'Minimal%20Wear'
p2436
sg19
g20
sba(i__main__
skin
p2437
(dp2438
g6
I00
sg7
S'Militia'
p2439
sg8
I-1
sg9
S'Modern Hunter'
p2440
sg11
S'http://steamcommunity.com/market/priceoverview/?currency=13&appid=730&market_hash_name=Nova%20%7C%20Modern%20Hunter%20%28Minimal%20Wear%29'
p2441
sg13
S'Nova'
p2442
sg15
I0
sg16
F7.0199999999999996
sg17
S'Minimal%20Wear'
p2443
sg19
g20
sba(i__main__
skin
p2444
(dp2445
g6
I00
sg7
S'Militia'
p2446
sg9
S'Grassland Leaves *'
p2447
sg11
S'http://steamcommunity.com/market/priceoverview/?currency=13&appid=730&market_hash_name=P2000%20%7C%20Grassland%20Leaves%20%2A%20%28Minimal%20Wear%29'
p2448
sg13
S'P2000'
p2449
sg17
S'Minimal%20Wear'
p2450
sg19
g396
sba(i__main__
skin
p2451
(dp2452
g6
I00
sg7
S'Militia'
p2453
sg8
F0.33000000000000002
sg9
S'Forest Leaves'
p2454
sg11
S'http://steamcommunity.com/market/priceoverview/?currency=13&appid=730&market_hash_name=PP-Bizon%20%7C%20Forest%20Leaves%20%28Minimal%20Wear%29'
p2455
sg13
S'PP-Bizon'
p2456
sg15
I29
sg16
F0.34000000000000002
sg17
S'Minimal%20Wear'
p2457
sg19
g439
sba(i__main__
skin
p2458
(dp2459
g6
I00
sg7
S'Militia'
p2460
sg8
F0.34000000000000002
sg9
S'Tornado'
p2461
sg11
S'http://steamcommunity.com/market/priceoverview/?currency=13&appid=730&market_hash_name=MAC-10%20%7C%20Tornado%20%28Minimal%20Wear%29'
p2462
sg13
S'MAC-10'
p2463
sg15
I13
sg16
F0.35999999999999999
sg17
S'Minimal%20Wear'
p2464
sg19
g439
sba(i__main__
skin
p2465
(dp2466
g6
I00
sg7
S'Militia'
p2467
sg8
F0.44
sg9
S'Grassland'
p2468
sg11
S'http://steamcommunity.com/market/priceoverview/?currency=13&appid=730&market_hash_name=XM1014%20%7C%20Grassland%20%28Minimal%20Wear%29'
p2469
sg13
S'XM1014'
p2470
sg15
I13
sg16
F0.46000000000000002
sg17
S'Minimal%20Wear'
p2471
sg19
g439
sbasS'Revolver Content'
p2472
(lp2473
(i__main__
skin
p2474
(dp2475
g6
I00
sg7
g2472
sg8
F0.40000000000000002
sg9
S'Crimson Web'
p2476
sg11
S'http://steamcommunity.com/market/priceoverview/?currency=13&appid=730&market_hash_name=R8 Revolver%20%7C%20Crimson%20Web%20%28Minimal%20Wear%29'
p2477
sg13
S'R8 Revolver'
p2478
sg15
I971
sg16
F0.40999999999999998
sg17
S'Minimal%20Wear'
p2479
sg19
g20
sba(i__main__
skin
p2480
(dp2481
g6
I00
sg7
S'Revolver Content'
p2482
sg8
F0.31
sg9
S'Ricochet'
p2483
sg11
S'http://steamcommunity.com/market/priceoverview/?currency=13&appid=730&market_hash_name=AUG%20%7C%20Ricochet%20%28Minimal%20Wear%29'
p2484
sg13
S'AUG'
p2485
sg15
I942
sg16
F0.29999999999999999
sg17
S'Minimal%20Wear'
p2486
sg19
g20
sba(i__main__
skin
p2487
(dp2488
g6
I00
sg7
S'Revolver Content'
p2489
sg8
F0.31
sg9
S'Corinthian'
p2490
sg11
S'http://steamcommunity.com/market/priceoverview/?currency=13&appid=730&market_hash_name=Desert Eagle%20%7C%20Corinthian%20%28Minimal%20Wear%29'
p2491
sg13
S'Desert Eagle'
p2492
sg15
I0
sg16
F0.32000000000000001
sg17
S'Minimal%20Wear'
p2493
sg19
g20
sba(i__main__
skin
p2494
(dp2495
g6
I00
sg7
S'Revolver Content'
p2496
sg8
F0.22
sg9
S'Imperial'
p2497
sg11
S'http://steamcommunity.com/market/priceoverview/?currency=13&appid=730&market_hash_name=P2000%20%7C%20Imperial%20%28Minimal%20Wear%29'
p2498
sg13
S'P2000'
p2499
sg15
I0
sg16
F0.20999999999999999
sg17
S'Minimal%20Wear'
p2500
sg19
g20
sba(i__main__
skin
p2501
(dp2502
g6
I00
sg7
S'Revolver Content'
p2503
sg8
F0.20999999999999999
sg9
S'Yorick'
p2504
sg11
S'http://steamcommunity.com/market/priceoverview/?currency=13&appid=730&market_hash_name=Sawed-Off%20%7C%20Yorick%20%28Minimal%20Wear%29'
p2505
sg13
S'Sawed-Off'
p2506
sg15
I499
sg16
F0.20999999999999999
sg17
S'Minimal%20Wear'
p2507
sg19
g20
sba(i__main__
skin
p2508
(dp2509
g6
I00
sg7
S'Revolver Content'
p2510
sg8
F1.6299999999999999
sg9
S'Fuel Rod'
p2511
sg11
S'http://steamcommunity.com/market/priceoverview/?currency=13&appid=730&market_hash_name=PP-Bizon%20%7C%20Fuel%20Rod%20%28Minimal%20Wear%29'
p2512
sg13
S'PP-Bizon'
p2513
sg15
I223
sg16
F1.6599999999999999
sg17
S'Minimal%20Wear'
p2514
sg19
g63
sba(i__main__
skin
p2515
(dp2516
g6
I00
sg7
S'Revolver Content'
p2517
sg8
F1.76
sg9
S'Retrobution'
p2518
sg11
S'http://steamcommunity.com/market/priceoverview/?currency=13&appid=730&market_hash_name=Five-SeveN%20%7C%20Retrobution%20%28Minimal%20Wear%29'
p2519
sg13
S'Five-SeveN'
p2520
sg15
I346
sg16
F1.79
sg17
S'Minimal%20Wear'
p2521
sg19
g63
sba(i__main__
skin
p2522
(dp2523
g6
I00
sg7
S'Revolver Content'
p2524
sg8
F1.4099999999999999
sg9
S'Power Loader'
p2525
sg11
S'http://steamcommunity.com/market/priceoverview/?currency=13&appid=730&market_hash_name=Negev%20%7C%20Power%20Loader%20%28Minimal%20Wear%29'
p2526
sg13
S'Negev'
p2527
sg15
I214
sg16
F1.3999999999999999
sg17
S'Minimal%20Wear'
p2528
sg19
g63
sba(i__main__
skin
p2529
(dp2530
g6
I00
sg7
S'Revolver Content'
p2531
sg8
F1.54
sg9
S'Tiger Moth'
p2532
sg11
S'http://steamcommunity.com/market/priceoverview/?currency=13&appid=730&market_hash_name=SG 553%20%7C%20Tiger%20Moth%20%28Minimal%20Wear%29'
p2533
sg13
S'SG 553'
p2534
sg15
I253
sg16
F1.52
sg17
S'Minimal%20Wear'
p2535
sg19
g63
sba(i__main__
skin
p2536
(dp2537
g6
I00
sg7
S'Revolver Content'
p2538
sg8
F3.6000000000000001
sg9
S'Avalanche'
p2539
sg11
S'http://steamcommunity.com/market/priceoverview/?currency=13&appid=730&market_hash_name=Tec-9%20%7C%20Avalanche%20%28Minimal%20Wear%29'
p2540
sg13
S'Tec-9'
p2541
sg15
I325
sg16
F3.8199999999999998
sg17
S'Minimal%20Wear'
p2542
sg19
g63
sba(i__main__
skin
p2543
(dp2544
g6
I00
sg7
S'Revolver Content'
p2545
sg8
F1.4399999999999999
sg9
S'Teclu Burner'
p2546
sg11
S'http://steamcommunity.com/market/priceoverview/?currency=13&appid=730&market_hash_name=XM1014%20%7C%20Teclu%20Burner%20%28Minimal%20Wear%29'
p2547
sg13
S'XM1014'
p2548
sg15
I290
sg16
F1.3999999999999999
sg17
S'Minimal%20Wear'
p2549
sg19
g63
sba(i__main__
skin
p2550
(dp2551
g6
I00
sg7
S'Revolver Content'
p2552
sg8
F23.32
sg9
S'Point Disarray'
p2553
sg11
S'http://steamcommunity.com/market/priceoverview/?currency=13&appid=730&market_hash_name=AK-47%20%7C%20Point%20Disarray%20%28Minimal%20Wear%29'
p2554
sg13
S'AK-47'
p2555
sg15
I212
sg16
F23.460000000000001
sg17
S'Minimal%20Wear'
p2556
sg19
g92
sba(i__main__
skin
p2557
(dp2558
g6
I00
sg7
S'Revolver Content'
p2559
sg8
F21.579999999999998
sg9
S'The Executioner'
p2560
sg11
S'http://steamcommunity.com/market/priceoverview/?currency=13&appid=730&market_hash_name=G3SG1%20%7C%20The%20Executioner%20%28Minimal%20Wear%29'
p2561
sg13
S'G3SG1'
p2562
sg15
I6
sg16
F25.09
sg17
S'Minimal%20Wear'
p2563
sg19
g92
sba(i__main__
skin
p2564
(dp2565
g6
I00
sg7
S'Revolver Content'
p2566
sg8
F3.1400000000000001
sg9
S'Shapewood'
p2567
sg11
S'http://steamcommunity.com/market/priceoverview/?currency=13&appid=730&market_hash_name=P90%20%7C%20Shapewood%20%28Minimal%20Wear%29'
p2568
sg13
S'P90'
p2569
sg15
I114
sg16
F3.1600000000000001
sg17
S'Minimal%20Wear'
p2570
sg19
g92
sba(i__main__
skin
p2571
(dp2572
g6
I00
sg7
S'Revolver Content'
p2573
sg8
F39.960000000000001
sg9
S'Royal Paladin'
p2574
sg11
S'http://steamcommunity.com/market/priceoverview/?currency=13&appid=730&market_hash_name=M4A4%20%7C%20Royal%20Paladin%20%28Minimal%20Wear%29'
p2575
sg13
S'M4A4'
p2576
sg15
I61
sg16
F41.68
sg17
S'Minimal%20Wear'
p2577
sg19
g114
sba(i__main__
skin
p2578
(dp2579
g6
I00
sg7
S'Revolver Content'
p2580
sg8
F7.0499999999999998
sg9
S'Fade'
p2581
sg11
S'http://steamcommunity.com/market/priceoverview/?currency=13&appid=730&market_hash_name=R8 Revolver%20%7C%20Fade%20%28Minimal%20Wear%29'
p2582
sg13
S'R8 Revolver'
p2583
sg15
I126
sg16
F8
sg17
S'Minimal%20Wear'
p2584
sg19
g114
sbasS'Gods and Monsters'
p2585
(lp2586
(i__main__
skin
p2587
(dp2588
g6
I00
sg7
g2585
sg8
F0.51000000000000001
sg9
S'Asterion'
p2589
sg11
S'http://steamcommunity.com/market/priceoverview/?currency=13&appid=730&market_hash_name=MP7%20%7C%20Asterion%20%28Minimal%20Wear%29'
p2590
sg13
S'MP7'
p2591
sg15
I194
sg16
F0.55000000000000004
sg17
S'Minimal%20Wear'
p2592
sg19
g439
sba(i__main__
skin
p2593
(dp2594
g6
I00
sg7
S'Gods and Monsters'
p2595
sg8
F0.5
sg9
S'Daedalus'
p2596
sg11
S'http://steamcommunity.com/market/priceoverview/?currency=13&appid=730&market_hash_name=AUG%20%7C%20Daedalus%20%28Minimal%20Wear%29'
p2597
sg13
S'AUG'
p2598
sg15
I85
sg16
F0.51000000000000001
sg17
S'Minimal%20Wear'
p2599
sg19
g439
sba(i__main__
skin
p2600
(dp2601
g6
I00
sg7
S'Gods and Monsters'
p2602
sg8
F0.56999999999999995
sg9
S'Moon in Libra'
p2603
sg11
S'http://steamcommunity.com/market/priceoverview/?currency=13&appid=730&market_hash_name=Dual Berettas%20%7C%20Moon%20in%20Libra%20%28Minimal%20Wear%29'
p2604
sg13
S'Dual Berettas'
p2605
sg15
I111
sg16
F0.66000000000000003
sg17
S'Minimal%20Wear'
p2606
sg19
g439
sba(i__main__
skin
p2607
(dp2608
g6
I00
sg7
S'Gods and Monsters'
p2609
sg8
F0.71999999999999997
sg9
S'Moon in Libra'
p2610
sg11
S'http://steamcommunity.com/market/priceoverview/?currency=13&appid=730&market_hash_name=Nova%20%7C%20Moon%20in%20Libra%20%28Minimal%20Wear%29'
p2611
sg13
S'Nova'
p2612
sg15
I101
sg16
F0.70999999999999996
sg17
S'Minimal%20Wear'
p2613
sg19
g439
sba(i__main__
skin
p2614
(dp2615
g6
I00
sg7
S'Gods and Monsters'
p2616
sg8
F2.1899999999999999
sg9
S'Hades'
p2617
sg11
S'http://steamcommunity.com/market/priceoverview/?currency=13&appid=730&market_hash_name=Tec-9%20%7C%20Hades%20%28Minimal%20Wear%29'
p2618
sg13
S'Tec-9'
p2619
sg15
I46
sg16
F2.1400000000000001
sg17
S'Minimal%20Wear'
p2620
sg19
g396
sba(i__main__
skin
p2621
(dp2622
g6
I00
sg7
S'Gods and Monsters'
p2623
sg8
F1.8999999999999999
sg9
S'Pathfinder'
p2624
sg11
S'http://steamcommunity.com/market/priceoverview/?currency=13&appid=730&market_hash_name=P2000%20%7C%20Pathfinder%20%28Minimal%20Wear%29'
p2625
sg13
S'P2000'
p2626
sg15
I43
sg16
F2.04
sg17
S'Minimal%20Wear'
p2627
sg19
g396
sba(i__main__
skin
p2628
(dp2629
g6
I00
sg7
S'Gods and Monsters'
p2630
sg8
F7.4000000000000004
sg9
S'Sun in Leo'
p2631
sg11
S'http://steamcommunity.com/market/priceoverview/?currency=13&appid=730&market_hash_name=AWP%20%7C%20Sun%20in%20Leo%20%28Minimal%20Wear%29'
p2632
sg13
S'AWP'
p2633
sg15
I472
sg16
F7.2199999999999998
sg17
S'Minimal%20Wear'
p2634
sg19
g396
sba(i__main__
skin
p2635
(dp2636
g6
I00
sg7
S'Gods and Monsters'
p2637
sg8
F2.1600000000000001
sg9
S'Shipping Forecast'
p2638
sg11
S'http://steamcommunity.com/market/priceoverview/?currency=13&appid=730&market_hash_name=M249%20%7C%20Shipping%20Forecast%20%28Minimal%20Wear%29'
p2639
sg13
S'M249'
p2640
sg15
I28
sg16
F1.8899999999999999
sg17
S'Minimal%20Wear'
p2641
sg19
g396
sba(i__main__
skin
p2642
(dp2643
g6
I00
sg7
S'Gods and Monsters'
p2644
sg8
F17.43
sg9
S"Minotaur's Labyrinth"
p2645
sg11
S'http://steamcommunity.com/market/priceoverview/?currency=13&appid=730&market_hash_name=UMP-45%20%7C%20Minotaur%27s%20Labyrinth%20%28Minimal%20Wear%29'
p2646
sg13
S'UMP-45'
p2647
sg15
I6
sg16
F21.899999999999999
sg17
S'Minimal%20Wear'
p2648
sg19
g20
sba(i__main__
skin
p2649
(dp2650
g6
I00
sg7
S'Gods and Monsters'
p2651
sg8
I-1
sg9
S"Pandora's Box"
p2652
sg11
S'http://steamcommunity.com/market/priceoverview/?currency=13&appid=730&market_hash_name=MP9%20%7C%20Pandora%27s%20Box%20%28Minimal%20Wear%29'
p2653
sg13
S'MP9'
p2654
sg15
I0
sg16
F22.879999999999999
sg17
S'Minimal%20Wear'
p2655
sg19
g20
sba(i__main__
skin
p2656
(dp2657
g6
I00
sg7
S'Gods and Monsters'
p2658
sg8
I-1
sg9
S'Chronos'
p2659
sg11
S'http://steamcommunity.com/market/priceoverview/?currency=13&appid=730&market_hash_name=G3SG1%20%7C%20Chronos%20%28Minimal%20Wear%29'
p2660
sg13
S'G3SG1'
p2661
sg15
I0
sg16
F41.350000000000001
sg17
S'Minimal%20Wear'
p2662
sg19
g63
sba(i__main__
skin
p2663
(dp2664
g6
I00
sg7
S'Gods and Monsters'
p2665
sg8
F145.47999999999999
sg9
S'Icarus Fell'
p2666
sg11
S'http://steamcommunity.com/market/priceoverview/?currency=13&appid=730&market_hash_name=M4A1-S%20%7C%20Icarus%20Fell%20%28Minimal%20Wear%29'
p2667
sg13
S'M4A1-S'
p2668
sg15
I6
sg16
F140.78
sg17
S'Minimal%20Wear'
p2669
sg19
g63
sba(i__main__
skin
p2670
(dp2671
g6
I00
sg7
S'Gods and Monsters'
p2672
sg8
F251.80000000000001
sg9
S'Poseidon'
p2673
sg11
S'http://steamcommunity.com/market/priceoverview/?currency=13&appid=730&market_hash_name=M4A4%20%7C%20Poseidon%20%28Minimal%20Wear%29'
p2674
sg13
S'M4A4'
p2675
sg15
I4
sg16
F242.03999999999999
sg17
S'Minimal%20Wear'
p2676
sg19
g92
sba(i__main__
skin
p2677
(dp2678
g6
I00
sg7
S'Gods and Monsters'
p2679
sg8
I-1
sg9
S'Medusa'
p2680
sg11
S'http://steamcommunity.com/market/priceoverview/?currency=13&appid=730&market_hash_name=AWP%20%7C%20Medusa%20%28Minimal%20Wear%29'
p2681
sg13
S'AWP'
p2682
sg15
I0
sg16
I-1
sg17
S'Minimal%20Wear'
p2683
sg19
g114
sbasS'Vertigo'
p2684
(lp2685
(i__main__
skin
p2686
(dp2687
g6
I00
sg7
g2684
sg9
S'Demolition'
p2688
sg11
S'http://steamcommunity.com/market/priceoverview/?currency=13&appid=730&market_hash_name=Dual Berettas%20%7C%20Demolition%20%28Minimal%20Wear%29'
p2689
sg13
S'Dual Berettas'
p2690
sg17
S'Minimal%20Wear'
p2691
sg19
g63
sba(i__main__
skin
p2692
(dp2693
g6
I00
sg7
S'Vertigo'
p2694
sg8
F7.6799999999999997
sg9
S'Black Laminate'
p2695
sg11
S'http://steamcommunity.com/market/priceoverview/?currency=13&appid=730&market_hash_name=AK-47%20%7C%20Black%20Laminate%20%28Minimal%20Wear%29'
p2696
sg13
S'AK-47'
p2697
sg15
I83
sg16
F7.6600000000000001
sg17
S'Minimal%20Wear'
p2698
sg19
g20
sba(i__main__
skin
p2699
(dp2700
g6
I00
sg7
S'Vertigo'
p2701
sg8
F1.73
sg9
S'Glacier Mesh'
p2702
sg11
S'http://steamcommunity.com/market/priceoverview/?currency=13&appid=730&market_hash_name=P90%20%7C%20Glacier%20Mesh%20%28Minimal%20Wear%29'
p2703
sg13
S'P90'
p2704
sg15
I33
sg16
F1.74
sg17
S'Minimal%20Wear'
p2705
sg19
g20
sba(i__main__
skin
p2706
(dp2707
g6
I00
sg7
S'Vertigo'
p2708
sg8
F4.4900000000000002
sg9
S'Carbon Fiber'
p2709
sg11
S'http://steamcommunity.com/market/priceoverview/?currency=13&appid=730&market_hash_name=PP-Bizon%20%7C%20Carbon%20Fiber%20%28Minimal%20Wear%29'
p2710
sg13
S'PP-Bizon'
p2711
sg15
I4
sg16
F4.5300000000000002
sg17
S'Minimal%20Wear'
p2712
sg19
g396
sba(i__main__
skin
p2713
(dp2714
g6
I00
sg7
S'Vertigo'
p2715
sg8
F0.66000000000000003
sg9
S'Urban DDPAT'
p2716
sg11
S'http://steamcommunity.com/market/priceoverview/?currency=13&appid=730&market_hash_name=MAC-10%20%7C%20Urban%20DDPAT%20%28Minimal%20Wear%29'
p2717
sg13
S'MAC-10'
p2718
sg15
I20
sg16
F0.70999999999999996
sg17
S'Minimal%20Wear'
p2719
sg19
g439
sba(i__main__
skin
p2720
(dp2721
g6
I00
sg7
S'Vertigo'
p2722
sg8
F0.55000000000000004
sg9
S'Urban Perforated'
p2723
sg11
S'http://steamcommunity.com/market/priceoverview/?currency=13&appid=730&market_hash_name=XM1014%20%7C%20Urban%20Perforated%20%28Minimal%20Wear%29'
p2724
sg13
S'XM1014'
p2725
sg15
I17
sg16
F0.63
sg17
S'Minimal%20Wear'
p2726
sg19
g439
sbasS'Overpass'
p2727
(lp2728
(i__main__
skin
p2729
(dp2730
g6
I00
sg7
g2727
sg8
F111.55
sg9
S'Master Piece'
p2731
sg11
S'http://steamcommunity.com/market/priceoverview/?currency=13&appid=730&market_hash_name=M4A1-S%20%7C%20Master%20Piece%20%28Minimal%20Wear%29'
p2732
sg13
S'M4A1-S'
p2733
sg15
I12
sg16
F112.27
sg17
S'Minimal%20Wear'
p2734
sg19
g92
sba(i__main__
skin
p2735
(dp2736
g6
I00
sg7
S'Overpass'
p2737
sg8
F25.030000000000001
sg9
S'Road Rash'
p2738
sg11
S'http://steamcommunity.com/market/priceoverview/?currency=13&appid=730&market_hash_name=USP-S%20%7C%20Road%20Rash%20%28Minimal%20Wear%29'
p2739
sg13
S'USP-S'
p2740
sg15
I14
sg16
F24.260000000000002
sg17
S'Minimal%20Wear'
p2741
sg19
g63
sba(i__main__
skin
p2742
(dp2743
g6
I00
sg7
S'Overpass'
p2744
sg8
F30.82
sg9
S'Pink DDPAT'
p2745
sg11
S'http://steamcommunity.com/market/priceoverview/?currency=13&appid=730&market_hash_name=AWP%20%7C%20Pink%20DDPAT%20%28Minimal%20Wear%29'
p2746
sg13
S'AWP'
p2747
sg15
I58
sg16
F32.520000000000003
sg17
S'Minimal%20Wear'
p2748
sg19
g63
sba(i__main__
skin
p2749
(dp2750
g6
I00
sg7
S'Overpass'
p2751
sg8
F5.0999999999999996
sg9
S'VariCamo Blue'
p2752
sg11
S'http://steamcommunity.com/market/priceoverview/?currency=13&appid=730&market_hash_name=XM1014%20%7C%20VariCamo%20Blue%20%28Minimal%20Wear%29'
p2753
sg13
S'XM1014'
p2754
sg15
I11
sg16
F7.0999999999999996
sg17
S'Minimal%20Wear'
p2755
sg19
g20
sba(i__main__
skin
p2756
(dp2757
g6
I00
sg7
S'Overpass'
p2758
sg8
F5.4800000000000004
sg9
S'Detour'
p2759
sg11
S'http://steamcommunity.com/market/priceoverview/?currency=13&appid=730&market_hash_name=SSG 08%20%7C%20Detour%20%28Minimal%20Wear%29'
p2760
sg13
S'SSG 08'
p2761
sg15
I125
sg16
F5.21
sg17
S'Minimal%20Wear'
p2762
sg19
g20
sba(i__main__
skin
p2763
(dp2764
g6
I00
sg7
S'Overpass'
p2765
sg8
F4.6900000000000004
sg9
S'Nitro'
p2766
sg11
S'http://steamcommunity.com/market/priceoverview/?currency=13&appid=730&market_hash_name=CZ75-Auto%20%7C%20Nitro%20%28Minimal%20Wear%29'
p2767
sg13
S'CZ75-Auto'
p2768
sg15
I16
sg16
F5.6299999999999999
sg17
S'Minimal%20Wear'
p2769
sg19
g20
sba(i__main__
skin
p2770
(dp2771
g6
I00
sg7
S'Overpass'
p2772
sg8
F0.81000000000000005
sg9
S'Grassland'
p2773
sg11
S'http://steamcommunity.com/market/priceoverview/?currency=13&appid=730&market_hash_name=P2000%20%7C%20Grassland%20%28Minimal%20Wear%29'
p2774
sg13
S'P2000'
p2775
sg15
I13
sg16
F0.65000000000000002
sg17
S'Minimal%20Wear'
p2776
sg19
g396
sba(i__main__
skin
p2777
(dp2778
g6
I00
sg7
S'Overpass'
p2779
sg8
F0.79000000000000004
sg9
S'Night'
p2780
sg11
S'http://steamcommunity.com/market/priceoverview/?currency=13&appid=730&market_hash_name=Glock-18%20%7C%20Night%20%28Minimal%20Wear%29'
p2781
sg13
S'Glock-18'
p2782
sg15
I205
sg16
F0.81000000000000005
sg17
S'Minimal%20Wear'
p2783
sg19
g396
sba(i__main__
skin
p2784
(dp2785
g6
I00
sg7
S'Overpass'
p2786
sg8
F0.71999999999999997
sg9
S'Gunsmoke'
p2787
sg11
S'http://steamcommunity.com/market/priceoverview/?currency=13&appid=730&market_hash_name=MP7%20%7C%20Gunsmoke%20%28Minimal%20Wear%29'
p2788
sg13
S'MP7'
p2789
sg15
I84
sg16
F0.77000000000000002
sg17
S'Minimal%20Wear'
p2790
sg19
g396
sba(i__main__
skin
p2791
(dp2792
g6
I00
sg7
S'Overpass'
p2793
sg8
F0.77000000000000002
sg9
S'Urban DDPAT'
p2794
sg11
S'http://steamcommunity.com/market/priceoverview/?currency=13&appid=730&market_hash_name=Desert Eagle%20%7C%20Urban%20DDPAT%20%28Minimal%20Wear%29'
p2795
sg13
S'Desert Eagle'
p2796
sg15
I141
sg16
F0.82999999999999996
sg17
S'Minimal%20Wear'
p2797
sg19
g396
sba(i__main__
skin
p2798
(dp2799
g6
I00
sg7
S'Overpass'
p2800
sg8
F0.13
sg9
S'Storm'
p2801
sg11
S'http://steamcommunity.com/market/priceoverview/?currency=13&appid=730&market_hash_name=MP9%20%7C%20Storm%20%28Minimal%20Wear%29'
p2802
sg13
S'MP9'
p2803
sg15
I119
sg16
F0.13
sg17
S'Minimal%20Wear'
p2804
sg19
g439
sba(i__main__
skin
p2805
(dp2806
g6
I00
sg7
S'Overpass'
p2807
sg8
F0.13
sg9
S'Storm'
p2808
sg11
S'http://steamcommunity.com/market/priceoverview/?currency=13&appid=730&market_hash_name=MAG-7%20%7C%20Storm%20%28Minimal%20Wear%29'
p2809
sg13
S'MAG-7'
p2810
sg15
I58
sg16
F0.10000000000000001
sg17
S'Minimal%20Wear'
p2811
sg19
g439
sba(i__main__
skin
p2812
(dp2813
g6
I00
sg7
S'Overpass'
p2814
sg8
F0.13
sg9
S'Contrast Spray'
p2815
sg11
S'http://steamcommunity.com/market/priceoverview/?currency=13&appid=730&market_hash_name=M249%20%7C%20Contrast%20Spray%20%28Minimal%20Wear%29'
p2816
sg13
S'M249'
p2817
sg15
I56
sg16
F0.10000000000000001
sg17
S'Minimal%20Wear'
p2818
sg19
g439
sba(i__main__
skin
p2819
(dp2820
g6
I00
sg7
S'Overpass'
p2821
sg8
F2.1200000000000001
sg9
S'Scorched'
p2822
sg11
S'http://steamcommunity.com/market/priceoverview/?currency=13&appid=730&market_hash_name=UMP-45%20%7C%20Scorched%20%28Minimal%20Wear%29'
p2823
sg13
S'UMP-45'
p2824
sg15
I135
sg16
F0.10000000000000001
sg17
S'Minimal%20Wear'
p2825
sg19
g439
sba(i__main__
skin
p2826
(dp2827
g6
I00
sg7
S'Overpass'
p2828
sg8
F0.080000000000000002
sg9
S'Sage Spray'
p2829
sg11
S'http://steamcommunity.com/market/priceoverview/?currency=13&appid=730&market_hash_name=Sawed-Off%20%7C%20Sage%20Spray%20%28Minimal%20Wear%29'
p2830
sg13
S'Sawed-Off'
p2831
sg15
I43
sg16
F0.11
sg17
S'Minimal%20Wear'
p2832
sg19
g439
sbasS'Arms Deal Two'
p2833
(lp2834
(i__main__
skin
p2835
(dp2836
g6
I00
sg7
g2833
sg9
S'Blue Titanium'
p2837
sg11
S'http://steamcommunity.com/market/priceoverview/?currency=13&appid=730&market_hash_name=Tec-9%20%7C%20Blue%20Titanium%20%28Minimal%20Wear%29'
p2838
sg13
S'Tec-9'
p2839
sg17
S'Minimal%20Wear'
p2840
sg19
g20
sba(i__main__
skin
p2841
(dp2842
g6
I00
sg7
S'Arms Deal Two'
p2843
sg8
F1.6799999999999999
sg9
S'Blood Tiger'
p2844
sg11
S'http://steamcommunity.com/market/priceoverview/?currency=13&appid=730&market_hash_name=M4A1-S%20%7C%20Blood%20Tiger%20%28Minimal%20Wear%29'
p2845
sg13
S'M4A1-S'
p2846
sg15
I739
sg16
F1.79
sg17
S'Minimal%20Wear'
p2847
sg19
g20
sba(i__main__
skin
p2848
(dp2849
g6
I00
sg7
S'Arms Deal Two'
p2850
sg8
F0.84999999999999998
sg9
S'Hexane'
p2851
sg11
S'http://steamcommunity.com/market/priceoverview/?currency=13&appid=730&market_hash_name=FAMAS%20%7C%20Hexane%20%28Minimal%20Wear%29'
p2852
sg13
S'FAMAS'
p2853
sg15
I96
sg16
F0.71999999999999997
sg17
S'Minimal%20Wear'
p2854
sg19
g20
sba(i__main__
skin
p2855
(dp2856
g6
I00
sg7
S'Arms Deal Two'
p2857
sg8
F0.80000000000000004
sg9
S'Hive'
p2858
sg11
S'http://steamcommunity.com/market/priceoverview/?currency=13&appid=730&market_hash_name=P250%20%7C%20Hive%20%28Minimal%20Wear%29'
p2859
sg13
S'P250'
p2860
sg15
I108
sg16
F0.81999999999999995
sg17
S'Minimal%20Wear'
p2861
sg19
g20
sba(i__main__
skin
p2862
(dp2863
g6
I00
sg7
S'Arms Deal Two'
p2864
sg8
F0.95999999999999996
sg9
S'Crimson Web'
p2865
sg11
S'http://steamcommunity.com/market/priceoverview/?currency=13&appid=730&market_hash_name=SCAR-20%20%7C%20Crimson%20Web%20%28Minimal%20Wear%29'
p2866
sg13
S'SCAR-20'
p2867
sg15
I93
sg16
F1.0700000000000001
sg17
S'Minimal%20Wear'
p2868
sg19
g20
sba(i__main__
skin
p2869
(dp2870
g6
I00
sg7
S'Arms Deal Two'
p2871
sg8
F7.04
sg9
S'Case Hardened'
p2872
sg11
S'http://steamcommunity.com/market/priceoverview/?currency=13&appid=730&market_hash_name=Five-SeveN%20%7C%20Case%20Hardened%20%28Minimal%20Wear%29'
p2873
sg13
S'Five-SeveN'
p2874
sg15
I130
sg16
F6.29
sg17
S'Minimal%20Wear'
p2875
sg19
g63
sba(i__main__
skin
p2876
(dp2877
g6
I00
sg7
S'Arms Deal Two'
p2878
sg8
F2.8199999999999998
sg9
S'Hypnotic'
p2879
sg11
S'http://steamcommunity.com/market/priceoverview/?currency=13&appid=730&market_hash_name=MP9%20%7C%20Hypnotic%20%28Minimal%20Wear%29'
p2880
sg13
S'MP9'
p2881
sg15
I8
sg16
F3.2200000000000002
sg17
S'Minimal%20Wear'
p2882
sg19
g63
sba(i__main__
skin
p2883
(dp2884
g6
I00
sg7
S'Arms Deal Two'
p2885
sg8
F1.3600000000000001
sg9
S'Graphite'
p2886
sg11
S'http://steamcommunity.com/market/priceoverview/?currency=13&appid=730&market_hash_name=Nova%20%7C%20Graphite%20%28Minimal%20Wear%29'
p2887
sg13
S'Nova'
p2888
sg15
I20
sg16
F1.3200000000000001
sg17
S'Minimal%20Wear'
p2889
sg19
g63
sba(i__main__
skin
p2890
(dp2891
g6
I00
sg7
S'Arms Deal Two'
p2892
sg8
F1.1899999999999999
sg9
S'Hemoglobin'
p2893
sg11
S'http://steamcommunity.com/market/priceoverview/?currency=13&appid=730&market_hash_name=Dual Berettas%20%7C%20Hemoglobin%20%28Minimal%20Wear%29'
p2894
sg13
S'Dual Berettas'
p2895
sg15
I61
sg16
F1.24
sg17
S'Minimal%20Wear'
p2896
sg19
g63
sba(i__main__
skin
p2897
(dp2898
g6
I00
sg7
S'Arms Deal Two'
p2899
sg8
F7.8899999999999997
sg9
S'Cold Blooded'
p2900
sg11
S'http://steamcommunity.com/market/priceoverview/?currency=13&appid=730&market_hash_name=P90%20%7C%20Cold%20Blooded%20%28Minimal%20Wear%29'
p2901
sg13
S'P90'
p2902
sg15
I5
sg16
F7.9000000000000004
sg17
S'Minimal%20Wear'
p2903
sg19
g92
sba(i__main__
skin
p2904
(dp2905
g6
I00
sg7
S'Arms Deal Two'
p2906
sg8
F6.2199999999999998
sg9
S'Serum'
p2907
sg11
S'http://steamcommunity.com/market/priceoverview/?currency=13&appid=730&market_hash_name=USP-S%20%7C%20Serum%20%28Minimal%20Wear%29'
p2908
sg13
S'USP-S'
p2909
sg15
I58
sg16
F6.21
sg17
S'Minimal%20Wear'
p2910
sg19
g92
sba(i__main__
skin
p2911
(dp2912
g6
I00
sg7
S'Arms Deal Two'
p2913
sg8
F30.23
sg9
S'Blood in the Water'
p2914
sg11
S'http://steamcommunity.com/market/priceoverview/?currency=13&appid=730&market_hash_name=SSG 08%20%7C%20Blood%20in%20the%20Water%20%28Minimal%20Wear%29'
p2915
sg13
S'SSG 08'
p2916
sg15
I118
sg16
F28.93
sg17
S'Minimal%20Wear'
p2917
sg19
g114
sbasS'Office'
p2918
(lp2919
(i__main__
skin
p2920
(dp2921
g6
I00
sg7
g2918
sg8
F23.469999999999999
sg9
S'Whiteout'
p2922
sg11
S'http://steamcommunity.com/market/priceoverview/?currency=13&appid=730&market_hash_name=MP7%20%7C%20Whiteout%20%28Minimal%20Wear%29'
p2923
sg13
S'MP7'
p2924
sg15
I6
sg16
F26.329999999999998
sg17
S'Minimal%20Wear'
p2925
sg19
g20
sba(i__main__
skin
p2926
(dp2927
g6
I00
sg7
S'Office'
p2928
sg8
F3.29
sg9
S'Silver'
p2929
sg11
S'http://steamcommunity.com/market/priceoverview/?currency=13&appid=730&market_hash_name=P2000%20%7C%20Silver%20%28Minimal%20Wear%29'
p2930
sg13
S'P2000'
p2931
sg15
I4
sg16
F5.0199999999999996
sg17
S'Minimal%20Wear'
p2932
sg19
g20
sba(i__main__
skin
p2933
(dp2934
g6
I00
sg7
S'Office'
p2935
sg8
F2.1800000000000002
sg9
S'Blizzard Marbleized'
p2936
sg11
S'http://steamcommunity.com/market/priceoverview/?currency=13&appid=730&market_hash_name=M249%20%7C%20Blizzard%20Marbleized%20%28Minimal%20Wear%29'
p2937
sg13
S'M249'
p2938
sg15
I2
sg16
F3.6299999999999999
sg17
S'Minimal%20Wear'
p2939
sg19
g396
sba(i__main__
skin
p2940
(dp2941
g6
I00
sg7
S'Office'
p2942
sg8
F4.3700000000000001
sg9
S'Arctic Camo'
p2943
sg11
S'http://steamcommunity.com/market/priceoverview/?currency=13&appid=730&market_hash_name=G3SG1%20%7C%20Arctic%20Camo%20%28Minimal%20Wear%29'
p2944
sg13
S'G3SG1'
p2945
sg15
I14
sg16
F4.2000000000000002
sg17
S'Minimal%20Wear'
p2946
sg19
g396
sba(i__main__
skin
p2947
(dp2948
g6
I00
sg7
S'Office'
p2949
sg8
F2.4500000000000002
sg9
S'Winter Forest'
p2950
sg11
S'http://steamcommunity.com/market/priceoverview/?currency=13&appid=730&market_hash_name=Galil AR%20%7C%20Winter%20Forest%20%28Minimal%20Wear%29'
p2951
sg13
S'Galil AR'
p2952
sg15
I2
sg16
F2.7999999999999998
sg17
S'Minimal%20Wear'
p2953
sg19
g396
sba(i__main__
skin
p2954
(dp2955
g6
I00
sg7
S'Office'
p2956
sg8
F0.93999999999999995
sg9
S'Contrast Spray'
p2957
sg11
S'http://steamcommunity.com/market/priceoverview/?currency=13&appid=730&market_hash_name=FAMAS%20%7C%20Contrast%20Spray%20%28Minimal%20Wear%29'
p2958
sg13
S'FAMAS'
p2959
sg15
I20
sg16
F0.98999999999999999
sg17
S'Minimal%20Wear'
p2960
sg19
g439
sbasS'Baggage'
p2961
(lp2962
(i__main__
skin
p2963
(dp2964
g6
I00
sg7
g2961
sg8
F56.469999999999999
sg9
S'Jet Set'
p2965
sg11
S'http://steamcommunity.com/market/priceoverview/?currency=13&appid=730&market_hash_name=AK-47%20%7C%20Jet%20Set%20%28Minimal%20Wear%29'
p2966
sg13
S'AK-47'
p2967
sg15
I3
sg16
F52.280000000000001
sg17
S'Minimal%20Wear'
p2968
sg19
g92
sba(i__main__
skin
p2969
(dp2970
g6
I00
sg7
S'Baggage'
p2971
sg8
F14.31
sg9
S'Pilot'
p2972
sg11
S'http://steamcommunity.com/market/priceoverview/?currency=13&appid=730&market_hash_name=Desert Eagle%20%7C%20Pilot%20%28Minimal%20Wear%29'
p2973
sg13
S'Desert Eagle'
p2974
sg15
I8
sg16
F15.880000000000001
sg17
S'Minimal%20Wear'
p2975
sg19
g63
sba(i__main__
skin
p2976
(dp2977
g6
I00
sg7
S'Baggage'
p2978
sg8
F11.550000000000001
sg9
S'First Class'
p2979
sg11
S'http://steamcommunity.com/market/priceoverview/?currency=13&appid=730&market_hash_name=AK-47%20%7C%20First%20Class%20%28Minimal%20Wear%29'
p2980
sg13
S'AK-47'
p2981
sg15
I5
sg16
F11.17
sg17
S'Minimal%20Wear'
p2982
sg19
g63
sba(i__main__
skin
p2983
(dp2984
g6
I00
sg7
S'Baggage'
p2985
sg8
F2.8799999999999999
sg9
S'Red Leather'
p2986
sg11
S'http://steamcommunity.com/market/priceoverview/?currency=13&appid=730&market_hash_name=XM1014%20%7C%20Red%20Leather%20%28Minimal%20Wear%29'
p2987
sg13
S'XM1014'
p2988
sg15
I6
sg16
F2.6899999999999999
sg17
S'Minimal%20Wear'
p2989
sg19
g20
sba(i__main__
skin
p2990
(dp2991
g6
I00
sg7
S'Baggage'
p2992
sg8
F6.8600000000000003
sg9
S'Business Class'
p2993
sg11
S'http://steamcommunity.com/market/priceoverview/?currency=13&appid=730&market_hash_name=USP-S%20%7C%20Business%20Class%20%28Minimal%20Wear%29'
p2994
sg13
S'USP-S'
p2995
sg15
I26
sg16
F6.9000000000000004
sg17
S'Minimal%20Wear'
p2996
sg19
g20
sba(i__main__
skin
p2997
(dp2998
g6
I00
sg7
S'Baggage'
p2999
sg8
F3.04
sg9
S'First Class'
p3000
sg11
S'http://steamcommunity.com/market/priceoverview/?currency=13&appid=730&market_hash_name=Sawed-Off%20%7C%20First%20Class%20%28Minimal%20Wear%29'
p3001
sg13
S'Sawed-Off'
p3002
sg15
I11
sg16
F2.77
sg17
S'Minimal%20Wear'
p3003
sg19
g20
sba(i__main__
skin
p3004
(dp3005
g6
I00
sg7
S'Baggage'
p3006
sg8
F0.82999999999999996
sg9
S'Coach Class'
p3007
sg11
S'http://steamcommunity.com/market/priceoverview/?currency=13&appid=730&market_hash_name=P2000%20%7C%20Coach%20Class%20%28Minimal%20Wear%29'
p3008
sg13
S'P2000'
p3009
sg15
I34
sg16
F0.81000000000000005
sg17
S'Minimal%20Wear'
p3010
sg19
g396
sba(i__main__
skin
p3011
(dp3012
g6
I00
sg7
S'Baggage'
p3013
sg8
F0.71999999999999997
sg9
S'Commuter'
p3014
sg11
S'http://steamcommunity.com/market/priceoverview/?currency=13&appid=730&market_hash_name=MAC-10%20%7C%20Commuter%20%28Minimal%20Wear%29'
p3015
sg13
S'MAC-10'
p3016
sg15
I4
sg16
F0.71999999999999997
sg17
S'Minimal%20Wear'
p3017
sg19
g396
sba(i__main__
skin
p3018
(dp3019
g6
I00
sg7
S'Baggage'
p3020
sg8
F1.02
sg9
S'Leather'
p3021
sg11
S'http://steamcommunity.com/market/priceoverview/?currency=13&appid=730&market_hash_name=P90%20%7C%20Leather%20%28Minimal%20Wear%29'
p3022
sg13
S'P90'
p3023
sg15
I65
sg16
F0.95999999999999996
sg17
S'Minimal%20Wear'
p3024
sg19
g396
sba(i__main__
skin
p3025
(dp3026
g6
I00
sg7
S'Baggage'
p3027
sg8
F0.51000000000000001
sg9
S'Traveler'
p3028
sg11
S'http://steamcommunity.com/market/priceoverview/?currency=13&appid=730&market_hash_name=SG 553%20%7C%20Traveler%20%28Minimal%20Wear%29'
p3029
sg13
S'SG 553'
p3030
sg15
I32
sg16
F0.65000000000000002
sg17
S'Minimal%20Wear'
p3031
sg19
g396
sba(i__main__
skin
p3032
(dp3033
g6
I00
sg7
S'Baggage'
p3034
sg8
F0.55000000000000004
sg9
S'Sand Dune'
p3035
sg11
S'http://steamcommunity.com/market/priceoverview/?currency=13&appid=730&market_hash_name=SSG 08%20%7C%20Sand%20Dune%20%28Minimal%20Wear%29'
p3036
sg13
S'SSG 08'
p3037
sg15
I35
sg16
F0.52000000000000002
sg17
S'Minimal%20Wear'
p3038
sg19
g439
sba(i__main__
skin
p3039
(dp3040
g6
I00
sg7
S'Baggage'
p3041
sg8
F0.27000000000000002
sg9
S'Green Plaid'
p3042
sg11
S'http://steamcommunity.com/market/priceoverview/?currency=13&appid=730&market_hash_name=MP9%20%7C%20Green%20Plaid%20%28Minimal%20Wear%29'
p3043
sg13
S'MP9'
p3044
sg15
I16
sg16
F0.31
sg17
S'Minimal%20Wear'
p3045
sg19
g439
sba(i__main__
skin
p3046
(dp3047
g6
I00
sg7
S'Baggage'
p3048
sg8
F0.32000000000000001
sg9
S'Green Plaid'
p3049
sg11
S'http://steamcommunity.com/market/priceoverview/?currency=13&appid=730&market_hash_name=CZ75-Auto%20%7C%20Green%20Plaid%20%28Minimal%20Wear%29'
p3050
sg13
S'CZ75-Auto'
p3051
sg15
I29
sg16
F0.32000000000000001
sg17
S'Minimal%20Wear'
p3052
sg19
g439
sba(i__main__
skin
p3053
(dp3054
g6
I00
sg7
S'Baggage'
p3055
sg8
F0.27000000000000002
sg9
S'Olive Plaid'
p3056
sg11
S'http://steamcommunity.com/market/priceoverview/?currency=13&appid=730&market_hash_name=MP7%20%7C%20Olive%20Plaid%20%28Minimal%20Wear%29'
p3057
sg13
S'MP7'
p3058
sg15
I20
sg16
F0.23999999999999999
sg17
S'Minimal%20Wear'
p3059
sg19
g439
sba(i__main__
skin
p3060
(dp3061
g6
I00
sg7
S'Baggage'
p3062
sg8
F0.34999999999999998
sg9
S'Contractor'
p3063
sg11
S'http://steamcommunity.com/market/priceoverview/?currency=13&appid=730&market_hash_name=G3SG1%20%7C%20Contractor%20%28Minimal%20Wear%29'
p3064
sg13
S'G3SG1'
p3065
sg15
I9
sg16
F0.34999999999999998
sg17
S'Minimal%20Wear'
p3066
sg19
g439
sbasS'Safehouse'
p3067
(lp3068
(i__main__
skin
p3069
(dp3070
g6
I00
sg7
g3067
sg8
F2.8199999999999998
sg9
S'Nitro'
p3071
sg11
S'http://steamcommunity.com/market/priceoverview/?currency=13&appid=730&market_hash_name=M4A1-S%20%7C%20Nitro%20%28Minimal%20Wear%29'
p3072
sg13
S'M4A1-S'
p3073
sg15
I802
sg16
F2.6899999999999999
sg17
S'Minimal%20Wear'
p3074
sg19
g63
sba(i__main__
skin
p3075
(dp3076
g6
I00
sg7
S'Safehouse'
p3077
sg9
S'Acid Fade'
p3078
sg11
S'http://steamcommunity.com/market/priceoverview/?currency=13&appid=730&market_hash_name=SSG 08%20%7C%20Acid%20Fade%20%28Minimal%20Wear%29'
p3079
sg13
S'SSG 08'
p3080
sg17
S'Minimal%20Wear'
p3081
sg19
g20
sba(i__main__
skin
p3082
(dp3083
g6
I00
sg7
S'Safehouse'
p3084
sg8
F0.27000000000000002
sg9
S'Silver Quartz'
p3085
sg11
S'http://steamcommunity.com/market/priceoverview/?currency=13&appid=730&market_hash_name=Five-SeveN%20%7C%20Silver%20Quartz%20%28Minimal%20Wear%29'
p3086
sg13
S'Five-SeveN'
p3087
sg15
I866
sg16
F0.28999999999999998
sg17
S'Minimal%20Wear'
p3088
sg19
g20
sba(i__main__
skin
p3089
(dp3090
g6
I00
sg7
S'Safehouse'
p3091
sg8
F0.28999999999999998
sg9
S'Teardown'
p3092
sg11
S'http://steamcommunity.com/market/priceoverview/?currency=13&appid=730&market_hash_name=FAMAS%20%7C%20Teardown%20%28Minimal%20Wear%29'
p3093
sg13
S'FAMAS'
p3094
sg15
I551
sg16
F0.26000000000000001
sg17
S'Minimal%20Wear'
p3095
sg19
g20
sba(i__main__
skin
p3096
(dp3097
g6
I00
sg7
S'Safehouse'
p3098
sg8
F0.050000000000000003
sg9
S'VariCamo'
p3099
sg11
S'http://steamcommunity.com/market/priceoverview/?currency=13&appid=730&market_hash_name=G3SG1%20%7C%20VariCamo%20%28Minimal%20Wear%29'
p3100
sg13
S'G3SG1'
p3101
sg15
I353
sg16
F0.070000000000000007
sg17
S'Minimal%20Wear'
p3102
sg19
g396
sba(i__main__
skin
p3103
(dp3104
g6
I00
sg7
S'Safehouse'
p3105
sg8
F0.040000000000000001
sg9
S'Gator Mesh'
p3106
sg11
S'http://steamcommunity.com/market/priceoverview/?currency=13&appid=730&market_hash_name=M249%20%7C%20Gator%20Mesh%20%28Minimal%20Wear%29'
p3107
sg13
S'M249'
p3108
sg15
I387
sg16
F0.059999999999999998
sg17
S'Minimal%20Wear'
p3109
sg19
g396
sba(i__main__
skin
p3110
(dp3111
g6
I00
sg7
S'Safehouse'
p3112
sg8
F0.050000000000000003
sg9
S'VariCamo'
p3113
sg11
S'http://steamcommunity.com/market/priceoverview/?currency=13&appid=730&market_hash_name=Galil AR%20%7C%20VariCamo%20%28Minimal%20Wear%29'
p3114
sg13
S'Galil AR'
p3115
sg15
I472
sg16
F0.070000000000000007
sg17
S'Minimal%20Wear'
p3116
sg19
g396
sba(i__main__
skin
p3117
(dp3118
g6
I00
sg7
S'Safehouse'
p3119
sg8
F0.12
sg9
S'Forest Leaves'
p3120
sg11
S'http://steamcommunity.com/market/priceoverview/?currency=13&appid=730&market_hash_name=USP-S%20%7C%20Forest%20Leaves%20%28Minimal%20Wear%29'
p3121
sg13
S'USP-S'
p3122
sg15
I992
sg16
F0.13
sg17
S'Minimal%20Wear'
p3123
sg19
g396
sba(i__main__
skin
p3124
(dp3125
g6
I00
sg7
S'Safehouse'
p3126
sg8
F0.10000000000000001
sg9
S'Condemned'
p3127
sg11
S'http://steamcommunity.com/market/priceoverview/?currency=13&appid=730&market_hash_name=AUG%20%7C%20Condemned%20%28Minimal%20Wear%29'
p3128
sg13
S'AUG'
p3129
sg15
I756
sg16
F0.089999999999999997
sg17
S'Minimal%20Wear'
p3130
sg19
g396
sba(i__main__
skin
p3131
(dp3132
g6
I00
sg7
S'Safehouse'
p3133
sg8
F0.059999999999999998
sg9
S'Orange Peel'
p3134
sg11
S'http://steamcommunity.com/market/priceoverview/?currency=13&appid=730&market_hash_name=MP9%20%7C%20Orange%20Peel%20%28Minimal%20Wear%29'
p3135
sg13
S'MP9'
p3136
sg15
I500
sg16
F0.070000000000000007
sg17
S'Minimal%20Wear'
p3137
sg19
g396
sba(i__main__
skin
p3138
(dp3139
g6
I00
sg7
S'Safehouse'
p3140
sg8
F0.02
sg9
S'Contractor'
p3141
sg11
S'http://steamcommunity.com/market/priceoverview/?currency=13&appid=730&market_hash_name=SCAR-20%20%7C%20Contractor%20%28Minimal%20Wear%29'
p3142
sg13
S'SCAR-20'
p3143
sg15
I641
sg16
F0.040000000000000001
sg17
S'Minimal%20Wear'
p3144
sg19
g439
sba(i__main__
skin
p3145
(dp3146
g6
I00
sg7
S'Safehouse'
p3147
sg8
F0.02
sg9
S'Blue Spruce'
p3148
sg11
S'http://steamcommunity.com/market/priceoverview/?currency=13&appid=730&market_hash_name=SSG 08%20%7C%20Blue%20Spruce%20%28Minimal%20Wear%29'
p3149
sg13
S'SSG 08'
p3150
sg15
I0
sg16
F0.040000000000000001
sg17
S'Minimal%20Wear'
p3151
sg19
g439
sba(i__main__
skin
p3152
(dp3153
g6
I00
sg7
S'Safehouse'
p3154
sg8
F0.02
sg9
S'Army Mesh'
p3155
sg11
S'http://steamcommunity.com/market/priceoverview/?currency=13&appid=730&market_hash_name=Tec-9%20%7C%20Army%20Mesh%20%28Minimal%20Wear%29'
p3156
sg13
S'Tec-9'
p3157
sg15
I0
sg16
F0.040000000000000001
sg17
S'Minimal%20Wear'
p3158
sg19
g439
sba(i__main__
skin
p3159
(dp3160
g6
I00
sg7
S'Safehouse'
p3161
sg8
F0.029999999999999999
sg9
S'Army Recon'
p3162
sg11
S'http://steamcommunity.com/market/priceoverview/?currency=13&appid=730&market_hash_name=MP7%20%7C%20Army%20Recon%20%28Minimal%20Wear%29'
p3163
sg13
S'MP7'
p3164
sg15
I758
sg16
F0.040000000000000001
sg17
S'Minimal%20Wear'
p3165
sg19
g439
sba(i__main__
skin
p3166
(dp3167
g6
I00
sg7
S'Safehouse'
p3168
sg8
F0.02
sg9
S'Contractor'
p3169
sg11
S'http://steamcommunity.com/market/priceoverview/?currency=13&appid=730&market_hash_name=Dual Berettas%20%7C%20Contractor%20%28Minimal%20Wear%29'
p3170
sg13
S'Dual Berettas'
p3171
sg15
I905
sg16
F0.040000000000000001
sg17
S'Minimal%20Wear'
p3172
sg19
g439
sbasS'Bravo'
p3173
(lp3174
(i__main__
skin
p3175
(dp3176
g6
I00
sg7
g3173
sg8
F0.89000000000000001
sg9
S'Tempest'
p3177
sg11
S'http://steamcommunity.com/market/priceoverview/?currency=13&appid=730&market_hash_name=Nova%20%7C%20Tempest%20%28Minimal%20Wear%29'
p3178
sg13
S'Nova'
p3179
sg15
I97
sg16
F0.96999999999999997
sg17
S'Minimal%20Wear'
p3180
sg19
g20
sba(i__main__
skin
p3181
(dp3182
g6
I00
sg7
S'Bravo'
p3183
sg8
F0.90000000000000002
sg9
S'Black Limba'
p3184
sg11
S'http://steamcommunity.com/market/priceoverview/?currency=13&appid=730&market_hash_name=Dual Berettas%20%7C%20Black%20Limba%20%28Minimal%20Wear%29'
p3185
sg13
S'Dual Berettas'
p3186
sg15
I20
sg16
F0.87
sg17
S'Minimal%20Wear'
p3187
sg19
g20
sba(i__main__
skin
p3188
(dp3189
g6
I00
sg7
S'Bravo'
p3190
sg8
F0.60999999999999999
sg9
S'Bone Pile'
p3191
sg11
S'http://steamcommunity.com/market/priceoverview/?currency=13&appid=730&market_hash_name=UMP-45%20%7C%20Bone%20Pile%20%28Minimal%20Wear%29'
p3192
sg13
S'UMP-45'
p3193
sg15
I39
sg16
F0.81000000000000005
sg17
S'Minimal%20Wear'
p3194
sg19
g20
sba(i__main__
skin
p3195
(dp3196
g6
I00
sg7
S'Bravo'
p3197
sg8
F0.90000000000000002
sg9
S'Wave Spray'
p3198
sg11
S'http://steamcommunity.com/market/priceoverview/?currency=13&appid=730&market_hash_name=SG 553%20%7C%20Wave%20Spray%20%28Minimal%20Wear%29'
p3199
sg13
S'SG 553'
p3200
sg15
I11
sg16
F0.85999999999999999
sg17
S'Minimal%20Wear'
p3201
sg19
g20
sba(i__main__
skin
p3202
(dp3203
g6
I00
sg7
S'Bravo'
p3204
sg8
F0.93999999999999995
sg9
S'Shattered'
p3205
sg11
S'http://steamcommunity.com/market/priceoverview/?currency=13&appid=730&market_hash_name=Galil AR%20%7C%20Shattered%20%28Minimal%20Wear%29'
p3206
sg13
S'Galil AR'
p3207
sg15
I16
sg16
F0.92000000000000004
sg17
S'Minimal%20Wear'
p3208
sg19
g20
sba(i__main__
skin
p3209
(dp3210
g6
I00
sg7
S'Bravo'
p3211
sg8
F0.98999999999999999
sg9
S'Demeter'
p3212
sg11
S'http://steamcommunity.com/market/priceoverview/?currency=13&appid=730&market_hash_name=G3SG1%20%7C%20Demeter%20%28Minimal%20Wear%29'
p3213
sg13
S'G3SG1'
p3214
sg15
I27
sg16
F1.0600000000000001
sg17
S'Minimal%20Wear'
p3215
sg19
g20
sba(i__main__
skin
p3216
(dp3217
g6
I00
sg7
S'Bravo'
p3218
sg8
F4.4900000000000002
sg9
S'Bright Water'
p3219
sg11
S'http://steamcommunity.com/market/priceoverview/?currency=13&appid=730&market_hash_name=M4A1-S%20%7C%20Bright%20Water%20%28Minimal%20Wear%29'
p3220
sg13
S'M4A1-S'
p3221
sg15
I446
sg16
F4.2800000000000002
sg17
S'Minimal%20Wear'
p3222
sg19
g63
sba(i__main__
skin
p3223
(dp3224
g6
I00
sg7
S'Bravo'
p3225
sg8
F4.6200000000000001
sg9
S'Zirka'
p3226
sg11
S'http://steamcommunity.com/market/priceoverview/?currency=13&appid=730&market_hash_name=M4A4%20%7C%20Zirka%20%28Minimal%20Wear%29'
p3227
sg13
S'M4A4'
p3228
sg15
I79
sg16
F4.6100000000000003
sg17
S'Minimal%20Wear'
p3229
sg19
g63
sba(i__main__
skin
p3230
(dp3231
g6
I00
sg7
S'Bravo'
p3232
sg8
F5.7000000000000002
sg9
S'Graven'
p3233
sg11
S'http://steamcommunity.com/market/priceoverview/?currency=13&appid=730&market_hash_name=MAC-10%20%7C%20Graven%20%28Minimal%20Wear%29'
p3234
sg13
S'MAC-10'
p3235
sg15
I8
sg16
F5.7000000000000002
sg17
S'Minimal%20Wear'
p3236
sg19
g63
sba(i__main__
skin
p3237
(dp3238
g6
I00
sg7
S'Bravo'
p3239
sg8
F6.2599999999999998
sg9
S'Overgrowth'
p3240
sg11
S'http://steamcommunity.com/market/priceoverview/?currency=13&appid=730&market_hash_name=USP-S%20%7C%20Overgrowth%20%28Minimal%20Wear%29'
p3241
sg13
S'USP-S'
p3242
sg15
I79
sg16
F6.6200000000000001
sg17
S'Minimal%20Wear'
p3243
sg19
g63
sba(i__main__
skin
p3244
(dp3245
g6
I00
sg7
S'Bravo'
p3246
sg8
F39.719999999999999
sg9
S'Emerald Dragon'
p3247
sg11
S'http://steamcommunity.com/market/priceoverview/?currency=13&appid=730&market_hash_name=P90%20%7C%20Emerald%20Dragon%20%28Minimal%20Wear%29'
p3248
sg13
S'P90'
p3249
sg15
I7
sg16
F40.630000000000003
sg17
S'Minimal%20Wear'
p3250
sg19
g92
sba(i__main__
skin
p3251
(dp3252
g6
I00
sg7
S'Bravo'
p3253
sg8
F38.090000000000003
sg9
S'Ocean Foam'
p3254
sg11
S'http://steamcommunity.com/market/priceoverview/?currency=13&appid=730&market_hash_name=P2000%20%7C%20Ocean%20Foam%20%28Minimal%20Wear%29'
p3255
sg13
S'P2000'
p3256
sg15
I2
sg16
F39.119999999999997
sg17
S'Minimal%20Wear'
p3257
sg19
g92
sba(i__main__
skin
p3258
(dp3259
g6
I00
sg7
S'Bravo'
p3260
sg8
F36.780000000000001
sg9
S'Graphite'
p3261
sg11
S'http://steamcommunity.com/market/priceoverview/?currency=13&appid=730&market_hash_name=AWP%20%7C%20Graphite%20%28Minimal%20Wear%29'
p3262
sg13
S'AWP'
p3263
sg15
I13
sg16
F40.289999999999999
sg17
S'Minimal%20Wear'
p3264
sg19
g92
sba(i__main__
skin
p3265
(dp3266
g6
I00
sg7
S'Bravo'
p3267
sg8
F17.199999999999999
sg9
S'Golden Koi'
p3268
sg11
S'http://steamcommunity.com/market/priceoverview/?currency=13&appid=730&market_hash_name=Desert Eagle%20%7C%20Golden%20Koi%20%28Minimal%20Wear%29'
p3269
sg13
S'Desert Eagle'
p3270
sg15
I9
sg16
F17.59
sg17
S'Minimal%20Wear'
p3271
sg19
g114
sba(i__main__
skin
p3272
(dp3273
g6
I00
sg7
S'Bravo'
p3274
sg8
F400.31
sg9
S'Fire Serpent'
p3275
sg11
S'http://steamcommunity.com/market/priceoverview/?currency=13&appid=730&market_hash_name=AK-47%20%7C%20Fire%20Serpent%20%28Minimal%20Wear%29'
p3276
sg13
S'AK-47'
p3277
sg15
I8
sg16
F398.99000000000001
sg17
S'Minimal%20Wear'
p3278
sg19
g114
sbasS'Winter Offensive'
p3279
(lp3280
(i__main__
skin
p3281
(dp3282
g6
I00
sg7
g3279
sg8
F0.20000000000000001
sg9
S'Cobalt Halftone'
p3283
sg11
S'http://steamcommunity.com/market/priceoverview/?currency=13&appid=730&market_hash_name=PP-Bizon%20%7C%20Cobalt%20Halftone%20%28Minimal%20Wear%29'
p3284
sg13
S'PP-Bizon'
p3285
sg15
I209
sg16
F0.17999999999999999
sg17
S'Minimal%20Wear'
p3286
sg19
g20
sba(i__main__
skin
p3287
(dp3288
g6
I00
sg7
S'Winter Offensive'
p3289
sg8
F0.19
sg9
S'Magma'
p3290
sg11
S'http://steamcommunity.com/market/priceoverview/?currency=13&appid=730&market_hash_name=M249%20%7C%20Magma%20%28Minimal%20Wear%29'
p3291
sg13
S'M249'
p3292
sg15
I125
sg16
F0.17999999999999999
sg17
S'Minimal%20Wear'
p3293
sg19
g20
sba(i__main__
skin
p3294
(dp3295
g6
I00
sg7
S'Winter Offensive'
p3296
sg8
F0.42999999999999999
sg9
S'Kami'
p3297
sg11
S'http://steamcommunity.com/market/priceoverview/?currency=13&appid=730&market_hash_name=Five-SeveN%20%7C%20Kami%20%28Minimal%20Wear%29'
p3298
sg13
S'Five-SeveN'
p3299
sg15
I476
sg16
F0.40000000000000002
sg17
S'Minimal%20Wear'
p3300
sg19
g20
sba(i__main__
skin
p3301
(dp3302
g6
I00
sg7
S'Winter Offensive'
p3303
sg8
F0.29999999999999999
sg9
S'Sandstorm'
p3304
sg11
S'http://steamcommunity.com/market/priceoverview/?currency=13&appid=730&market_hash_name=Galil AR%20%7C%20Sandstorm%20%28Minimal%20Wear%29'
p3305
sg13
S'Galil AR'
p3306
sg15
I112
sg16
F0.29999999999999999
sg17
S'Minimal%20Wear'
p3307
sg19
g20
sba(i__main__
skin
p3308
(dp3309
g6
I00
sg7
S'Winter Offensive'
p3310
sg8
F1.3799999999999999
sg9
S'Rising Skull'
p3311
sg11
S'http://steamcommunity.com/market/priceoverview/?currency=13&appid=730&market_hash_name=Nova%20%7C%20Rising%20Skull%20%28Minimal%20Wear%29'
p3312
sg13
S'Nova'
p3313
sg15
I49
sg16
F1.3400000000000001
sg17
S'Minimal%20Wear'
p3314
sg19
g63
sba(i__main__
skin
p3315
(dp3316
g6
I00
sg7
S'Winter Offensive'
p3317
sg8
F1.6299999999999999
sg9
S'Rose Iron'
p3318
sg11
S'http://steamcommunity.com/market/priceoverview/?currency=13&appid=730&market_hash_name=MP9%20%7C%20Rose%20Iron%20%28Minimal%20Wear%29'
p3319
sg13
S'MP9'
p3320
sg15
I94
sg16
F1.5700000000000001
sg17
S'Minimal%20Wear'
p3321
sg19
g63
sba(i__main__
skin
p3322
(dp3323
g6
I00
sg7
S'Winter Offensive'
p3324
sg8
F1.3600000000000001
sg9
S'Marina'
p3325
sg11
S'http://steamcommunity.com/market/priceoverview/?currency=13&appid=730&market_hash_name=Dual Berettas%20%7C%20Marina%20%28Minimal%20Wear%29'
p3326
sg13
S'Dual Berettas'
p3327
sg15
I100
sg16
F1.3400000000000001
sg17
S'Minimal%20Wear'
p3328
sg19
g63
sba(i__main__
skin
p3329
(dp3330
g6
I00
sg7
S'Winter Offensive'
p3331
sg8
F1.55
sg9
S'Pulse'
p3332
sg11
S'http://steamcommunity.com/market/priceoverview/?currency=13&appid=730&market_hash_name=FAMAS%20%7C%20Pulse%20%28Minimal%20Wear%29'
p3333
sg13
S'FAMAS'
p3334
sg15
I295
sg16
F1.53
sg17
S'Minimal%20Wear'
p3335
sg19
g63
sba(i__main__
skin
p3336
(dp3337
g6
I00
sg7
S'Winter Offensive'
p3338
sg8
F16.5
sg9
S'Redline'
p3339
sg11
S'http://steamcommunity.com/market/priceoverview/?currency=13&appid=730&market_hash_name=AWP%20%7C%20Redline%20%28Minimal%20Wear%29'
p3340
sg13
S'AWP'
p3341
sg15
I446
sg16
F16.02
sg17
S'Minimal%20Wear'
p3342
sg19
g92
sba(i__main__
skin
p3343
(dp3344
g6
I00
sg7
S'Winter Offensive'
p3345
sg8
F5.4699999999999998
sg9
S'Mehndi'
p3346
sg11
S'http://steamcommunity.com/market/priceoverview/?currency=13&appid=730&market_hash_name=P250%20%7C%20Mehndi%20%28Minimal%20Wear%29'
p3347
sg13
S'P250'
p3348
sg15
I105
sg16
F5.1799999999999997
sg17
S'Minimal%20Wear'
p3349
sg19
g92
sba(i__main__
skin
p3350
(dp3351
g6
I00
sg7
S'Winter Offensive'
p3352
sg8
F6.8499999999999996
sg9
S'Guardian'
p3353
sg11
S'http://steamcommunity.com/market/priceoverview/?currency=13&appid=730&market_hash_name=M4A1-S%20%7C%20Guardian%20%28Minimal%20Wear%29'
p3354
sg13
S'M4A1-S'
p3355
sg15
I515
sg16
F7.1799999999999997
sg17
S'Minimal%20Wear'
p3356
sg19
g92
sba(i__main__
skin
p3357
(dp3358
g6
I00
sg7
S'Winter Offensive'
p3359
sg8
F4.3799999999999999
sg9
S'The Kraken'
p3360
sg11
S'http://steamcommunity.com/market/priceoverview/?currency=13&appid=730&market_hash_name=Sawed-Off%20%7C%20The%20Kraken%20%28Minimal%20Wear%29'
p3361
sg13
S'Sawed-Off'
p3362
sg15
I85
sg16
F4.5099999999999998
sg17
S'Minimal%20Wear'
p3363
sg19
g114
sba(i__main__
skin
p3364
(dp3365
g6
I00
sg7
S'Winter Offensive'
p3366
sg9
S'Asiimov'
p3367
sg11
S'http://steamcommunity.com/market/priceoverview/?currency=13&appid=730&market_hash_name=M4A4%20%7C%20Asiimov%20%28Minimal%20Wear%29'
p3368
sg13
S'M4A4'
p3369
sg17
S'Minimal%20Wear'
p3370
sg19
g114
sbasS'Falchion Case'
p3371
(lp3372
(i__main__
skin
p3373
(dp3374
g6
I00
sg7
g3371
sg8
F0.16
sg9
S'Rocket Pop'
p3375
sg11
S'http://steamcommunity.com/market/priceoverview/?currency=13&appid=730&market_hash_name=Galil AR%20%7C%20Rocket%20Pop%20%28Minimal%20Wear%29'
p3376
sg13
S'Galil AR'
p3377
sg15
I0
sg16
F0.16
sg17
S'Minimal%20Wear'
p3378
sg19
g20
sba(i__main__
skin
p3379
(dp3380
g6
I00
sg7
S'Falchion Case'
p3381
sg8
F0.14999999999999999
sg9
S'Bunsen Burner'
p3382
sg11
S'http://steamcommunity.com/market/priceoverview/?currency=13&appid=730&market_hash_name=Glock-18%20%7C%20Bunsen%20Burner%20%28Minimal%20Wear%29'
p3383
sg13
S'Glock-18'
p3384
sg15
I0
sg16
F0.14999999999999999
sg17
S'Minimal%20Wear'
p3385
sg19
g20
sba(i__main__
skin
p3386
(dp3387
g6
I00
sg7
S'Falchion Case'
p3388
sg8
F0.089999999999999997
sg9
S'Ranger'
p3389
sg11
S'http://steamcommunity.com/market/priceoverview/?currency=13&appid=730&market_hash_name=Nova%20%7C%20Ranger%20%28Minimal%20Wear%29'
p3390
sg13
S'Nova'
p3391
sg15
I661
sg16
F0.11
sg17
S'Minimal%20Wear'
p3392
sg19
g20
sba(i__main__
skin
p3393
(dp3394
g6
I00
sg7
S'Falchion Case'
p3395
sg8
F0.17999999999999999
sg9
S'Elite Build'
p3396
sg11
S'http://steamcommunity.com/market/priceoverview/?currency=13&appid=730&market_hash_name=P90%20%7C%20Elite%20Build%20%28Minimal%20Wear%29'
p3397
sg13
S'P90'
p3398
sg15
I0
sg16
F0.17999999999999999
sg17
S'Minimal%20Wear'
p3399
sg19
g20
sba(i__main__
skin
p3400
(dp3401
g6
I00
sg7
S'Falchion Case'
p3402
sg8
F0.11
sg9
S'Riot'
p3403
sg11
S'http://steamcommunity.com/market/priceoverview/?currency=13&appid=730&market_hash_name=UMP-45%20%7C%20Riot%20%28Minimal%20Wear%29'
p3404
sg13
S'UMP-45'
p3405
sg15
I854
sg16
F0.11
sg17
S'Minimal%20Wear'
p3406
sg19
g20
sba(i__main__
skin
p3407
(dp3408
g6
I00
sg7
S'Falchion Case'
p3409
sg8
F0.33000000000000002
sg9
S'Torque'
p3410
sg11
S'http://steamcommunity.com/market/priceoverview/?currency=13&appid=730&market_hash_name=USP-S%20%7C%20Torque%20%28Minimal%20Wear%29'
p3411
sg13
S'USP-S'
p3412
sg15
I0
sg16
F0.34999999999999998
sg17
S'Minimal%20Wear'
p3413
sg19
g20
sba(i__main__
skin
p3414
(dp3415
g6
I00
sg7
S'Falchion Case'
p3416
sg8
F0.46999999999999997
sg9
S'Neural Net'
p3417
sg11
S'http://steamcommunity.com/market/priceoverview/?currency=13&appid=730&market_hash_name=FAMAS%20%7C%20Neural%20Net%20%28Minimal%20Wear%29'
p3418
sg13
S'FAMAS'
p3419
sg15
I648
sg16
F0.51000000000000001
sg17
S'Minimal%20Wear'
p3420
sg19
g63
sba(i__main__
skin
p3421
(dp3422
g6
I00
sg7
S'Falchion Case'
p3423
sg8
F1.29
sg9
S'Evil Daimyo'
p3424
sg11
S'http://steamcommunity.com/market/priceoverview/?currency=13&appid=730&market_hash_name=M4A4%20%7C%20Evil%20Daimyo%20%28Minimal%20Wear%29'
p3425
sg13
S'M4A4'
p3426
sg15
I0
sg16
F1.26
sg17
S'Minimal%20Wear'
p3427
sg19
g63
sba(i__main__
skin
p3428
(dp3429
g6
I00
sg7
S'Falchion Case'
p3430
sg8
F0.47999999999999998
sg9
S'Ruby Poison Dart'
p3431
sg11
S'http://steamcommunity.com/market/priceoverview/?currency=13&appid=730&market_hash_name=MP9%20%7C%20Ruby%20Poison%20Dart%20%28Minimal%20Wear%29'
p3432
sg13
S'MP9'
p3433
sg15
I672
sg16
F0.5
sg17
S'Minimal%20Wear'
p3434
sg19
g63
sba(i__main__
skin
p3435
(dp3436
g6
I00
sg7
S'Falchion Case'
p3437
sg8
F1.9299999999999999
sg9
S'Loudmouth'
p3438
sg11
S'http://steamcommunity.com/market/priceoverview/?currency=13&appid=730&market_hash_name=Negev%20%7C%20Loudmouth%20%28Minimal%20Wear%29'
p3439
sg13
S'Negev'
p3440
sg15
I29
sg16
F1.8100000000000001
sg17
S'Minimal%20Wear'
p3441
sg19
g63
sba(i__main__
skin
p3442
(dp3443
g6
I00
sg7
S'Falchion Case'
p3444
sg8
F0.52000000000000002
sg9
S'Handgun'
p3445
sg11
S'http://steamcommunity.com/market/priceoverview/?currency=13&appid=730&market_hash_name=P2000%20%7C%20Handgun%20%28Minimal%20Wear%29'
p3446
sg13
S'P2000'
p3447
sg15
I961
sg16
F0.48999999999999999
sg17
S'Minimal%20Wear'
p3448
sg19
g63
sba(i__main__
skin
p3449
(dp3450
g6
I00
sg7
S'Falchion Case'
p3451
sg8
F4.5099999999999998
sg9
S'Yellow Jacket'
p3452
sg11
S'http://steamcommunity.com/market/priceoverview/?currency=13&appid=730&market_hash_name=CZ75-Auto%20%7C%20Yellow%20Jacket%20%28Minimal%20Wear%29'
p3453
sg13
S'CZ75-Auto'
p3454
sg15
I128
sg16
F3.9399999999999999
sg17
S'Minimal%20Wear'
p3455
sg19
g92
sba(i__main__
skin
p3456
(dp3457
g6
I00
sg7
S'Falchion Case'
p3458
sg8
F4.3200000000000003
sg9
S'Nemesis'
p3459
sg11
S'http://steamcommunity.com/market/priceoverview/?currency=13&appid=730&market_hash_name=MP7%20%7C%20Nemesis%20%28Minimal%20Wear%29'
p3460
sg13
S'MP7'
p3461
sg15
I467
sg16
F4.3799999999999999
sg17
S'Minimal%20Wear'
p3462
sg19
g92
sba(i__main__
skin
p3463
(dp3464
g6
I00
sg7
S'Falchion Case'
p3465
sg8
F4.1799999999999997
sg9
S'Cyrex'
p3466
sg11
S'http://steamcommunity.com/market/priceoverview/?currency=13&appid=730&market_hash_name=SG 553%20%7C%20Cyrex%20%28Minimal%20Wear%29'
p3467
sg13
S'SG 553'
p3468
sg15
I206
sg16
F4.0599999999999996
sg17
S'Minimal%20Wear'
p3469
sg19
g92
sba(i__main__
skin
p3470
(dp3471
g6
I00
sg7
S'Falchion Case'
p3472
sg8
F35.609999999999999
sg9
S'Aquamarine Revenge'
p3473
sg11
S'http://steamcommunity.com/market/priceoverview/?currency=13&appid=730&market_hash_name=AK-47%20%7C%20Aquamarine%20Revenge%20%28Minimal%20Wear%29'
p3474
sg13
S'AK-47'
p3475
sg15
I184
sg16
F34.859999999999999
sg17
S'Minimal%20Wear'
p3476
sg19
g114
sba(i__main__
skin
p3477
(dp3478
g6
I00
sg7
S'Falchion Case'
p3479
sg8
F48.659999999999997
sg9
S'Hyper Beast'
p3480
sg11
S'http://steamcommunity.com/market/priceoverview/?currency=13&appid=730&market_hash_name=AWP%20%7C%20Hyper%20Beast%20%28Minimal%20Wear%29'
p3481
sg13
S'AWP'
p3482
sg15
I161
sg16
F51.25
sg17
S'Minimal%20Wear'
p3483
sg19
g114
sbasS'eSports 2013 Winter'
p3484
(lp3485
(i__main__
skin
p3486
(dp3487
g6
I00
sg7
g3484
sg9
S'Blue Titanium'
p3488
sg11
S'http://steamcommunity.com/market/priceoverview/?currency=13&appid=730&market_hash_name=Galil AR%20%7C%20Blue%20Titanium%20%28Minimal%20Wear%29'
p3489
sg13
S'Galil AR'
p3490
sg17
S'Minimal%20Wear'
p3491
sg19
g20
sba(i__main__
skin
p3492
(dp3493
g6
I00
sg7
S'eSports 2013 Winter'
p3494
sg8
F0.63
sg9
S'Nightshade'
p3495
sg11
S'http://steamcommunity.com/market/priceoverview/?currency=13&appid=730&market_hash_name=Five-SeveN%20%7C%20Nightshade%20%28Minimal%20Wear%29'
p3496
sg13
S'Five-SeveN'
p3497
sg15
I71
sg16
F0.64000000000000001
sg17
S'Minimal%20Wear'
p3498
sg19
g20
sba(i__main__
skin
p3499
(dp3500
g6
I00
sg7
S'eSports 2013 Winter'
p3501
sg8
F0.38
sg9
S'Water Sigil'
p3502
sg11
S'http://steamcommunity.com/market/priceoverview/?currency=13&appid=730&market_hash_name=PP-Bizon%20%7C%20Water%20Sigil%20%28Minimal%20Wear%29'
p3503
sg13
S'PP-Bizon'
p3504
sg15
I63
sg16
F0.37
sg17
S'Minimal%20Wear'
p3505
sg19
g20
sba(i__main__
skin
p3506
(dp3507
g6
I00
sg7
S'eSports 2013 Winter'
p3508
sg8
F0.35999999999999999
sg9
S'Ghost Camo'
p3509
sg11
S'http://steamcommunity.com/market/priceoverview/?currency=13&appid=730&market_hash_name=Nova%20%7C%20Ghost%20Camo%20%28Minimal%20Wear%29'
p3510
sg13
S'Nova'
p3511
sg15
I43
sg16
F0.35999999999999999
sg17
S'Minimal%20Wear'
p3512
sg19
g20
sba(i__main__
skin
p3513
(dp3514
g6
I00
sg7
S'eSports 2013 Winter'
p3515
sg8
F0.33000000000000002
sg9
S'Azure Zebra'
p3516
sg11
S'http://steamcommunity.com/market/priceoverview/?currency=13&appid=730&market_hash_name=G3SG1%20%7C%20Azure%20Zebra%20%28Minimal%20Wear%29'
p3517
sg13
S'G3SG1'
p3518
sg15
I83
sg16
F0.31
sg17
S'Minimal%20Wear'
p3519
sg19
g20
sba(i__main__
skin
p3520
(dp3521
g6
I00
sg7
S'eSports 2013 Winter'
p3522
sg8
F0.27000000000000002
sg9
S'Steel Disruption'
p3523
sg11
S'http://steamcommunity.com/market/priceoverview/?currency=13&appid=730&market_hash_name=P250%20%7C%20Steel%20Disruption%20%28Minimal%20Wear%29'
p3524
sg13
S'P250'
p3525
sg15
I65
sg16
F0.28999999999999998
sg17
S'Minimal%20Wear'
p3526
sg19
g20
sba(i__main__
skin
p3527
(dp3528
g6
I00
sg7
S'eSports 2013 Winter'
p3529
sg8
F2.21
sg9
S'Blue Laminate'
p3530
sg11
S'http://steamcommunity.com/market/priceoverview/?currency=13&appid=730&market_hash_name=AK-47%20%7C%20Blue%20Laminate%20%28Minimal%20Wear%29'
p3531
sg13
S'AK-47'
p3532
sg15
I0
sg16
F2.0099999999999998
sg17
S'Minimal%20Wear'
p3533
sg19
g63
sba(i__main__
skin
p3534
(dp3535
g6
I00
sg7
S'eSports 2013 Winter'
p3536
sg8
F1.22
sg9
S'Blind Spot'
p3537
sg11
S'http://steamcommunity.com/market/priceoverview/?currency=13&appid=730&market_hash_name=P90%20%7C%20Blind%20Spot%20%28Minimal%20Wear%29'
p3538
sg13
S'P90'
p3539
sg15
I139
sg16
F1.1599999999999999
sg17
S'Minimal%20Wear'
p3540
sg19
g63
sba(i__main__
skin
p3541
(dp3542
g6
I00
sg7
S'eSports 2013 Winter'
p3543
sg8
F3.6000000000000001
sg9
S'Afterimage'
p3544
sg11
S'http://steamcommunity.com/market/priceoverview/?currency=13&appid=730&market_hash_name=FAMAS%20%7C%20Afterimage%20%28Minimal%20Wear%29'
p3545
sg13
S'FAMAS'
p3546
sg15
I88
sg16
F3.98
sg17
S'Minimal%20Wear'
p3547
sg19
g92
sba(i__main__
skin
p3548
(dp3549
g6
I00
sg7
S'eSports 2013 Winter'
p3550
sg8
F12.74
sg9
S'Electric Hive'
p3551
sg11
S'http://steamcommunity.com/market/priceoverview/?currency=13&appid=730&market_hash_name=AWP%20%7C%20Electric%20Hive%20%28Minimal%20Wear%29'
p3552
sg13
S'AWP'
p3553
sg15
I228
sg16
F12.550000000000001
sg17
S'Minimal%20Wear'
p3554
sg19
g92
sba(i__main__
skin
p3555
(dp3556
g6
I00
sg7
S'eSports 2013 Winter'
p3557
sg8
F6.25
sg9
S'Cobalt Disruption'
p3558
sg11
S'http://steamcommunity.com/market/priceoverview/?currency=13&appid=730&market_hash_name=Desert Eagle%20%7C%20Cobalt%20Disruption%20%28Minimal%20Wear%29'
p3559
sg13
S'Desert Eagle'
p3560
sg15
I129
sg16
F6.1399999999999997
sg17
S'Minimal%20Wear'
p3561
sg19
g92
sba(i__main__
skin
p3562
(dp3563
g6
I00
sg7
S'eSports 2013 Winter'
p3564
sg8
F5.9000000000000004
sg9
S'X-Ray'
p3565
sg11
S'http://steamcommunity.com/market/priceoverview/?currency=13&appid=730&market_hash_name=M4A4%20%7C%20X-Ray%20%28Minimal%20Wear%29'
p3566
sg13
S'M4A4'
p3567
sg15
I203
sg16
F5.9199999999999999
sg17
S'Minimal%20Wear'
p3568
sg19
g114
sbasS'Chop Shop'
p3569
(lp3570
(i__main__
skin
p3571
(dp3572
g6
I00
sg7
g3569
sg8
F25.140000000000001
sg9
S'Duelist'
p3573
sg11
S'http://steamcommunity.com/market/priceoverview/?currency=13&appid=730&market_hash_name=Dual Berettas%20%7C%20Duelist%20%28Minimal%20Wear%29'
p3574
sg13
S'Dual Berettas'
p3575
sg15
I2
sg16
F27.879999999999999
sg17
S'Minimal%20Wear'
p3576
sg19
g63
sba(i__main__
skin
p3577
(dp3578
g6
I00
sg7
S'Chop Shop'
p3579
sg8
F27.879999999999999
sg9
S'Twilight Galaxy'
p3580
sg11
S'http://steamcommunity.com/market/priceoverview/?currency=13&appid=730&market_hash_name=Glock-18%20%7C%20Twilight%20Galaxy%20%28Minimal%20Wear%29'
p3581
sg13
S'Glock-18'
p3582
sg15
I14
sg16
F28.170000000000002
sg17
S'Minimal%20Wear'
p3583
sg19
g92
sba(i__main__
skin
p3584
(dp3585
g6
I00
sg7
S'Chop Shop'
p3586
sg8
I-1
sg9
S'Hot Rod'
p3587
sg11
S'http://steamcommunity.com/market/priceoverview/?currency=13&appid=730&market_hash_name=M4A1-S%20%7C%20Hot%20Rod%20%28Minimal%20Wear%29'
p3588
sg13
S'M4A1-S'
p3589
sg15
I0
sg16
F201.44
sg17
S'Minimal%20Wear'
p3590
sg19
g92
sba(i__main__
skin
p3591
(dp3592
g6
I00
sg7
S'Chop Shop'
p3593
sg8
I-1
sg9
S'Bulldozer'
p3594
sg11
S'http://steamcommunity.com/market/priceoverview/?currency=13&appid=730&market_hash_name=SG 553%20%7C%20Bulldozer%20%28Minimal%20Wear%29'
p3595
sg13
S'SG 553'
p3596
sg15
I0
sg16
F22.600000000000001
sg17
S'Minimal%20Wear'
p3597
sg19
g63
sba(i__main__
skin
p3598
(dp3599
g6
I00
sg7
S'Chop Shop'
p3600
sg8
F5.96
sg9
S'Emerald'
p3601
sg11
S'http://steamcommunity.com/market/priceoverview/?currency=13&appid=730&market_hash_name=CZ75-Auto%20%7C%20Emerald%20%28Minimal%20Wear%29'
p3602
sg13
S'CZ75-Auto'
p3603
sg15
I3
sg16
F6.5499999999999998
sg17
S'Minimal%20Wear'
p3604
sg19
g20
sba(i__main__
skin
p3605
(dp3606
g6
I00
sg7
S'Chop Shop'
p3607
sg8
F3.6499999999999999
sg9
S'Nitro'
p3608
sg11
S'http://steamcommunity.com/market/priceoverview/?currency=13&appid=730&market_hash_name=Five-SeveN%20%7C%20Nitro%20%28Minimal%20Wear%29'
p3609
sg13
S'Five-SeveN'
p3610
sg15
I32
sg16
F3.5899999999999999
sg17
S'Minimal%20Wear'
p3611
sg19
g20
sba(i__main__
skin
p3612
(dp3613
g6
I00
sg7
S'Chop Shop'
p3614
sg8
F3.1400000000000001
sg9
S'Full Stop'
p3615
sg11
S'http://steamcommunity.com/market/priceoverview/?currency=13&appid=730&market_hash_name=MP7%20%7C%20Full%20Stop%20%28Minimal%20Wear%29'
p3616
sg13
S'MP7'
p3617
sg15
I20
sg16
F3.1499999999999999
sg17
S'Minimal%20Wear'
p3618
sg19
g20
sba(i__main__
skin
p3619
(dp3620
g6
I00
sg7
S'Chop Shop'
p3621
sg8
F11.73
sg9
S'Whiteout'
p3622
sg11
S'http://steamcommunity.com/market/priceoverview/?currency=13&appid=730&market_hash_name=P250%20%7C%20Whiteout%20%28Minimal%20Wear%29'
p3623
sg13
S'P250'
p3624
sg15
I34
sg16
F11.73
sg17
S'Minimal%20Wear'
p3625
sg19
g20
sba(i__main__
skin
p3626
(dp3627
g6
I00
sg7
S'Chop Shop'
p3628
sg8
F7.1100000000000003
sg9
S'Fade'
p3629
sg11
S'http://steamcommunity.com/market/priceoverview/?currency=13&appid=730&market_hash_name=MAC-10%20%7C%20Fade%20%28Minimal%20Wear%29'
p3630
sg13
S'MAC-10'
p3631
sg15
I6
sg16
F7.6600000000000001
sg17
S'Minimal%20Wear'
p3632
sg19
g20
sba(i__main__
skin
p3633
(dp3634
g6
I00
sg7
S'Chop Shop'
p3635
sg8
F1.02
sg9
S'Para Green'
p3636
sg11
S'http://steamcommunity.com/market/priceoverview/?currency=13&appid=730&market_hash_name=USP-S%20%7C%20Para%20Green%20%28Minimal%20Wear%29'
p3637
sg13
S'USP-S'
p3638
sg15
I195
sg16
F0.93999999999999995
sg17
S'Minimal%20Wear'
p3639
sg19
g396
sba(i__main__
skin
p3640
(dp3641
g6
I00
sg7
S'Chop Shop'
p3642
sg8
F0.81999999999999995
sg9
S'Urban Rubble'
p3643
sg11
S'http://steamcommunity.com/market/priceoverview/?currency=13&appid=730&market_hash_name=Galil AR%20%7C%20Urban%20Rubble%20%28Minimal%20Wear%29'
p3644
sg13
S'Galil AR'
p3645
sg15
I19
sg16
F0.83999999999999997
sg17
S'Minimal%20Wear'
p3646
sg19
g396
sba(i__main__
skin
p3647
(dp3648
g6
I00
sg7
S'Chop Shop'
p3649
sg8
F1.3700000000000001
sg9
S'Night'
p3650
sg11
S'http://steamcommunity.com/market/priceoverview/?currency=13&appid=730&market_hash_name=Desert Eagle%20%7C%20Night%20%28Minimal%20Wear%29'
p3651
sg13
S'Desert Eagle'
p3652
sg15
I295
sg16
F1.4199999999999999
sg17
S'Minimal%20Wear'
p3653
sg19
g396
sba(i__main__
skin
p3654
(dp3655
g6
I00
sg7
S'Chop Shop'
p3656
sg8
F0.17999999999999999
sg9
S'Seabird'
p3657
sg11
S'http://steamcommunity.com/market/priceoverview/?currency=13&appid=730&market_hash_name=MAG-7%20%7C%20Seabird%20%28Minimal%20Wear%29'
p3658
sg13
S'MAG-7'
p3659
sg15
I136
sg16
F0.16
sg17
S'Minimal%20Wear'
p3660
sg19
g439
sba(i__main__
skin
p3661
(dp3662
g6
I00
sg7
S'Chop Shop'
p3663
sg8
F0.23000000000000001
sg9
S'Impact Drill'
p3664
sg11
S'http://steamcommunity.com/market/priceoverview/?currency=13&appid=730&market_hash_name=M249%20%7C%20Impact%20Drill%20%28Minimal%20Wear%29'
p3665
sg13
S'M249'
p3666
sg15
I171
sg16
F0.20999999999999999
sg17
S'Minimal%20Wear'
p3667
sg19
g439
sba(i__main__
skin
p3668
(dp3669
g6
I00
sg7
S'Chop Shop'
p3670
sg8
F0.22
sg9
S'Army Sheen'
p3671
sg11
S'http://steamcommunity.com/market/priceoverview/?currency=13&appid=730&market_hash_name=CZ75-Auto%20%7C%20Army%20Sheen%20%28Minimal%20Wear%29'
p3672
sg13
S'CZ75-Auto'
p3673
sg15
I159
sg16
F0.20999999999999999
sg17
S'Minimal%20Wear'
p3674
sg19
g439
sba(i__main__
skin
p3675
(dp3676
g6
I00
sg7
S'Chop Shop'
p3677
sg8
F0.22
sg9
S'Army Sheen'
p3678
sg11
S'http://steamcommunity.com/market/priceoverview/?currency=13&appid=730&market_hash_name=SCAR-20%20%7C%20Army%20Sheen%20%28Minimal%20Wear%29'
p3679
sg13
S'SCAR-20'
p3680
sg15
I134
sg16
F0.17999999999999999
sg17
S'Minimal%20Wear'
p3681
sg19
g439
sbasS'Mirage'
p3682
(lp3683
(i__main__
skin
p3684
(dp3685
g6
I00
sg7
g3682
sg8
F3.6099999999999999
sg9
S'Bulldozer'
p3686
sg11
S'http://steamcommunity.com/market/priceoverview/?currency=13&appid=730&market_hash_name=MAG-7%20%7C%20Bulldozer%20%28Minimal%20Wear%29'
p3687
sg13
S'MAG-7'
p3688
sg15
I31
sg16
F3.6000000000000001
sg17
S'Minimal%20Wear'
p3689
sg19
g63
sba(i__main__
skin
p3690
(dp3691
g6
I00
sg7
S'Mirage'
p3692
sg8
F1.3999999999999999
sg9
S'Amber Fade'
p3693
sg11
S'http://steamcommunity.com/market/priceoverview/?currency=13&appid=730&market_hash_name=MAC-10%20%7C%20Amber%20Fade%20%28Minimal%20Wear%29'
p3694
sg13
S'MAC-10'
p3695
sg15
I32
sg16
F1.3899999999999999
sg17
S'Minimal%20Wear'
p3696
sg19
g20
sba(i__main__
skin
p3697
(dp3698
g6
I00
sg7
S'Mirage'
p3699
sg8
F13.17
sg9
S'Blaze'
p3700
sg11
S'http://steamcommunity.com/market/priceoverview/?currency=13&appid=730&market_hash_name=UMP-45%20%7C%20Blaze%20%28Minimal%20Wear%29'
p3701
sg13
S'UMP-45'
p3702
sg15
I4
sg16
F12.93
sg17
S'Minimal%20Wear'
p3703
sg19
g20
sba(i__main__
skin
p3704
(dp3705
g6
I00
sg7
S'Mirage'
p3706
sg8
F11.720000000000001
sg9
S'Hot Rod'
p3707
sg11
S'http://steamcommunity.com/market/priceoverview/?currency=13&appid=730&market_hash_name=MP9%20%7C%20Hot%20Rod%20%28Minimal%20Wear%29'
p3708
sg13
S'MP9'
p3709
sg15
I2
sg16
F13.94
sg17
S'Minimal%20Wear'
p3710
sg19
g20
sba(i__main__
skin
p3711
(dp3712
g6
I00
sg7
S'Mirage'
p3713
sg8
F0.96999999999999997
sg9
S'CaliCamo'
p3714
sg11
S'http://steamcommunity.com/market/priceoverview/?currency=13&appid=730&market_hash_name=Negev%20%7C%20CaliCamo%20%28Minimal%20Wear%29'
p3715
sg13
S'Negev'
p3716
sg15
I5
sg16
F0.97999999999999998
sg17
S'Minimal%20Wear'
p3717
sg19
g396
sba(i__main__
skin
p3718
(dp3719
g6
I00
sg7
S'Mirage'
p3720
sg8
F0.92000000000000004
sg9
S'Tropical Storm'
p3721
sg11
S'http://steamcommunity.com/market/priceoverview/?currency=13&appid=730&market_hash_name=SSG 08%20%7C%20Tropical%20Storm%20%28Minimal%20Wear%29'
p3722
sg13
S'SSG 08'
p3723
sg15
I38
sg16
F0.82999999999999996
sg17
S'Minimal%20Wear'
p3724
sg19
g396
sba(i__main__
skin
p3725
(dp3726
g6
I00
sg7
S'Mirage'
p3727
sg8
F0.72999999999999998
sg9
S'Gator Mesh'
p3728
sg11
S'http://steamcommunity.com/market/priceoverview/?currency=13&appid=730&market_hash_name=SG 553%20%7C%20Gator%20Mesh%20%28Minimal%20Wear%29'
p3729
sg13
S'SG 553'
p3730
sg15
I18
sg16
F0.75
sg17
S'Minimal%20Wear'
p3731
sg19
g396
sba(i__main__
skin
p3732
(dp3733
g6
I00
sg7
S'Mirage'
p3734
sg8
F0.90000000000000002
sg9
S'Groundwater'
p3735
sg11
S'http://steamcommunity.com/market/priceoverview/?currency=13&appid=730&market_hash_name=Glock-18%20%7C%20Groundwater%20%28Minimal%20Wear%29'
p3736
sg13
S'Glock-18'
p3737
sg15
I43
sg16
F0.92000000000000004
sg17
S'Minimal%20Wear'
p3738
sg19
g396
sba(i__main__
skin
p3739
(dp3740
g6
I00
sg7
S'Mirage'
p3741
sg8
F0.87
sg9
S'Orange Peel'
p3742
sg11
S'http://steamcommunity.com/market/priceoverview/?currency=13&appid=730&market_hash_name=MP7%20%7C%20Orange%20Peel%20%28Minimal%20Wear%29'
p3743
sg13
S'MP7'
p3744
sg15
I9
sg16
F0.81999999999999995
sg17
S'Minimal%20Wear'
p3745
sg19
g396
sba(i__main__
skin
p3746
(dp3747
g6
I00
sg7
S'Mirage'
p3748
sg8
F0.19
sg9
S'Bone Mask'
p3749
sg11
S'http://steamcommunity.com/market/priceoverview/?currency=13&appid=730&market_hash_name=P250%20%7C%20Bone%20Mask%20%28Minimal%20Wear%29'
p3750
sg13
S'P250'
p3751
sg15
I34
sg16
F0.17000000000000001
sg17
S'Minimal%20Wear'
p3752
sg19
g439
sba(i__main__
skin
p3753
(dp3754
g6
I00
sg7
S'Mirage'
p3755
sg8
F0.38
sg9
S'Contractor'
p3756
sg11
S'http://steamcommunity.com/market/priceoverview/?currency=13&appid=730&market_hash_name=Five-SeveN%20%7C%20Contractor%20%28Minimal%20Wear%29'
p3757
sg13
S'Five-SeveN'
p3758
sg15
I45
sg16
F0.38
sg17
S'Minimal%20Wear'
p3759
sg19
g439
sba(i__main__
skin
p3760
(dp3761
g6
I00
sg7
S'Mirage'
p3762
sg8
F0.14000000000000001
sg9
S'Colony'
p3763
sg11
S'http://steamcommunity.com/market/priceoverview/?currency=13&appid=730&market_hash_name=AUG%20%7C%20Colony%20%28Minimal%20Wear%29'
p3764
sg13
S'AUG'
p3765
sg15
I41
sg16
F0.16
sg17
S'Minimal%20Wear'
p3766
sg19
g439
sba(i__main__
skin
p3767
(dp3768
g6
I00
sg7
S'Mirage'
p3769
sg8
F0.14999999999999999
sg9
S'Safari Mesh'
p3770
sg11
S'http://steamcommunity.com/market/priceoverview/?currency=13&appid=730&market_hash_name=G3SG1%20%7C%20Safari%20Mesh%20%28Minimal%20Wear%29'
p3771
sg13
S'G3SG1'
p3772
sg15
I19
sg16
F0.17000000000000001
sg17
S'Minimal%20Wear'
p3773
sg19
g439
sba(i__main__
skin
p3774
(dp3775
g6
I00
sg7
S'Mirage'
p3776
sg8
F0.27000000000000002
sg9
S'Scorched'
p3777
sg11
S'http://steamcommunity.com/market/priceoverview/?currency=13&appid=730&market_hash_name=P90%20%7C%20Scorched%20%28Minimal%20Wear%29'
p3778
sg13
S'P90'
p3779
sg15
I43
sg16
F0.28000000000000003
sg17
S'Minimal%20Wear'
p3780
sg19
g439
sba(i__main__
skin
p3781
(dp3782
g6
I00
sg7
S'Mirage'
p3783
sg8
F0.14000000000000001
sg9
S'Hunting Blind'
p3784
sg11
S'http://steamcommunity.com/market/priceoverview/?currency=13&appid=730&market_hash_name=Galil AR%20%7C%20Hunting%20Blind%20%28Minimal%20Wear%29'
p3785
sg13
S'Galil AR'
p3786
sg15
I33
sg16
F0.14999999999999999
sg17
S'Minimal%20Wear'
p3787
sg19
g439
sbasS'Nuke'
p3788
(lp3789
(i__main__
skin
p3790
(dp3791
g6
I00
sg7
g3788
sg8
F48.490000000000002
sg9
S'Nuclear Threat'
p3792
sg11
S'http://steamcommunity.com/market/priceoverview/?currency=13&appid=730&market_hash_name=Tec-9%20%7C%20Nuclear%20Threat%20%28Minimal%20Wear%29'
p3793
sg13
S'Tec-9'
p3794
sg15
I5
sg16
F46.990000000000002
sg17
S'Minimal%20Wear'
p3795
sg19
g63
sba(i__main__
skin
p3796
(dp3797
g6
I00
sg7
S'Nuke'
p3798
sg8
F34.240000000000002
sg9
S'Nuclear Threat'
p3799
sg11
S'http://steamcommunity.com/market/priceoverview/?currency=13&appid=730&market_hash_name=P250%20%7C%20Nuclear%20Threat%20%28Minimal%20Wear%29'
p3800
sg13
S'P250'
p3801
sg15
I11
sg16
F32.490000000000002
sg17
S'Minimal%20Wear'
p3802
sg19
g63
sba(i__main__
skin
p3803
(dp3804
g6
I00
sg7
S'Nuke'
p3805
sg8
F17.52
sg9
S'Radiation Hazard'
p3806
sg11
S'http://steamcommunity.com/market/priceoverview/?currency=13&appid=730&market_hash_name=M4A4%20%7C%20Radiation%20Hazard%20%28Minimal%20Wear%29'
p3807
sg13
S'M4A4'
p3808
sg15
I27
sg16
F18.579999999999998
sg17
S'Minimal%20Wear'
p3809
sg19
g20
sba(i__main__
skin
p3810
(dp3811
g6
I00
sg7
S'Nuke'
p3812
sg8
F3.7000000000000002
sg9
S'Fallout Warning'
p3813
sg11
S'http://steamcommunity.com/market/priceoverview/?currency=13&appid=730&market_hash_name=XM1014%20%7C%20Fallout%20Warning%20%28Minimal%20Wear%29'
p3814
sg13
S'XM1014'
p3815
sg15
I3
sg16
F3.8100000000000001
sg17
S'Minimal%20Wear'
p3816
sg19
g396
sba(i__main__
skin
p3817
(dp3818
g6
I00
sg7
S'Nuke'
p3819
sg8
F3.9199999999999999
sg9
S'Fallout Warning'
p3820
sg11
S'http://steamcommunity.com/market/priceoverview/?currency=13&appid=730&market_hash_name=UMP-45%20%7C%20Fallout%20Warning%20%28Minimal%20Wear%29'
p3821
sg13
S'UMP-45'
p3822
sg15
I11
sg16
F4.0199999999999996
sg17
S'Minimal%20Wear'
p3823
sg19
g396
sba(i__main__
skin
p3824
(dp3825
g6
I00
sg7
S'Nuke'
p3826
sg8
F3.8399999999999999
sg9
S'Fallout Warning'
p3827
sg11
S'http://steamcommunity.com/market/priceoverview/?currency=13&appid=730&market_hash_name=P90%20%7C%20Fallout%20Warning%20%28Minimal%20Wear%29'
p3828
sg13
S'P90'
p3829
sg15
I16
sg16
F3.7599999999999998
sg17
S'Minimal%20Wear'
p3830
sg19
g396
sba(i__main__
skin
p3831
(dp3832
g6
I00
sg7
S'Nuke'
p3833
sg8
F0.55000000000000004
sg9
S'Irradiated Alert'
p3834
sg11
S'http://steamcommunity.com/market/priceoverview/?currency=13&appid=730&market_hash_name=PP-Bizon%20%7C%20Irradiated%20Alert%20%28Minimal%20Wear%29'
p3835
sg13
S'PP-Bizon'
p3836
sg15
I25
sg16
F0.56999999999999995
sg17
S'Minimal%20Wear'
p3837
sg19
g439
sba(i__main__
skin
p3838
(dp3839
g6
I00
sg7
S'Nuke'
p3840
sg8
F0.40999999999999998
sg9
S'Irradiated Alert'
p3841
sg11
S'http://steamcommunity.com/market/priceoverview/?currency=13&appid=730&market_hash_name=Sawed-Off%20%7C%20Irradiated%20Alert%20%28Minimal%20Wear%29'
p3842
sg13
S'Sawed-Off'
p3843
sg15
I10
sg16
F0.52000000000000002
sg17
S'Minimal%20Wear'
p3844
sg19
g439
sba(i__main__
skin
p3845
(dp3846
g6
I00
sg7
S'Nuke'
p3847
sg8
F0.40999999999999998
sg9
S'Irradiated Alert'
p3848
sg11
S'http://steamcommunity.com/market/priceoverview/?currency=13&appid=730&market_hash_name=MAG-7%20%7C%20Irradiated%20Alert%20%28Minimal%20Wear%29'
p3849
sg13
S'MAG-7'
p3850
sg15
I25
sg16
F0.58999999999999997
sg17
S'Minimal%20Wear'
p3851
sg19
g439
sbas.