(dp1
S'Chroma 2'
p2
(lp3
(i__main__
skin
p4
(dp5
S'statTrak'
p6
I00
sS'case'
p7
g2
sS'priceMed'
p8
F0.40999999999999998
sS'name'
p9
S'Elite Build'
p10
sS'url'
p11
S'http://steamcommunity.com/market/priceoverview/?currency=13&appid=730&market_hash_name=AK-47%20%7C%20Elite%20Build%20%28Field-Tested%29'
p12
sS'weapon'
p13
S'AK-47'
p14
sS'volume'
p15
I0
sS'priceLow'
p16
F0.38
sS'quality'
p17
S'Field-Tested'
p18
sS'colour'
p19
S'Blue'
p20
sba(i__main__
skin
p21
(dp22
g6
I00
sg7
S'Chroma 2'
p23
sg8
F0.11
sg9
S'Armor Core'
p24
sg11
S'http://steamcommunity.com/market/priceoverview/?currency=13&appid=730&market_hash_name=MP7%20%7C%20Armor%20Core%20%28Field-Tested%29'
p25
sg13
S'MP7'
p26
sg15
I0
sg16
F0.12
sg17
g18
sg19
g20
sba(i__main__
skin
p27
(dp28
g6
I00
sg7
S'Chroma 2'
p29
sg8
F0.11
sg9
S'Bronze Deco'
p30
sg11
S'http://steamcommunity.com/market/priceoverview/?currency=13&appid=730&market_hash_name=Desert Eagle%20%7C%20Bronze%20Deco%20%28Field-Tested%29'
p31
sg13
S'Desert Eagle'
p32
sg15
I0
sg16
F0.12
sg17
g18
sg19
g20
sba(i__main__
skin
p33
(dp34
g6
I00
sg7
S'Chroma 2'
p35
sg8
F0.11
sg9
S'Valence'
p36
sg11
S'http://steamcommunity.com/market/priceoverview/?currency=13&appid=730&market_hash_name=P250%20%7C%20Valence%20%28Field-Tested%29'
p37
sg13
S'P250'
p38
sg15
I0
sg16
F0.12
sg17
g18
sg19
g20
sba(i__main__
skin
p39
(dp40
g6
I00
sg7
S'Chroma 2'
p41
sg8
F0.11
sg9
S"Man-o'-war"
p42
sg11
S'http://steamcommunity.com/market/priceoverview/?currency=13&appid=730&market_hash_name=Negev%20%7C%20Man-o%27-war%20%28Field-Tested%29'
p43
sg13
S'Negev'
p44
sg15
I672
sg16
F0.12
sg17
g18
sg19
g20
sba(i__main__
skin
p45
(dp46
g6
I00
sg7
S'Chroma 2'
p47
sg8
F0.10000000000000001
sg9
S'Origami'
p48
sg11
S'http://steamcommunity.com/market/priceoverview/?currency=13&appid=730&market_hash_name=Sawed-Off%20%7C%20Origami%20%28Field-Tested%29'
p49
sg13
S'Sawed-Off'
p50
sg15
I0
sg16
F0.12
sg17
g18
sg19
g20
sba(i__main__
skin
p51
(dp52
g6
I00
sg7
S'Chroma 2'
p53
sg8
F1.23
sg9
S'Worm God'
p54
sg11
S'http://steamcommunity.com/market/priceoverview/?currency=13&appid=730&market_hash_name=AWP%20%7C%20Worm%20God%20%28Field-Tested%29'
p55
sg13
S'AWP'
p56
sg15
I0
sg16
F1.23
sg17
g18
sg19
S'Purple'
p57
sba(i__main__
skin
p58
(dp59
g6
I00
sg7
S'Chroma 2'
p60
sg8
F0.35999999999999999
sg9
S'Heat'
p61
sg11
S'http://steamcommunity.com/market/priceoverview/?currency=13&appid=730&market_hash_name=MAG-7%20%7C%20Heat%20%28Field-Tested%29'
p62
sg13
S'MAG-7'
p63
sg15
I0
sg16
F0.35999999999999999
sg17
g18
sg19
g57
sba(i__main__
skin
p64
(dp65
g6
I00
sg7
S'Chroma 2'
p66
sg8
F0.35999999999999999
sg9
S'Pole Position'
p67
sg11
S'http://steamcommunity.com/market/priceoverview/?currency=13&appid=730&market_hash_name=CZ75-Auto%20%7C%20Pole%20Position%20%28Field-Tested%29'
p68
sg13
S'CZ75-Auto'
p69
sg15
I0
sg16
F0.35999999999999999
sg17
g18
sg19
g57
sba(i__main__
skin
p70
(dp71
g6
I00
sg7
S'Chroma 2'
p72
sg8
F0.35999999999999999
sg9
S'Grand Prix'
p73
sg11
S'http://steamcommunity.com/market/priceoverview/?currency=13&appid=730&market_hash_name=UMP-45%20%7C%20Grand%20Prix%20%28Field-Tested%29'
p74
sg13
S'UMP-45'
p75
sg15
I0
sg16
F0.38
sg17
g18
sg19
g57
sba(i__main__
skin
p76
(dp77
g6
I00
sg7
S'Chroma 2'
p78
sg8
F1.8
sg9
S'Monkey Business'
p79
sg11
S'http://steamcommunity.com/market/priceoverview/?currency=13&appid=730&market_hash_name=Five-SeveN%20%7C%20Monkey%20Business%20%28Field-Tested%29'
p80
sg13
S'Five-SeveN'
p81
sg15
I0
sg16
F1.72
sg17
S'Field-Tested'
p82
sg19
S'Pink'
p83
sba(i__main__
skin
p84
(dp85
g6
I00
sg7
S'Chroma 2'
p86
sg8
F1.6100000000000001
sg9
S'Eco'
p87
sg11
S'http://steamcommunity.com/market/priceoverview/?currency=13&appid=730&market_hash_name=Galil AR%20%7C%20Eco%20%28Field-Tested%29'
p88
sg13
S'Galil AR'
p89
sg15
I0
sg16
F1.54
sg17
g82
sg19
g83
sba(i__main__
skin
p90
(dp91
g6
I00
sg7
S'Chroma 2'
p92
sg8
F1.8999999999999999
sg9
S'Djinn'
p93
sg11
S'http://steamcommunity.com/market/priceoverview/?currency=13&appid=730&market_hash_name=FAMAS%20%7C%20Djinn%20%28Field-Tested%29'
p94
sg13
S'FAMAS'
p95
sg15
I651
sg16
F1.74
sg17
g82
sg19
g83
sba(i__main__
skin
p96
(dp97
g6
I00
sg7
S'Chroma 2'
p98
sg9
S'Hyper Beast'
p99
sg11
S'http://steamcommunity.com/market/priceoverview/?currency=13&appid=730&market_hash_name=M4A1-S%20%7C%20Hyper%20Beast%20%28Field-Tested%29'
p100
sg13
S'M4A1-S'
p101
sg17
g18
sg19
S'Red'
p102
sba(i__main__
skin
p103
(dp104
g6
I00
sg7
S'Chroma 2'
p105
sg9
S'Neon Rider'
p106
sg11
S'http://steamcommunity.com/market/priceoverview/?currency=13&appid=730&market_hash_name=MAC-10%20%7C%20Neon%20Rider%20%28Field-Tested%29'
p107
sg13
S'MAC-10'
p108
sg17
g18
sg19
g102
sbasS'Wildfire'
p109
(lp110
(i__main__
skin
p111
(dp112
g6
I00
sg7
S'Wildfire'
p113
sg8
F0.20999999999999999
sg9
S'Photic Zone'
p114
sg11
S'http://steamcommunity.com/market/priceoverview/?currency=13&appid=730&market_hash_name=PP-Bizon%20%7C%20Photic%20Zone%20%28Field-Tested%29'
p115
sg13
S'PP-Bizon'
p116
sg15
I0
sg16
F0.23000000000000001
sg17
S'Field-Tested'
p117
sg19
S'Blue'
p118
sba(i__main__
skin
p119
(dp120
g6
I00
sg7
S'Wildfire'
p121
sg8
F0.20000000000000001
sg9
S'Cartel'
p122
sg11
S'http://steamcommunity.com/market/priceoverview/?currency=13&appid=730&market_hash_name=Dual Berettas%20%7C%20Cartel%20%28Field-Tested%29'
p123
sg13
S'Dual Berettas'
p124
sg15
I942
sg16
F0.19
sg17
g117
sg19
g118
sba(i__main__
skin
p125
(dp126
g6
I00
sg7
S'Wildfire'
p127
sg8
F0.20999999999999999
sg9
S'Lapis Gator'
p128
sg11
S'http://steamcommunity.com/market/priceoverview/?currency=13&appid=730&market_hash_name=MAC-10%20%7C%20Lapis%20Gator%20%28Field-Tested%29'
p129
sg13
S'MAC-10'
p130
sg15
I0
sg16
F0.19
sg17
g117
sg19
g118
sba(i__main__
skin
p131
(dp132
g6
I00
sg7
S'Wildfire'
p133
sg8
F0.42999999999999999
sg9
S'Necropos'
p134
sg11
S'http://steamcommunity.com/market/priceoverview/?currency=13&appid=730&market_hash_name=SSG 08%20%7C%20Necropos%20%28Field-Tested%29'
p135
sg13
S'SSG 08'
p136
sg15
I0
sg16
F0.41999999999999998
sg17
g117
sg19
g118
sba(i__main__
skin
p137
(dp138
g6
I00
sg7
S'Wildfire'
p139
sg8
F0.22
sg9
S'Jambiya'
p140
sg11
S'http://steamcommunity.com/market/priceoverview/?currency=13&appid=730&market_hash_name=Tec-9%20%7C%20Jambiya%20%28Field-Tested%29'
p141
sg13
S'Tec-9'
p142
sg15
I0
sg16
F0.23000000000000001
sg17
g117
sg19
g118
sba(i__main__
skin
p143
(dp144
g6
I00
sg7
S'Wildfire'
p145
sg8
F0.46999999999999997
sg9
S'Lead Conduit'
p146
sg11
S'http://steamcommunity.com/market/priceoverview/?currency=13&appid=730&market_hash_name=USP-S%20%7C%20Lead%20Conduit%20%28Field-Tested%29'
p147
sg13
S'USP-S'
p148
sg15
I0
sg16
F0.46000000000000002
sg17
g117
sg19
g118
sba(i__main__
skin
p149
(dp150
g6
I00
sg7
S'Wildfire'
p151
sg8
F2.5499999999999998
sg9
S'Valence'
p152
sg11
S'http://steamcommunity.com/market/priceoverview/?currency=13&appid=730&market_hash_name=FAMAS%20%7C%20Valence%20%28Field-Tested%29'
p153
sg13
S'FAMAS'
p154
sg15
I826
sg16
F2.6600000000000001
sg17
g117
sg19
S'Purple'
p155
sba(i__main__
skin
p156
(dp157
g6
I00
sg7
S'Wildfire'
p158
sg8
F1.3100000000000001
sg9
S'Triumvirate'
p159
sg11
S'http://steamcommunity.com/market/priceoverview/?currency=13&appid=730&market_hash_name=Five-SeveN%20%7C%20Triumvirate%20%28Field-Tested%29'
p160
sg13
S'Five-SeveN'
p161
sg15
I615
sg16
F1.26
sg17
g117
sg19
g155
sba(i__main__
skin
p162
(dp163
g6
I00
sg7
S'Wildfire'
p164
sg8
F1.5600000000000001
sg9
S'Royal Legion'
p165
sg11
S'http://steamcommunity.com/market/priceoverview/?currency=13&appid=730&market_hash_name=Glock-18%20%7C%20Royal%20Legion%20%28Field-Tested%29'
p166
sg13
S'Glock-18'
p167
sg15
I653
sg16
F1.6599999999999999
sg17
g117
sg19
g155
sba(i__main__
skin
p168
(dp169
g6
I00
sg7
S'Wildfire'
p170
sg8
F1.28
sg9
S'Praetorian'
p171
sg11
S'http://steamcommunity.com/market/priceoverview/?currency=13&appid=730&market_hash_name=MAG-7%20%7C%20Praetorian%20%28Field-Tested%29'
p172
sg13
S'MAG-7'
p173
sg15
I565
sg16
F1.3100000000000001
sg17
g117
sg19
g155
sba(i__main__
skin
p174
(dp175
g6
I00
sg7
S'Wildfire'
p176
sg8
F1.1100000000000001
sg9
S'Impire'
p177
sg11
S'http://steamcommunity.com/market/priceoverview/?currency=13&appid=730&market_hash_name=MP7%20%7C%20Impire%20%28Field-Tested%29'
p178
sg13
S'MP7'
p179
sg15
I534
sg16
F1.27
sg17
g117
sg19
g155
sba(i__main__
skin
p180
(dp181
g6
I00
sg7
S'Wildfire'
p182
sg8
F10.83
sg9
S'Elite Build'
p183
sg11
S'http://steamcommunity.com/market/priceoverview/?currency=13&appid=730&market_hash_name=AWP%20%7C%20Elite%20Build%20%28Field-Tested%29'
p184
sg13
S'AWP'
p185
sg15
I297
sg16
F10.869999999999999
sg17
g117
sg19
S'Pink'
p186
sba(i__main__
skin
p187
(dp188
g6
I00
sg7
S'Wildfire'
p189
sg8
F11.710000000000001
sg9
S'Kumicho Dragon'
p190
sg11
S'http://steamcommunity.com/market/priceoverview/?currency=13&appid=730&market_hash_name=Desert Eagle%20%7C%20Kumicho%20Dragon%20%28Field-Tested%29'
p191
sg13
S'Desert Eagle'
p192
sg15
I356
sg16
F11.43
sg17
g117
sg19
g186
sba(i__main__
skin
p193
(dp194
g6
I00
sg7
S'Wildfire'
p195
sg8
F6.5499999999999998
sg9
S'Hyper Beast'
p196
sg11
S'http://steamcommunity.com/market/priceoverview/?currency=13&appid=730&market_hash_name=Nova%20%7C%20Hyper%20Beast%20%28Field-Tested%29'
p197
sg13
S'Nova'
p198
sg15
I306
sg16
F7.7000000000000002
sg17
g117
sg19
g186
sba(i__main__
skin
p199
(dp200
g6
I00
sg7
S'Wildfire'
p201
sg8
F53.219999999999999
sg9
S'Fuel Injector'
p202
sg11
S'http://steamcommunity.com/market/priceoverview/?currency=13&appid=730&market_hash_name=AK-47%20%7C%20Fuel%20Injector%20%28Field-Tested%29'
p203
sg13
S'AK-47'
p204
sg15
I72
sg16
F55.280000000000001
sg17
g117
sg19
S'Red'
p205
sba(i__main__
skin
p206
(dp207
g6
I00
sg7
S'Wildfire'
p208
sg8
F14.51
sg9
S'The Battlestar'
p209
sg11
S'http://steamcommunity.com/market/priceoverview/?currency=13&appid=730&market_hash_name=M4A4%20%7C%20The%20Battlestar%20%28Field-Tested%29'
p210
sg13
S'M4A4'
p211
sg15
I107
sg16
F14.98
sg17
g117
sg19
g205
sbasS'eSports 2014 Summer'
p212
(lp213
(i__main__
skin
p214
(dp215
g6
I00
sg7
g212
sg8
F0.28000000000000003
sg9
S'Dark Water'
p216
sg11
S'http://steamcommunity.com/market/priceoverview/?currency=13&appid=730&market_hash_name=SSG 08%20%7C%20Dark%20Water%20%28Field-Tested%29'
p217
sg13
S'SSG 08'
p218
sg15
I263
sg16
F0.28999999999999998
sg17
g18
sg19
g20
sba(i__main__
skin
p219
(dp220
g6
I00
sg7
S'eSports 2014 Summer'
p221
sg8
F0.20999999999999999
sg9
S'Ultraviolet'
p222
sg11
S'http://steamcommunity.com/market/priceoverview/?currency=13&appid=730&market_hash_name=MAC-10%20%7C%20Ultraviolet%20%28Field-Tested%29'
p223
sg13
S'MAC-10'
p224
sg15
I164
sg16
F0.20999999999999999
sg17
g18
sg19
g20
sba(i__main__
skin
p225
(dp226
g6
I00
sg7
S'eSports 2014 Summer'
p227
sg8
F0.41999999999999998
sg9
S'Blood Tiger'
p228
sg11
S'http://steamcommunity.com/market/priceoverview/?currency=13&appid=730&market_hash_name=USP-S%20%7C%20Blood%20Tiger%20%28Field-Tested%29'
p229
sg13
S'USP-S'
p230
sg15
I154
sg16
F0.40000000000000002
sg17
g18
sg19
g20
sba(i__main__
skin
p231
(dp232
g6
I00
sg7
S'eSports 2014 Summer'
p233
sg8
F0.27000000000000002
sg9
S'Hexane'
p234
sg11
S'http://steamcommunity.com/market/priceoverview/?currency=13&appid=730&market_hash_name=CZ75-Auto%20%7C%20Hexane%20%28Field-Tested%29'
p235
sg13
S'CZ75-Auto'
p236
sg15
I231
sg16
F0.25
sg17
g18
sg19
g20
sba(i__main__
skin
p237
(dp238
g6
I00
sg7
S'eSports 2014 Summer'
p239
sg8
F0.23999999999999999
sg9
S'Bratatat'
p240
sg11
S'http://steamcommunity.com/market/priceoverview/?currency=13&appid=730&market_hash_name=Negev%20%7C%20Bratatat%20%28Field-Tested%29'
p241
sg13
S'Negev'
p242
sg15
I102
sg16
F0.25
sg17
g18
sg19
g20
sba(i__main__
skin
p243
(dp244
g6
I00
sg7
S'eSports 2014 Summer'
p245
sg8
F0.20999999999999999
sg9
S'Red Python'
p246
sg11
S'http://steamcommunity.com/market/priceoverview/?currency=13&appid=730&market_hash_name=XM1014%20%7C%20Red%20Python%20%28Field-Tested%29'
p247
sg13
S'XM1014'
p248
sg15
I138
sg16
F0.23000000000000001
sg17
g18
sg19
g20
sba(i__main__
skin
p249
(dp250
g6
I00
sg7
S'eSports 2014 Summer'
p251
sg8
F0.67000000000000004
sg9
S'Blue Streak'
p252
sg11
S'http://steamcommunity.com/market/priceoverview/?currency=13&appid=730&market_hash_name=PP-Bizon%20%7C%20Blue%20Streak%20%28Field-Tested%29'
p253
sg13
S'PP-Bizon'
p254
sg15
I136
sg16
F0.71999999999999997
sg17
g18
sg19
g57
sba(i__main__
skin
p255
(dp256
g6
I00
sg7
S'eSports 2014 Summer'
p257
sg8
F0.68999999999999995
sg9
S'Virus'
p258
sg11
S'http://steamcommunity.com/market/priceoverview/?currency=13&appid=730&market_hash_name=P90%20%7C%20Virus%20%28Field-Tested%29'
p259
sg13
S'P90'
p260
sg15
I251
sg16
F0.68999999999999995
sg17
g18
sg19
g57
sba(i__main__
skin
p261
(dp262
g6
I00
sg7
S'eSports 2014 Summer'
p263
sg9
S'Ocean Foam'
p264
sg11
S'http://steamcommunity.com/market/priceoverview/?currency=13&appid=730&market_hash_name=MP7%20%7C%20Ocean%20Foam%20%28Field-Tested%29'
p265
sg13
S'MP7'
p266
sg17
g18
sg19
g57
sba(i__main__
skin
p267
(dp268
g6
I00
sg7
S'eSports 2014 Summer'
p269
sg8
F1.27
sg9
S'Steel Disruption'
p270
sg11
S'http://steamcommunity.com/market/priceoverview/?currency=13&appid=730&market_hash_name=Glock-18%20%7C%20Steel%20Disruption%20%28Field-Tested%29'
p271
sg13
S'Glock-18'
p272
sg15
I28
sg16
F1.23
sg17
g18
sg19
g57
sba(i__main__
skin
p273
(dp274
g6
I00
sg7
S'eSports 2014 Summer'
p275
sg8
F0.94999999999999996
sg9
S'Crimson Web'
p276
sg11
S'http://steamcommunity.com/market/priceoverview/?currency=13&appid=730&market_hash_name=Desert Eagle%20%7C%20Crimson%20Web%20%28Field-Tested%29'
p277
sg13
S'Desert Eagle'
p278
sg15
I841
sg16
F0.88
sg17
g18
sg19
g57
sba(i__main__
skin
p279
(dp280
g6
I00
sg7
S'eSports 2014 Summer'
p281
sg8
F2.1800000000000002
sg9
S'Bengal Tiger'
p282
sg11
S'http://steamcommunity.com/market/priceoverview/?currency=13&appid=730&market_hash_name=AUG%20%7C%20Bengal%20Tiger%20%28Field-Tested%29'
p283
sg13
S'AUG'
p284
sg15
I65
sg16
F2.3900000000000001
sg17
g82
sg19
g83
sba(i__main__
skin
p285
(dp286
g6
I00
sg7
S'eSports 2014 Summer'
p287
sg8
F2.3199999999999998
sg9
S'Bloomstick'
p288
sg11
S'http://steamcommunity.com/market/priceoverview/?currency=13&appid=730&market_hash_name=Nova%20%7C%20Bloomstick%20%28Field-Tested%29'
p289
sg13
S'Nova'
p290
sg15
I37
sg16
F2.2999999999999998
sg17
g82
sg19
g83
sba(i__main__
skin
p291
(dp292
g6
I00
sg7
S'eSports 2014 Summer'
p293
sg8
F7
sg9
S'Corticera'
p294
sg11
S'http://steamcommunity.com/market/priceoverview/?currency=13&appid=730&market_hash_name=AWP%20%7C%20Corticera%20%28Field-Tested%29'
p295
sg13
S'AWP'
p296
sg15
I231
sg16
F6.2300000000000004
sg17
g82
sg19
g83
sba(i__main__
skin
p297
(dp298
g6
I00
sg7
S'eSports 2014 Summer'
p299
sg8
F2.5699999999999998
sg9
S'Corticera'
p300
sg11
S'http://steamcommunity.com/market/priceoverview/?currency=13&appid=730&market_hash_name=P2000%20%7C%20Corticera%20%28Field-Tested%29'
p301
sg13
S'P2000'
p302
sg15
I57
sg16
F2.5299999999999998
sg17
g82
sg19
g83
sba(i__main__
skin
p303
(dp304
g6
I00
sg7
S'eSports 2014 Summer'
p305
sg9
S'Bullet Rain'
p306
sg11
S'http://steamcommunity.com/market/priceoverview/?currency=13&appid=730&market_hash_name=M4A4%20%7C%20Bullet%20Rain%20%28Field-Tested%29'
p307
sg13
S'M4A4'
p308
sg17
g18
sg19
g102
sba(i__main__
skin
p309
(dp310
g6
I00
sg7
S'eSports 2014 Summer'
p311
sg9
S'Jaguar'
p312
sg11
S'http://steamcommunity.com/market/priceoverview/?currency=13&appid=730&market_hash_name=AK-47%20%7C%20Jaguar%20%28Field-Tested%29'
p313
sg13
S'AK-47'
p314
sg17
g18
sg19
g102
sbasS'Italy'
p315
(lp316
(i__main__
skin
p317
(dp318
g6
I00
sg7
g315
sg8
F1.21
sg9
S'Pit Viper'
p319
sg11
S'http://steamcommunity.com/market/priceoverview/?currency=13&appid=730&market_hash_name=AWP%20%7C%20Pit%20Viper%20%28Field-Tested%29'
p320
sg13
S'AWP'
p321
sg15
I0
sg16
F1.21
sg17
g117
sg19
g57
sba(i__main__
skin
p322
(dp323
g6
I00
sg7
S'Italy'
p324
sg8
F0.20000000000000001
sg9
S'Full Stop'
p325
sg11
S'http://steamcommunity.com/market/priceoverview/?currency=13&appid=730&market_hash_name=Sawed-Off%20%7C%20Full%20Stop%20%28Field-Tested%29'
p326
sg13
S'Sawed-Off'
p327
sg15
I721
sg16
F0.19
sg17
g117
sg19
g20
sba(i__main__
skin
p328
(dp329
g6
I00
sg7
S'Italy'
p330
sg8
F0.46000000000000002
sg9
S'Candy Apple'
p331
sg11
S'http://steamcommunity.com/market/priceoverview/?currency=13&appid=730&market_hash_name=Glock-18%20%7C%20Candy%20Apple%20%28Field-Tested%29'
p332
sg13
S'Glock-18'
p333
sg15
I404
sg16
F0.46999999999999997
sg17
g117
sg19
g20
sba(i__main__
skin
p334
(dp335
g6
I00
sg7
S'Italy'
p336
sg9
S'Anodized Navy'
p337
sg11
S'http://steamcommunity.com/market/priceoverview/?currency=13&appid=730&market_hash_name=MP7%20%7C%20Anodized%20Navy%20%28Field-Tested%29'
p338
sg13
S'MP7'
p339
sg17
g117
sg19
g20
sba(i__main__
skin
p340
(dp341
g6
I00
sg7
S'Italy'
p342
sg8
F0.050000000000000003
sg9
S'CaliCamo'
p343
sg11
S'http://steamcommunity.com/market/priceoverview/?currency=13&appid=730&market_hash_name=XM1014%20%7C%20CaliCamo%20%28Field-Tested%29'
p344
sg13
S'XM1014'
p345
sg15
I0
sg16
F0.059999999999999998
sg17
g117
sg19
S'Light-Blue'
p346
sba(i__main__
skin
p347
(dp348
g6
I00
sg7
S'Italy'
p349
sg8
F0.16
sg9
S'Boreal Forest'
p350
sg11
S'http://steamcommunity.com/market/priceoverview/?currency=13&appid=730&market_hash_name=M4A1-S%20%7C%20Boreal%20Forest%20%28Field-Tested%29'
p351
sg13
S'M4A1-S'
p352
sg15
I0
sg16
F0.14999999999999999
sg17
g117
sg19
g346
sba(i__main__
skin
p353
(dp354
g6
I00
sg7
S'Italy'
p355
sg8
F0.050000000000000003
sg9
S'Gunsmoke'
p356
sg11
S'http://steamcommunity.com/market/priceoverview/?currency=13&appid=730&market_hash_name=UMP-45%20%7C%20Gunsmoke%20%28Field-Tested%29'
p357
sg13
S'UMP-45'
p358
sg15
I0
sg16
F0.059999999999999998
sg17
g117
sg19
g346
sba(i__main__
skin
p359
(dp360
g6
I00
sg7
S'Italy'
p361
sg8
F0.050000000000000003
sg9
S'Granite Marbleized'
p362
sg11
S'http://steamcommunity.com/market/priceoverview/?currency=13&appid=730&market_hash_name=P2000%20%7C%20Granite%20Marbleized%20%28Field-Tested%29'
p363
sg13
S'P2000'
p364
sg15
I0
sg16
F0.059999999999999998
sg17
g117
sg19
g346
sba(i__main__
skin
p365
(dp366
g6
I00
sg7
S'Italy'
p367
sg8
F0.040000000000000001
sg9
S'Stained'
p368
sg11
S'http://steamcommunity.com/market/priceoverview/?currency=13&appid=730&market_hash_name=Dual Berettas%20%7C%20Stained%20%28Field-Tested%29'
p369
sg13
S'Dual Berettas'
p370
sg15
I0
sg16
F0.059999999999999998
sg17
g117
sg19
g346
sba(i__main__
skin
p371
(dp372
g6
I00
sg7
S'Italy'
p373
sg8
F0.059999999999999998
sg9
S'Candy Apple'
p374
sg11
S'http://steamcommunity.com/market/priceoverview/?currency=13&appid=730&market_hash_name=Nova%20%7C%20Candy%20Apple%20%28Field-Tested%29'
p375
sg13
S'Nova'
p376
sg15
I405
sg16
F0.080000000000000002
sg17
g117
sg19
g346
sba(i__main__
skin
p377
(dp378
g6
I00
sg7
S'Italy'
p379
sg8
F0.02
sg9
S'Groundwater'
p380
sg11
S'http://steamcommunity.com/market/priceoverview/?currency=13&appid=730&market_hash_name=Tec-9%20%7C%20Groundwater%20%28Field-Tested%29'
p381
sg13
S'Tec-9'
p382
sg15
I0
sg16
F0.040000000000000001
sg17
g117
sg19
S'White'
p383
sba(i__main__
skin
p384
(dp385
g6
I00
sg7
S'Italy'
p386
sg8
F0.02
sg9
S'Contractor'
p387
sg11
S'http://steamcommunity.com/market/priceoverview/?currency=13&appid=730&market_hash_name=AUG%20%7C%20Contractor%20%28Field-Tested%29'
p388
sg13
S'AUG'
p389
sg15
I0
sg16
F0.040000000000000001
sg17
g117
sg19
g383
sba(i__main__
skin
p390
(dp391
g6
I00
sg7
S'Italy'
p392
sg8
F0.02
sg9
S'Colony'
p393
sg11
S'http://steamcommunity.com/market/priceoverview/?currency=13&appid=730&market_hash_name=FAMAS%20%7C%20Colony%20%28Field-Tested%29'
p394
sg13
S'FAMAS'
p395
sg15
I0
sg16
F0.040000000000000001
sg17
g117
sg19
g383
sba(i__main__
skin
p396
(dp397
g6
I00
sg7
S'Italy'
p398
sg8
F0.02
sg9
S'Sand Dune'
p399
sg11
S'http://steamcommunity.com/market/priceoverview/?currency=13&appid=730&market_hash_name=Nova%20%7C%20Sand%20Dune%20%28Field-Tested%29'
p400
sg13
S'Nova'
p401
sg15
I0
sg16
F0.040000000000000001
sg17
g117
sg19
g383
sba(i__main__
skin
p402
(dp403
g6
I00
sg7
S'Italy'
p404
sg8
F0.02
sg9
S'Sand Dashed'
p405
sg11
S'http://steamcommunity.com/market/priceoverview/?currency=13&appid=730&market_hash_name=PP-Bizon%20%7C%20Sand%20Dashed%20%28Field-Tested%29'
p406
sg13
S'PP-Bizon'
p407
sg15
I0
sg16
F0.040000000000000001
sg17
g117
sg19
g383
sbasS'Arms Deal'
p408
(lp409
(i__main__
skin
p410
(dp411
g6
I00
sg7
g408
sg8
F0.77000000000000002
sg9
S'Skulls'
p412
sg11
S'http://steamcommunity.com/market/priceoverview/?currency=13&appid=730&market_hash_name=MP7%20%7C%20Skulls%20%28Field-Tested%29'
p413
sg13
S'MP7'
p414
sg15
I67
sg16
F0.98999999999999999
sg17
g18
sg19
g20
sba(i__main__
skin
p415
(dp416
g6
I00
sg7
S'Arms Deal'
p417
sg8
F0.79000000000000004
sg9
S'Ultraviolet'
p418
sg11
S'http://steamcommunity.com/market/priceoverview/?currency=13&appid=730&market_hash_name=SG 553%20%7C%20Ultraviolet%20%28Field-Tested%29'
p419
sg13
S'SG 553'
p420
sg15
I112
sg16
F0.82999999999999996
sg17
g18
sg19
g20
sba(i__main__
skin
p421
(dp422
g6
I00
sg7
S'Arms Deal'
p423
sg9
S'Wings'
p424
sg11
S'http://steamcommunity.com/market/priceoverview/?currency=13&appid=730&market_hash_name=AUG%20%7C%20Wings%20%28Field-Tested%29'
p425
sg13
S'AUG'
p426
sg17
g18
sg19
g20
sba(i__main__
skin
p427
(dp428
g6
I00
sg7
S'Arms Deal'
p429
sg8
F6.6100000000000003
sg9
S'Dark Water'
p430
sg11
S'http://steamcommunity.com/market/priceoverview/?currency=13&appid=730&market_hash_name=M4A1-S%20%7C%20Dark%20Water%20%28Field-Tested%29'
p431
sg13
S'M4A1-S'
p432
sg15
I83
sg16
F7.3099999999999996
sg17
g18
sg19
g57
sba(i__main__
skin
p433
(dp434
g6
I00
sg7
S'Arms Deal'
p435
sg8
F7.7999999999999998
sg9
S'Dark Water'
p436
sg11
S'http://steamcommunity.com/market/priceoverview/?currency=13&appid=730&market_hash_name=USP-S%20%7C%20Dark%20Water%20%28Field-Tested%29'
p437
sg13
S'USP-S'
p438
sg15
I26
sg16
F7.5599999999999996
sg17
g18
sg19
g57
sba(i__main__
skin
p439
(dp440
g6
I00
sg7
S'Arms Deal'
p441
sg9
S'Dragon Tattoo'
p442
sg11
S'http://steamcommunity.com/market/priceoverview/?currency=13&appid=730&market_hash_name=Glock-18%20%7C%20Dragon%20Tattoo%20%28Field-Tested%29'
p443
sg13
S'Glock-18'
p444
sg17
g18
sg19
g57
sba(i__main__
skin
p445
(dp446
g6
I00
sg7
S'Arms Deal'
p447
sg9
S'Hypnotic'
p448
sg11
S'http://steamcommunity.com/market/priceoverview/?currency=13&appid=730&market_hash_name=Desert Eagle%20%7C%20Hypnotic%20%28Field-Tested%29'
p449
sg13
S'Desert Eagle'
p450
sg17
g82
sg19
g83
sba(i__main__
skin
p451
(dp452
g6
I00
sg7
S'Arms Deal'
p453
sg8
F32.100000000000001
sg9
S'Case Hardened'
p454
sg11
S'http://steamcommunity.com/market/priceoverview/?currency=13&appid=730&market_hash_name=AK-47%20%7C%20Case%20Hardened%20%28Field-Tested%29'
p455
sg13
S'AK-47'
p456
sg15
I157
sg16
F31.25
sg17
g82
sg19
g83
sba(i__main__
skin
p457
(dp458
g6
I00
sg7
S'Arms Deal'
p459
sg9
S'Lightning Strike'
p460
sg11
S'http://steamcommunity.com/market/priceoverview/?currency=13&appid=730&market_hash_name=AWP%20%7C%20Lightning%20Strike%20%28Field-Tested%29'
p461
sg13
S'AWP'
p462
sg17
g18
sg19
g102
sbasS'Cache'
p463
(lp464
(i__main__
skin
p465
(dp466
g6
I00
sg7
g463
sg8
F4.3099999999999996
sg9
S'Cerberus'
p467
sg11
S'http://steamcommunity.com/market/priceoverview/?currency=13&appid=730&market_hash_name=Galil AR%20%7C%20Cerberus%20%28Field-Tested%29'
p468
sg13
S'Galil AR'
p469
sg15
I139
sg16
F4.2599999999999998
sg17
g18
sg19
g57
sba(i__main__
skin
p470
(dp471
g6
I00
sg7
S'Cache'
p472
sg8
F1.8500000000000001
sg9
S'Styx'
p473
sg11
S'http://steamcommunity.com/market/priceoverview/?currency=13&appid=730&market_hash_name=FAMAS%20%7C%20Styx%20%28Field-Tested%29'
p474
sg13
S'FAMAS'
p475
sg15
I128
sg16
F1.78
sg17
g18
sg19
g57
sba(i__main__
skin
p476
(dp477
g6
I00
sg7
S'Cache'
p478
sg8
F3.5800000000000001
sg9
S'Toxic'
p479
sg11
S'http://steamcommunity.com/market/priceoverview/?currency=13&appid=730&market_hash_name=Tec-9%20%7C%20Toxic%20%28Field-Tested%29'
p480
sg13
S'Tec-9'
p481
sg15
I208
sg16
F3.5299999999999998
sg17
g18
sg19
g20
sba(i__main__
skin
p482
(dp483
g6
I00
sg7
S'Cache'
p484
sg8
F1.04
sg9
S'Nuclear Garden'
p485
sg11
S'http://steamcommunity.com/market/priceoverview/?currency=13&appid=730&market_hash_name=MAC-10%20%7C%20Nuclear%20Garden%20%28Field-Tested%29'
p486
sg13
S'MAC-10'
p487
sg15
I47
sg16
F1.1100000000000001
sg17
g18
sg19
g20
sba(i__main__
skin
p488
(dp489
g6
I00
sg7
S'Cache'
p490
sg8
F0.96999999999999997
sg9
S'Bone Machine'
p491
sg11
S'http://steamcommunity.com/market/priceoverview/?currency=13&appid=730&market_hash_name=XM1014%20%7C%20Bone%20Machine%20%28Field-Tested%29'
p492
sg13
S'XM1014'
p493
sg15
I63
sg16
F1.1200000000000001
sg17
g18
sg19
g20
sba(i__main__
skin
p494
(dp495
g6
I00
sg7
S'Cache'
p496
sg8
F0.90000000000000002
sg9
S'Setting Sun'
p497
sg11
S'http://steamcommunity.com/market/priceoverview/?currency=13&appid=730&market_hash_name=MP9%20%7C%20Setting%20Sun%20%28Field-Tested%29'
p498
sg13
S'MP9'
p499
sg15
I21
sg16
F1.05
sg17
g18
sg19
g20
sba(i__main__
skin
p500
(dp501
g6
I00
sg7
S'Cache'
p502
sg8
F2.1299999999999999
sg9
S'Reactor'
p503
sg11
S'http://steamcommunity.com/market/priceoverview/?currency=13&appid=730&market_hash_name=Glock-18%20%7C%20Reactor%20%28Field-Tested%29'
p504
sg13
S'Glock-18'
p505
sg15
I232
sg16
F2.3399999999999999
sg17
g18
sg19
g20
sba(i__main__
skin
p506
(dp507
g6
I00
sg7
S'Cache'
p508
sg8
F0.46999999999999997
sg9
S'Hot Shot'
p509
sg11
S'http://steamcommunity.com/market/priceoverview/?currency=13&appid=730&market_hash_name=Five-SeveN%20%7C%20Hot%20Shot%20%28Field-Tested%29'
p510
sg13
S'Five-SeveN'
p511
sg15
I145
sg16
F0.48999999999999999
sg17
g18
sg19
g346
sba(i__main__
skin
p512
(dp513
g6
I00
sg7
S'Cache'
p514
sg8
F0.46999999999999997
sg9
S'Fallout Warning'
p515
sg11
S'http://steamcommunity.com/market/priceoverview/?currency=13&appid=730&market_hash_name=SG 553%20%7C%20Fallout%20Warning%20%28Field-Tested%29'
p516
sg13
S'SG 553'
p517
sg15
I96
sg16
F0.48999999999999999
sg17
g18
sg19
g346
sba(i__main__
skin
p518
(dp519
g6
I00
sg7
S'Cache'
p520
sg8
F0.46999999999999997
sg9
S'Chemical Green'
p521
sg11
S'http://steamcommunity.com/market/priceoverview/?currency=13&appid=730&market_hash_name=PP-Bizon%20%7C%20Chemical%20Green%20%28Field-Tested%29'
p522
sg13
S'PP-Bizon'
p523
sg15
I68
sg16
F0.48999999999999999
sg17
g18
sg19
g346
sba(i__main__
skin
p524
(dp525
g6
I00
sg7
S'Cache'
p526
sg8
F0.46999999999999997
sg9
S'Radiation Hazard'
p527
sg11
S'http://steamcommunity.com/market/priceoverview/?currency=13&appid=730&market_hash_name=AUG%20%7C%20Radiation%20Hazard%20%28Field-Tested%29'
p528
sg13
S'AUG'
p529
sg15
I155
sg16
F0.48999999999999999
sg17
g18
sg19
g346
sba(i__main__
skin
p530
(dp531
g6
I00
sg7
S'Cache'
p532
sg8
F0.47999999999999998
sg9
S'Contamination'
p533
sg11
S'http://steamcommunity.com/market/priceoverview/?currency=13&appid=730&market_hash_name=P250%20%7C%20Contamination%20%28Field-Tested%29'
p534
sg13
S'P250'
p535
sg15
I63
sg16
F0.5
sg17
g18
sg19
g346
sba(i__main__
skin
p536
(dp537
g6
I00
sg7
S'Cache'
p538
sg8
F0.45000000000000001
sg9
S'Nuclear Waste'
p539
sg11
S'http://steamcommunity.com/market/priceoverview/?currency=13&appid=730&market_hash_name=Negev%20%7C%20Nuclear%20Waste%20%28Field-Tested%29'
p540
sg13
S'Negev'
p541
sg15
I36
sg16
F0.48999999999999999
sg17
g18
sg19
g346
sbasS'Chroma'
p542
(lp543
(i__main__
skin
p544
(dp545
g6
I00
sg7
g542
sg8
F0.13
sg9
S'Catacombs'
p546
sg11
S'http://steamcommunity.com/market/priceoverview/?currency=13&appid=730&market_hash_name=Glock-18%20%7C%20Catacombs%20%28Field-Tested%29'
p547
sg13
S'Glock-18'
p548
sg15
I0
sg16
F0.13
sg17
g18
sg19
g20
sba(i__main__
skin
p549
(dp550
g6
I00
sg7
S'Chroma'
p551
sg8
F0.11
sg9
S'System Lock'
p552
sg11
S'http://steamcommunity.com/market/priceoverview/?currency=13&appid=730&market_hash_name=M249%20%7C%20System%20Lock%20%28Field-Tested%29'
p553
sg13
S'M249'
p554
sg15
I596
sg16
F0.12
sg17
g18
sg19
g20
sba(i__main__
skin
p555
(dp556
g6
I00
sg7
S'Chroma'
p557
sg8
F0.13
sg9
S'Deadly Poison'
p558
sg11
S'http://steamcommunity.com/market/priceoverview/?currency=13&appid=730&market_hash_name=MP9%20%7C%20Deadly%20Poison%20%28Field-Tested%29'
p559
sg13
S'MP9'
p560
sg15
I705
sg16
F0.14000000000000001
sg17
g18
sg19
g20
sba(i__main__
skin
p561
(dp562
g6
I00
sg7
S'Chroma'
p563
sg8
F0.12
sg9
S'Grotto'
p564
sg11
S'http://steamcommunity.com/market/priceoverview/?currency=13&appid=730&market_hash_name=SCAR-20%20%7C%20Grotto%20%28Field-Tested%29'
p565
sg13
S'SCAR-20'
p566
sg15
I620
sg16
F0.12
sg17
g18
sg19
g20
sba(i__main__
skin
p567
(dp568
g6
I00
sg7
S'Chroma'
p569
sg8
F0.11
sg9
S'Quicksilver'
p570
sg11
S'http://steamcommunity.com/market/priceoverview/?currency=13&appid=730&market_hash_name=XM1014%20%7C%20Quicksilver%20%28Field-Tested%29'
p571
sg13
S'XM1014'
p572
sg15
I565
sg16
F0.12
sg17
g18
sg19
g20
sba(i__main__
skin
p573
(dp574
g6
I00
sg7
S'Chroma'
p575
sg8
F0.48999999999999999
sg9
S'Urban Shock'
p576
sg11
S'http://steamcommunity.com/market/priceoverview/?currency=13&appid=730&market_hash_name=Dual Berettas%20%7C%20Urban%20Shock%20%28Field-Tested%29'
p577
sg13
S'Dual Berettas'
p578
sg15
I273
sg16
F0.42999999999999999
sg17
g18
sg19
g57
sba(i__main__
skin
p579
(dp580
g6
I00
sg7
S'Chroma'
p581
sg8
F0.45000000000000001
sg9
S'Naga'
p582
sg11
S'http://steamcommunity.com/market/priceoverview/?currency=13&appid=730&market_hash_name=Desert Eagle%20%7C%20Naga%20%28Field-Tested%29'
p583
sg13
S'Desert Eagle'
p584
sg15
I887
sg16
F0.46999999999999997
sg17
g18
sg19
g57
sba(i__main__
skin
p585
(dp586
g6
I00
sg7
S'Chroma'
p587
sg8
F0.45000000000000001
sg9
S'Malachite'
p588
sg11
S'http://steamcommunity.com/market/priceoverview/?currency=13&appid=730&market_hash_name=MAC-10%20%7C%20Malachite%20%28Field-Tested%29'
p589
sg13
S'MAC-10'
p590
sg15
I277
sg16
F0.46999999999999997
sg17
g18
sg19
g57
sba(i__main__
skin
p591
(dp592
g6
I00
sg7
S'Chroma'
p593
sg8
F0.40000000000000002
sg9
S'Serenity'
p594
sg11
S'http://steamcommunity.com/market/priceoverview/?currency=13&appid=730&market_hash_name=Sawed-Off%20%7C%20Serenity%20%28Field-Tested%29'
p595
sg13
S'Sawed-Off'
p596
sg15
I236
sg16
F0.42999999999999999
sg17
g18
sg19
g57
sba(i__main__
skin
p597
(dp598
g6
I00
sg7
S'Chroma'
p599
sg8
F2.02
sg9
S'Cartel'
p600
sg11
S'http://steamcommunity.com/market/priceoverview/?currency=13&appid=730&market_hash_name=AK-47%20%7C%20Cartel%20%28Field-Tested%29'
p601
sg13
S'AK-47'
p602
sg15
I0
sg16
F1.97
sg17
g82
sg19
g83
sba(i__main__
skin
p603
(dp604
g6
I00
sg7
S'Chroma'
p605
sg8
F3.3100000000000001
sg9
S'\xe9\xbe\x8d\xe7\x8e\x8b (Dragon King)'
p606
sg11
S'http://steamcommunity.com/market/priceoverview/?currency=13&appid=730&market_hash_name=M4A4%20%7C%20%E9%BE%8D%E7%8E%8B%20%28Dragon%20King%29%20%28Field-Tested%29'
p607
sg13
S'M4A4'
p608
sg15
I0
sg16
F3.2599999999999998
sg17
g82
sg19
g83
sba(i__main__
skin
p609
(dp610
g6
I00
sg7
S'Chroma'
p611
sg8
F1.74
sg9
S'Muertos'
p612
sg11
S'http://steamcommunity.com/market/priceoverview/?currency=13&appid=730&market_hash_name=P250%20%7C%20Muertos%20%28Field-Tested%29'
p613
sg13
S'P250'
p614
sg15
I403
sg16
F1.9099999999999999
sg17
g82
sg19
g83
sba(i__main__
skin
p615
(dp616
g6
I00
sg7
S'Chroma'
p617
sg9
S"Man-o'-war"
p618
sg11
S'http://steamcommunity.com/market/priceoverview/?currency=13&appid=730&market_hash_name=AWP%20%7C%20Man-o%27-war%20%28Field-Tested%29'
p619
sg13
S'AWP'
p620
sg17
g18
sg19
g102
sba(i__main__
skin
p621
(dp622
g6
I00
sg7
S'Chroma'
p623
sg9
S'Chatterbox'
p624
sg11
S'http://steamcommunity.com/market/priceoverview/?currency=13&appid=730&market_hash_name=Galil AR%20%7C%20Chatterbox%20%28Field-Tested%29'
p625
sg13
S'Galil AR'
p626
sg17
g18
sg19
g102
sbasS'Lake'
p627
(lp628
(i__main__
skin
p629
(dp630
g6
I00
sg7
g627
sg8
F0.35999999999999999
sg9
S'Cobalt Quartz'
p631
sg11
S'http://steamcommunity.com/market/priceoverview/?currency=13&appid=730&market_hash_name=Dual Berettas%20%7C%20Cobalt%20Quartz%20%28Field-Tested%29'
p632
sg13
S'Dual Berettas'
p633
sg15
I0
sg16
F0.34999999999999998
sg17
g18
sg19
g57
sba(i__main__
skin
p634
(dp635
g6
I00
sg7
S'Lake'
p636
sg8
F0.14000000000000001
sg9
S'Night Ops'
p637
sg11
S'http://steamcommunity.com/market/priceoverview/?currency=13&appid=730&market_hash_name=USP-S%20%7C%20Night%20Ops%20%28Field-Tested%29'
p638
sg13
S'USP-S'
p639
sg15
I0
sg16
F0.14999999999999999
sg17
g18
sg19
g20
sba(i__main__
skin
p640
(dp641
g6
I00
sg7
S'Lake'
p642
sg8
F0.14000000000000001
sg9
S'Teardown'
p643
sg11
S'http://steamcommunity.com/market/priceoverview/?currency=13&appid=730&market_hash_name=P90%20%7C%20Teardown%20%28Field-Tested%29'
p644
sg13
S'P90'
p645
sg15
I914
sg16
F0.13
sg17
g18
sg19
g20
sba(i__main__
skin
p646
(dp647
g6
I00
sg7
S'Lake'
p648
sg9
S'Anodized Navy'
p649
sg11
S'http://steamcommunity.com/market/priceoverview/?currency=13&appid=730&market_hash_name=SG 553%20%7C%20Anodized%20Navy%20%28Field-Tested%29'
p650
sg13
S'SG 553'
p651
sg17
g18
sg19
g20
sba(i__main__
skin
p652
(dp653
g6
I00
sg7
S'Lake'
p654
sg8
F0.050000000000000003
sg9
S'Mudder'
p655
sg11
S'http://steamcommunity.com/market/priceoverview/?currency=13&appid=730&market_hash_name=Desert Eagle%20%7C%20Mudder%20%28Field-Tested%29'
p656
sg13
S'Desert Eagle'
p657
sg15
I0
sg16
F0.070000000000000007
sg17
g18
sg19
g346
sba(i__main__
skin
p658
(dp659
g6
I00
sg7
S'Lake'
p660
sg8
F0.19
sg9
S'Safari Mesh'
p661
sg11
S'http://steamcommunity.com/market/priceoverview/?currency=13&appid=730&market_hash_name=AWP%20%7C%20Safari%20Mesh%20%28Field-Tested%29'
p662
sg13
S'AWP'
p663
sg15
I0
sg16
F0.17999999999999999
sg17
g18
sg19
g346
sba(i__main__
skin
p664
(dp665
g6
I00
sg7
S'Lake'
p666
sg8
F0.050000000000000003
sg9
S'Night Ops'
p667
sg11
S'http://steamcommunity.com/market/priceoverview/?currency=13&appid=730&market_hash_name=PP-Bizon%20%7C%20Night%20Ops%20%28Field-Tested%29'
p668
sg13
S'PP-Bizon'
p669
sg15
I0
sg16
F0.070000000000000007
sg17
g18
sg19
g346
sba(i__main__
skin
p670
(dp671
g6
I00
sg7
S'Lake'
p672
sg8
F0.050000000000000003
sg9
S'Cyanospatter'
p673
sg11
S'http://steamcommunity.com/market/priceoverview/?currency=13&appid=730&market_hash_name=FAMAS%20%7C%20Cyanospatter%20%28Field-Tested%29'
p674
sg13
S'FAMAS'
p675
sg15
I0
sg16
F0.070000000000000007
sg17
g18
sg19
g346
sba(i__main__
skin
p676
(dp677
g6
I00
sg7
S'Lake'
p678
sg8
F0.050000000000000003
sg9
S'Blue Steel'
p679
sg11
S'http://steamcommunity.com/market/priceoverview/?currency=13&appid=730&market_hash_name=XM1014%20%7C%20Blue%20Steel%20%28Field-Tested%29'
p680
sg13
S'XM1014'
p681
sg15
I0
sg16
F0.070000000000000007
sg17
g18
sg19
g346
sba(i__main__
skin
p682
(dp683
g6
I00
sg7
S'Lake'
p684
sg8
F0.02
sg9
S'Boreal Forest'
p685
sg11
S'http://steamcommunity.com/market/priceoverview/?currency=13&appid=730&market_hash_name=P250%20%7C%20Boreal%20Forest%20%28Field-Tested%29'
p686
sg13
S'P250'
p687
sg15
I0
sg16
F0.040000000000000001
sg17
g18
sg19
g383
sba(i__main__
skin
p688
(dp689
g6
I00
sg7
S'Lake'
p690
sg8
F0.02
sg9
S'Blue Spruce'
p691
sg11
S'http://steamcommunity.com/market/priceoverview/?currency=13&appid=730&market_hash_name=XM1014%20%7C%20Blue%20Spruce%20%28Field-Tested%29'
p692
sg13
S'XM1014'
p693
sg15
I0
sg16
F0.040000000000000001
sg17
g18
sg19
g383
sba(i__main__
skin
p694
(dp695
g6
I00
sg7
S'Lake'
p696
sg8
F0.02
sg9
S'Storm'
p697
sg11
S'http://steamcommunity.com/market/priceoverview/?currency=13&appid=730&market_hash_name=AUG%20%7C%20Storm%20%28Field-Tested%29'
p698
sg13
S'AUG'
p699
sg15
I0
sg16
F0.040000000000000001
sg17
g18
sg19
g383
sba(i__main__
skin
p700
(dp701
g6
I00
sg7
S'Lake'
p702
sg8
F0.02
sg9
S'Sage Spray'
p703
sg11
S'http://steamcommunity.com/market/priceoverview/?currency=13&appid=730&market_hash_name=Galil AR%20%7C%20Sage%20Spray%20%28Field-Tested%29'
p704
sg13
S'Galil AR'
p705
sg15
I0
sg16
F0.040000000000000001
sg17
g18
sg19
g383
sba(i__main__
skin
p706
(dp707
g6
I00
sg7
S'Lake'
p708
sg8
F0.02
sg9
S'Waves Perforated'
p709
sg11
S'http://steamcommunity.com/market/priceoverview/?currency=13&appid=730&market_hash_name=SG 553%20%7C%20Waves%20Perforated%20%28Field-Tested%29'
p710
sg13
S'SG 553'
p711
sg15
I0
sg16
F0.040000000000000001
sg17
g18
sg19
g383
sba(i__main__
skin
p712
(dp713
g6
I00
sg7
S'Lake'
p714
sg8
F0.02
sg9
S'Jungle Dashed'
p715
sg11
S'http://steamcommunity.com/market/priceoverview/?currency=13&appid=730&market_hash_name=G3SG1%20%7C%20Jungle%20Dashed%20%28Field-Tested%29'
p716
sg13
S'G3SG1'
p717
sg15
I0
sg16
F0.040000000000000001
sg17
g18
sg19
g383
sbasS'Breakout'
p718
(lp719
(i__main__
skin
p720
(dp721
g6
I00
sg7
g718
sg8
F0.12
sg9
S'Urban Hazard'
p722
sg11
S'http://steamcommunity.com/market/priceoverview/?currency=13&appid=730&market_hash_name=MP7%20%7C%20Urban%20Hazard%20%28Field-Tested%29'
p723
sg13
S'MP7'
p724
sg15
I0
sg16
F0.12
sg17
g18
sg19
g20
sba(i__main__
skin
p725
(dp726
g6
I00
sg7
S'Breakout'
p727
sg8
F0.10000000000000001
sg9
S'Desert-Strike'
p728
sg11
S'http://steamcommunity.com/market/priceoverview/?currency=13&appid=730&market_hash_name=Negev%20%7C%20Desert-Strike%20%28Field-Tested%29'
p729
sg13
S'Negev'
p730
sg15
I0
sg16
F0.12
sg17
g18
sg19
g20
sba(i__main__
skin
p731
(dp732
g6
I00
sg7
S'Breakout'
p733
sg8
F0.11
sg9
S'Ivory'
p734
sg11
S'http://steamcommunity.com/market/priceoverview/?currency=13&appid=730&market_hash_name=P2000%20%7C%20Ivory%20%28Field-Tested%29'
p735
sg13
S'P2000'
p736
sg15
I0
sg16
F0.12
sg17
g18
sg19
g20
sba(i__main__
skin
p737
(dp738
g6
I00
sg7
S'Breakout'
p739
sg8
F0.13
sg9
S'Abyss'
p740
sg11
S'http://steamcommunity.com/market/priceoverview/?currency=13&appid=730&market_hash_name=SSG 08%20%7C%20Abyss%20%28Field-Tested%29'
p741
sg13
S'SSG 08'
p742
sg15
I0
sg16
F0.13
sg17
g18
sg19
g20
sba(i__main__
skin
p743
(dp744
g6
I00
sg7
S'Breakout'
p745
sg8
F0.11
sg9
S'Labyrinth'
p746
sg11
S'http://steamcommunity.com/market/priceoverview/?currency=13&appid=730&market_hash_name=UMP-45%20%7C%20Labyrinth%20%28Field-Tested%29'
p747
sg13
S'UMP-45'
p748
sg15
I0
sg16
F0.12
sg17
g18
sg19
g20
sba(i__main__
skin
p749
(dp750
g6
I00
sg7
S'Breakout'
p751
sg8
F0.38
sg9
S'Osiris'
p752
sg11
S'http://steamcommunity.com/market/priceoverview/?currency=13&appid=730&market_hash_name=PP-Bizon%20%7C%20Osiris%20%28Field-Tested%29'
p753
sg13
S'PP-Bizon'
p754
sg15
I699
sg16
F0.40000000000000002
sg17
g18
sg19
g57
sba(i__main__
skin
p755
(dp756
g6
I00
sg7
S'Breakout'
p757
sg8
F0.37
sg9
S'Tigris'
p758
sg11
S'http://steamcommunity.com/market/priceoverview/?currency=13&appid=730&market_hash_name=CZ75-Auto%20%7C%20Tigris%20%28Field-Tested%29'
p759
sg13
S'CZ75-Auto'
p760
sg15
I915
sg16
F0.40000000000000002
sg17
g18
sg19
g57
sba(i__main__
skin
p761
(dp762
g6
I00
sg7
S'Breakout'
p763
sg8
F0.45000000000000001
sg9
S'Koi'
p764
sg11
S'http://steamcommunity.com/market/priceoverview/?currency=13&appid=730&market_hash_name=Nova%20%7C%20Koi%20%28Field-Tested%29'
p765
sg13
S'Nova'
p766
sg15
I185
sg16
F0.41999999999999998
sg17
g18
sg19
g57
sba(i__main__
skin
p767
(dp768
g6
I00
sg7
S'Breakout'
p769
sg8
F0.40999999999999998
sg9
S'Supernova'
p770
sg11
S'http://steamcommunity.com/market/priceoverview/?currency=13&appid=730&market_hash_name=P250%20%7C%20Supernova%20%28Field-Tested%29'
p771
sg13
S'P250'
p772
sg15
I757
sg16
F0.40000000000000002
sg17
g18
sg19
g57
sba(i__main__
skin
p773
(dp774
g6
I00
sg7
S'Breakout'
p775
sg8
F2.0699999999999998
sg9
S'Conspiracy'
p776
sg11
S'http://steamcommunity.com/market/priceoverview/?currency=13&appid=730&market_hash_name=Desert Eagle%20%7C%20Conspiracy%20%28Field-Tested%29'
p777
sg13
S'Desert Eagle'
p778
sg15
I185
sg16
F2.04
sg17
g82
sg19
g83
sba(i__main__
skin
p779
(dp780
g6
I00
sg7
S'Breakout'
p781
sg8
F1.6599999999999999
sg9
S'Fowl Play'
p782
sg11
S'http://steamcommunity.com/market/priceoverview/?currency=13&appid=730&market_hash_name=Five-SeveN%20%7C%20Fowl%20Play%20%28Field-Tested%29'
p783
sg13
S'Five-SeveN'
p784
sg15
I440
sg16
F1.55
sg17
g82
sg19
g83
sba(i__main__
skin
p785
(dp786
g6
I00
sg7
S'Breakout'
p787
sg8
F3.3199999999999998
sg9
S'Water Elemental'
p788
sg11
S'http://steamcommunity.com/market/priceoverview/?currency=13&appid=730&market_hash_name=Glock-18%20%7C%20Water%20Elemental%20%28Field-Tested%29'
p789
sg13
S'Glock-18'
p790
sg15
I0
sg16
F3.3999999999999999
sg17
g82
sg19
g83
sba(i__main__
skin
p791
(dp792
g6
I00
sg7
S'Breakout'
p793
sg9
S'Asiimov'
p794
sg11
S'http://steamcommunity.com/market/priceoverview/?currency=13&appid=730&market_hash_name=P90%20%7C%20Asiimov%20%28Field-Tested%29'
p795
sg13
S'P90'
p796
sg17
g18
sg19
g102
sba(i__main__
skin
p797
(dp798
g6
I00
sg7
S'Breakout'
p799
sg9
S'Cyrex'
p800
sg11
S'http://steamcommunity.com/market/priceoverview/?currency=13&appid=730&market_hash_name=M4A1-S%20%7C%20Cyrex%20%28Field-Tested%29'
p801
sg13
S'M4A1-S'
p802
sg17
g18
sg19
g102
sbasS'Rising Sun'
p803
(lp804
(i__main__
skin
p805
(dp806
g6
I00
sg7
g803
sg8
F0.16
sg9
S'Bamboo Print'
p807
sg11
S'http://steamcommunity.com/market/priceoverview/?currency=13&appid=730&market_hash_name=PP-Bizon%20%7C%20Bamboo%20Print%20%28Field-Tested%29'
p808
sg13
S'PP-Bizon'
p809
sg15
I151
sg16
F0.14999999999999999
sg17
g18
sg19
g383
sba(i__main__
skin
p810
(dp811
g6
I00
sg7
S'Rising Sun'
p812
sg8
F0.14999999999999999
sg9
S'Bamboo Shadow'
p813
sg11
S'http://steamcommunity.com/market/priceoverview/?currency=13&appid=730&market_hash_name=Sawed-Off%20%7C%20Bamboo%20Shadow%20%28Field-Tested%29'
p814
sg13
S'Sawed-Off'
p815
sg15
I112
sg16
F0.14999999999999999
sg17
g18
sg19
g383
sba(i__main__
skin
p816
(dp817
g6
I00
sg7
S'Rising Sun'
p818
sg8
F0.27000000000000002
sg9
S'Bamboo Forest'
p819
sg11
S'http://steamcommunity.com/market/priceoverview/?currency=13&appid=730&market_hash_name=Tec-9%20%7C%20Bamboo%20Forest%20%28Field-Tested%29'
p820
sg13
S'Tec-9'
p821
sg15
I0
sg16
F0.27000000000000002
sg17
g18
sg19
g383
sba(i__main__
skin
p822
(dp823
g6
I00
sg7
S'Rising Sun'
p824
sg8
F0.16
sg9
S'Orange Kimono'
p825
sg11
S'http://steamcommunity.com/market/priceoverview/?currency=13&appid=730&market_hash_name=G3SG1%20%7C%20Orange%20Kimono%20%28Field-Tested%29'
p826
sg13
S'G3SG1'
p827
sg15
I276
sg16
F0.16
sg17
g18
sg19
g383
sba(i__main__
skin
p828
(dp829
g6
I00
sg7
S'Rising Sun'
p830
sg8
F0.17000000000000001
sg9
S'Mint Kimono'
p831
sg11
S'http://steamcommunity.com/market/priceoverview/?currency=13&appid=730&market_hash_name=P250%20%7C%20Mint%20Kimono%20%28Field-Tested%29'
p832
sg13
S'P250'
p833
sg15
I267
sg16
F0.14999999999999999
sg17
g18
sg19
g383
sba(i__main__
skin
p834
(dp835
g6
I00
sg7
S'Rising Sun'
p836
sg8
F0.75
sg9
S'Crimson Kimono'
p837
sg11
S'http://steamcommunity.com/market/priceoverview/?currency=13&appid=730&market_hash_name=P250%20%7C%20Crimson%20Kimono%20%28Field-Tested%29'
p838
sg13
S'P250'
p839
sg15
I126
sg16
F0.75
sg17
g18
sg19
g346
sba(i__main__
skin
p840
(dp841
g6
I00
sg7
S'Rising Sun'
p842
sg8
F0.79000000000000004
sg9
S'Midnight Storm'
p843
sg11
S'http://steamcommunity.com/market/priceoverview/?currency=13&appid=730&market_hash_name=Desert Eagle%20%7C%20Midnight%20Storm%20%28Field-Tested%29'
p844
sg13
S'Desert Eagle'
p845
sg15
I523
sg16
F0.80000000000000004
sg17
g18
sg19
g346
sba(i__main__
skin
p846
(dp847
g6
I00
sg7
S'Rising Sun'
p848
sg8
F4.9299999999999997
sg9
S'Aqua Terrace'
p849
sg11
S'http://steamcommunity.com/market/priceoverview/?currency=13&appid=730&market_hash_name=Galil AR%20%7C%20Aqua%20Terrace%20%28Field-Tested%29'
p850
sg13
S'Galil AR'
p851
sg15
I1
sg16
F6.7400000000000002
sg17
g18
sg19
g20
sba(i__main__
skin
p852
(dp853
g6
I00
sg7
S'Rising Sun'
p854
sg8
F6.0700000000000003
sg9
S'Counter Terrace'
p855
sg11
S'http://steamcommunity.com/market/priceoverview/?currency=13&appid=730&market_hash_name=MAG-7%20%7C%20Counter%20Terrace%20%28Field-Tested%29'
p856
sg13
S'MAG-7'
p857
sg15
I7
sg16
F6.3700000000000001
sg17
g18
sg19
g20
sba(i__main__
skin
p858
(dp859
g6
I00
sg7
S'Rising Sun'
p860
sg8
F5.9699999999999998
sg9
S'Terrace'
p861
sg11
S'http://steamcommunity.com/market/priceoverview/?currency=13&appid=730&market_hash_name=Tec-9%20%7C%20Terrace%20%28Field-Tested%29'
p862
sg13
S'Tec-9'
p863
sg15
I12
sg16
F6.5700000000000003
sg17
g18
sg19
g20
sba(i__main__
skin
p864
(dp865
g6
I00
sg7
S'Rising Sun'
p866
sg8
F21.309999999999999
sg9
S'Neon Kimono'
p867
sg11
S'http://steamcommunity.com/market/priceoverview/?currency=13&appid=730&market_hash_name=Five-SeveN%20%7C%20Neon%20Kimono%20%28Field-Tested%29'
p868
sg13
S'Five-SeveN'
p869
sg15
I6
sg16
F22.170000000000002
sg17
g18
sg19
g57
sba(i__main__
skin
p870
(dp871
g6
I00
sg7
S'Rising Sun'
p872
sg8
I-1
sg9
S'Sunset Storm \xe5\xa3\xb1'
p873
sg11
S'http://steamcommunity.com/market/priceoverview/?currency=13&appid=730&market_hash_name=Desert Eagle%20%7C%20Sunset%20Storm%20%E5%A3%B1%20%28Field-Tested%29'
p874
sg13
S'Desert Eagle'
p875
sg15
I0
sg16
F21.050000000000001
sg17
g18
sg19
g57
sba(i__main__
skin
p876
(dp877
g6
I00
sg7
S'Rising Sun'
p878
sg8
F18.91
sg9
S'Sunset Storm \xe5\xbc\x90'
p879
sg11
S'http://steamcommunity.com/market/priceoverview/?currency=13&appid=730&market_hash_name=Desert Eagle%20%7C%20Sunset%20Storm%20%E5%BC%90%20%28Field-Tested%29'
p880
sg13
S'Desert Eagle'
p881
sg15
I2
sg16
F20.120000000000001
sg17
g18
sg19
g57
sba(i__main__
skin
p882
(dp883
g6
I00
sg7
S'Rising Sun'
p884
sg8
F19.109999999999999
sg9
S'Daybreak'
p885
sg11
S'http://steamcommunity.com/market/priceoverview/?currency=13&appid=730&market_hash_name=M4A4%20%7C%20Daybreak%20%28Field-Tested%29'
p886
sg13
S'M4A4'
p887
sg15
I17
sg16
F20.899999999999999
sg17
g18
sg19
g57
sba(i__main__
skin
p888
(dp889
g6
I00
sg7
S'Rising Sun'
p890
sg9
S'Akihabara Accept'
p891
sg11
S'http://steamcommunity.com/market/priceoverview/?currency=13&appid=730&market_hash_name=AUG%20%7C%20Akihabara%20Accept%20%28Factory%20New%29'
p892
sg13
S'AUG'
p893
sg17
S'Factory%20New'
p894
sg19
g102
sba(i__main__
skin
p895
(dp896
g6
I00
sg7
S'Rising Sun'
p897
sg8
F96.329999999999998
sg9
S'Hydroponic'
p898
sg11
S'http://steamcommunity.com/market/priceoverview/?currency=13&appid=730&market_hash_name=AK-47%20%7C%20Hydroponic%20%28Field-Tested%29'
p899
sg13
S'AK-47'
p900
sg15
I16
sg16
F89.290000000000006
sg17
g82
sg19
g83
sbasS'Inferno'
p901
(lp902
(i__main__
skin
p903
(dp904
g6
I00
sg7
g901
sg8
F0.68000000000000005
sg9
S'Brass'
p905
sg11
S'http://steamcommunity.com/market/priceoverview/?currency=13&appid=730&market_hash_name=Tec-9%20%7C%20Brass%20%28Field-Tested%29'
p906
sg13
S'Tec-9'
p907
sg15
I117
sg16
F0.69999999999999996
sg17
g18
sg19
g20
sba(i__main__
skin
p908
(dp909
g6
I00
sg7
S'Inferno'
p910
sg9
S'Anodized Navy'
p911
sg11
S'http://steamcommunity.com/market/priceoverview/?currency=13&appid=730&market_hash_name=Dual Berettas%20%7C%20Anodized%20Navy%20%28Field-Tested%29'
p912
sg13
S'Dual Berettas'
p913
sg17
g18
sg19
g20
sba(i__main__
skin
p914
(dp915
g6
I00
sg7
S'Inferno'
p916
sg8
F0.55000000000000004
sg9
S'Tornado'
p917
sg11
S'http://steamcommunity.com/market/priceoverview/?currency=13&appid=730&market_hash_name=M4A4%20%7C%20Tornado%20%28Field-Tested%29'
p918
sg13
S'M4A4'
p919
sg15
I285
sg16
F0.58999999999999997
sg17
g18
sg19
g346
sba(i__main__
skin
p920
(dp921
g6
I00
sg7
S'Inferno'
p922
sg8
F0.19
sg9
S'Gunsmoke'
p923
sg11
S'http://steamcommunity.com/market/priceoverview/?currency=13&appid=730&market_hash_name=P250%20%7C%20Gunsmoke%20%28Field-Tested%29'
p924
sg13
S'P250'
p925
sg15
I127
sg16
F0.20999999999999999
sg17
g18
sg19
g346
sba(i__main__
skin
p926
(dp927
g6
I00
sg7
S'Inferno'
p928
sg8
F0.20000000000000001
sg9
S'Walnut'
p929
sg11
S'http://steamcommunity.com/market/priceoverview/?currency=13&appid=730&market_hash_name=Nova%20%7C%20Walnut%20%28Field-Tested%29'
p930
sg13
S'Nova'
p931
sg15
I95
sg16
F0.20000000000000001
sg17
g18
sg19
g383
sba(i__main__
skin
p932
(dp933
g6
I00
sg7
S'Inferno'
p934
sg8
F0.17000000000000001
sg9
S'Sand Dune'
p935
sg11
S'http://steamcommunity.com/market/priceoverview/?currency=13&appid=730&market_hash_name=MAG-7%20%7C%20Sand%20Dune%20%28Field-Tested%29'
p936
sg13
S'MAG-7'
p937
sg15
I32
sg16
F0.20000000000000001
sg17
g18
sg19
g383
sbasS'Shadow Case'
p938
(lp939
(i__main__
skin
p940
(dp941
g6
I00
sg7
g938
sg8
F0.13
sg9
S'Dualing Dragons'
p942
sg11
S'http://steamcommunity.com/market/priceoverview/?currency=13&appid=730&market_hash_name=Dual Berettas%20%7C%20Dualing%20Dragons%20%28Field-Tested%29'
p943
sg13
S'Dual Berettas'
p944
sg15
I0
sg16
F0.13
sg17
g18
sg19
g20
sba(i__main__
skin
p945
(dp946
g6
I00
sg7
S'Shadow Case'
p947
sg8
F0.13
sg9
S'Survivor Z'
p948
sg11
S'http://steamcommunity.com/market/priceoverview/?currency=13&appid=730&market_hash_name=FAMAS%20%7C%20Survivor%20Z%20%28Field-Tested%29'
p949
sg13
S'FAMAS'
p950
sg15
I0
sg16
F0.13
sg17
g18
sg19
g20
sba(i__main__
skin
p951
(dp952
g6
I00
sg7
S'Shadow Case'
p953
sg8
F0.12
sg9
S'Wraiths'
p954
sg11
S'http://steamcommunity.com/market/priceoverview/?currency=13&appid=730&market_hash_name=Glock-18%20%7C%20Wraiths%20%28Field-Tested%29'
p955
sg13
S'Glock-18'
p956
sg15
I0
sg16
F0.12
sg17
g18
sg19
g20
sba(i__main__
skin
p957
(dp958
g6
I00
sg7
S'Shadow Case'
p959
sg8
F0.11
sg9
S'Rangeen'
p960
sg11
S'http://steamcommunity.com/market/priceoverview/?currency=13&appid=730&market_hash_name=MAC-10%20%7C%20Rangeen%20%28Field-Tested%29'
p961
sg13
S'MAC-10'
p962
sg15
I894
sg16
F0.12
sg17
g18
sg19
g20
sba(i__main__
skin
p963
(dp964
g6
I00
sg7
S'Shadow Case'
p965
sg8
F0.11
sg9
S'Cobalt Core'
p966
sg11
S'http://steamcommunity.com/market/priceoverview/?currency=13&appid=730&market_hash_name=MAG-7%20%7C%20Cobalt%20Core%20%28Field-Tested%29'
p967
sg13
S'MAG-7'
p968
sg15
I0
sg16
F0.12
sg17
g18
sg19
g20
sba(i__main__
skin
p969
(dp970
g6
I00
sg7
S'Shadow Case'
p971
sg8
F0.11
sg9
S'Green Marine'
p972
sg11
S'http://steamcommunity.com/market/priceoverview/?currency=13&appid=730&market_hash_name=SCAR-20%20%7C%20Green%20Marine%20%28Field-Tested%29'
p973
sg13
S'SCAR-20'
p974
sg15
I0
sg16
F0.12
sg17
g18
sg19
g20
sba(i__main__
skin
p975
(dp976
g6
I00
sg7
S'Shadow Case'
p977
sg8
F0.11
sg9
S'Scumbria'
p978
sg11
S'http://steamcommunity.com/market/priceoverview/?currency=13&appid=730&market_hash_name=XM1014%20%7C%20Scumbria%20%28Field-Tested%29'
p979
sg13
S'XM1014'
p980
sg15
I766
sg16
F0.12
sg17
g18
sg19
g20
sba(i__main__
skin
p981
(dp982
g6
I00
sg7
S'Shadow Case'
p983
sg8
F0.70999999999999996
sg9
S'Stone Cold'
p984
sg11
S'http://steamcommunity.com/market/priceoverview/?currency=13&appid=730&market_hash_name=Galil AR%20%7C%20Stone%20Cold%20%28Field-Tested%29'
p985
sg13
S'Galil AR'
p986
sg15
I0
sg16
F0.72999999999999998
sg17
g18
sg19
g57
sba(i__main__
skin
p987
(dp988
g6
I00
sg7
S'Shadow Case'
p989
sg8
F0.68999999999999995
sg9
S'Nebula Crusader'
p990
sg11
S'http://steamcommunity.com/market/priceoverview/?currency=13&appid=730&market_hash_name=M249%20%7C%20Nebula%20Crusader%20%28Field-Tested%29'
p991
sg13
S'M249'
p992
sg15
I873
sg16
F0.70999999999999996
sg17
g18
sg19
g57
sba(i__main__
skin
p993
(dp994
g6
I00
sg7
S'Shadow Case'
p995
sg8
F0.68999999999999995
sg9
S'Special Delivery'
p996
sg11
S'http://steamcommunity.com/market/priceoverview/?currency=13&appid=730&market_hash_name=MP7%20%7C%20Special%20Delivery%20%28Field-Tested%29'
p997
sg13
S'MP7'
p998
sg15
I739
sg16
F0.70999999999999996
sg17
g18
sg19
g57
sba(i__main__
skin
p999
(dp1000
g6
I00
sg7
S'Shadow Case'
p1001
sg8
F0.69999999999999996
sg9
S'Wingshot'
p1002
sg11
S'http://steamcommunity.com/market/priceoverview/?currency=13&appid=730&market_hash_name=P250%20%7C%20Wingshot%20%28Field-Tested%29'
p1003
sg13
S'P250'
p1004
sg15
I0
sg16
F0.70999999999999996
sg17
g18
sg19
g57
sba(i__main__
skin
p1005
(dp1006
g6
I00
sg7
S'Shadow Case'
p1007
sg8
F12.699999999999999
sg9
S'Frontside Misty'
p1008
sg11
S'http://steamcommunity.com/market/priceoverview/?currency=13&appid=730&market_hash_name=AK-47%20%7C%20Frontside%20Misty%20%28Field-Tested%29'
p1009
sg13
S'AK-47'
p1010
sg15
I0
sg16
F12.140000000000001
sg17
g82
sg19
g83
sba(i__main__
skin
p1011
(dp1012
g6
I00
sg7
S'Shadow Case'
p1013
sg8
F3.0800000000000001
sg9
S'Flux'
p1014
sg11
S'http://steamcommunity.com/market/priceoverview/?currency=13&appid=730&market_hash_name=G3SG1%20%7C%20Flux%20%28Field-Tested%29'
p1015
sg13
S'G3SG1'
p1016
sg15
I413
sg16
F2.8700000000000001
sg17
g82
sg19
g83
sba(i__main__
skin
p1017
(dp1018
g6
I00
sg7
S'Shadow Case'
p1019
sg8
F3.48
sg9
S'Big Iron'
p1020
sg11
S'http://steamcommunity.com/market/priceoverview/?currency=13&appid=730&market_hash_name=SSG 08%20%7C%20Big%20Iron%20%28Field-Tested%29'
p1021
sg13
S'SSG 08'
p1022
sg15
I444
sg16
F3.48
sg17
g82
sg19
g83
sba(i__main__
skin
p1023
(dp1024
g6
I00
sg7
S'Shadow Case'
p1025
sg9
S'Golden Coil'
p1026
sg11
S'http://steamcommunity.com/market/priceoverview/?currency=13&appid=730&market_hash_name=M4A1-S%20%7C%20Golden%20Coil%20%28Field-Tested%29'
p1027
sg13
S'M4A1-S'
p1028
sg17
g18
sg19
g102
sba(i__main__
skin
p1029
(dp1030
g6
I00
sg7
S'Shadow Case'
p1031
sg9
S'Kill Confirmed'
p1032
sg11
S'http://steamcommunity.com/market/priceoverview/?currency=13&appid=730&market_hash_name=USP-S%20%7C%20Kill%20Confirmed%20%28Field-Tested%29'
p1033
sg13
S'USP-S'
p1034
sg17
g18
sg19
g102
sbasS'eSports 2013'
p1035
(lp1036
(i__main__
skin
p1037
(dp1038
g6
I00
sg7
g1035
sg8
F0.60999999999999999
sg9
S'Faded Zebra'
p1039
sg11
S'http://steamcommunity.com/market/priceoverview/?currency=13&appid=730&market_hash_name=M4A4%20%7C%20Faded%20Zebra%20%28Field-Tested%29'
p1040
sg13
S'M4A4'
p1041
sg15
I109
sg16
F0.59999999999999998
sg17
g18
sg19
g20
sba(i__main__
skin
p1042
(dp1043
g6
I00
sg7
S'eSports 2013'
p1044
sg8
F0.85999999999999999
sg9
S'Doomkitty'
p1045
sg11
S'http://steamcommunity.com/market/priceoverview/?currency=13&appid=730&market_hash_name=FAMAS%20%7C%20Doomkitty%20%28Field-Tested%29'
p1046
sg13
S'FAMAS'
p1047
sg15
I26
sg16
F0.85999999999999999
sg17
g18
sg19
g20
sba(i__main__
skin
p1048
(dp1049
g6
I00
sg7
S'eSports 2013'
p1050
sg8
F1.25
sg9
S'Memento'
p1051
sg11
S'http://steamcommunity.com/market/priceoverview/?currency=13&appid=730&market_hash_name=MAG-7%20%7C%20Memento%20%28Field-Tested%29'
p1052
sg13
S'MAG-7'
p1053
sg15
I5
sg16
F1.26
sg17
g18
sg19
g20
sba(i__main__
skin
p1054
(dp1055
g6
I00
sg7
S'eSports 2013'
p1056
sg8
F2.6899999999999999
sg9
S'Orange DDPAT'
p1057
sg11
S'http://steamcommunity.com/market/priceoverview/?currency=13&appid=730&market_hash_name=Sawed-Off%20%7C%20Orange%20DDPAT%20%28Field-Tested%29'
p1058
sg13
S'Sawed-Off'
p1059
sg15
I5
sg16
F3.29
sg17
g18
sg19
g57
sba(i__main__
skin
p1060
(dp1061
g6
I00
sg7
S'eSports 2013'
p1062
sg8
F163.03999999999999
sg9
S'Splash'
p1063
sg11
S'http://steamcommunity.com/market/priceoverview/?currency=13&appid=730&market_hash_name=P250%20%7C%20Splash%20%28Field-Tested%29'
p1064
sg13
S'P250'
p1065
sg15
I2
sg16
F4.7800000000000002
sg17
g18
sg19
g57
sba(i__main__
skin
p1066
(dp1067
g6
I00
sg7
S'eSports 2013'
p1068
sg8
F3.23
sg9
S'Orange DDPAT'
p1069
sg11
S'http://steamcommunity.com/market/priceoverview/?currency=13&appid=730&market_hash_name=Galil AR%20%7C%20Orange%20DDPAT%20%28Field-Tested%29'
p1070
sg13
S'Galil AR'
p1071
sg15
I21
sg16
F3.0600000000000001
sg17
g18
sg19
g57
sba(i__main__
skin
p1072
(dp1073
g6
I00
sg7
S'eSports 2013'
p1074
sg8
F6.5
sg9
S'Red Laminate'
p1075
sg11
S'http://steamcommunity.com/market/priceoverview/?currency=13&appid=730&market_hash_name=AK-47%20%7C%20Red%20Laminate%20%28Field-Tested%29'
p1076
sg13
S'AK-47'
p1077
sg15
I257
sg16
F6.5700000000000003
sg17
g82
sg19
g83
sba(i__main__
skin
p1078
(dp1079
g6
I00
sg7
S'eSports 2013'
p1080
sg8
F19.039999999999999
sg9
S'BOOM'
p1081
sg11
S'http://steamcommunity.com/market/priceoverview/?currency=13&appid=730&market_hash_name=AWP%20%7C%20BOOM%20%28Field-Tested%29'
p1082
sg13
S'AWP'
p1083
sg15
I99
sg16
F19.93
sg17
g82
sg19
g83
sba(i__main__
skin
p1084
(dp1085
g6
I00
sg7
S'eSports 2013'
p1086
sg9
S'Death by Kitty'
p1087
sg11
S'http://steamcommunity.com/market/priceoverview/?currency=13&appid=730&market_hash_name=P90%20%7C%20Death%20by%20Kitty%20%28Field-Tested%29'
p1088
sg13
S'P90'
p1089
sg17
g18
sg19
g102
sbasS'Phoenix'
p1090
(lp1091
(i__main__
skin
p1092
(dp1093
g6
I00
sg7
g1090
sg8
F0.12
sg9
S'Corporal'
p1094
sg11
S'http://steamcommunity.com/market/priceoverview/?currency=13&appid=730&market_hash_name=UMP-45%20%7C%20Corporal%20%28Field-Tested%29'
p1095
sg13
S'UMP-45'
p1096
sg15
I0
sg16
F0.12
sg17
g18
sg19
g20
sba(i__main__
skin
p1097
(dp1098
g6
I00
sg7
S'Phoenix'
p1099
sg8
F0.10000000000000001
sg9
S'Terrain'
p1100
sg11
S'http://steamcommunity.com/market/priceoverview/?currency=13&appid=730&market_hash_name=Negev%20%7C%20Terrain%20%28Field-Tested%29'
p1101
sg13
S'Negev'
p1102
sg15
I0
sg16
F0.12
sg17
g18
sg19
g20
sba(i__main__
skin
p1103
(dp1104
g6
I00
sg7
S'Phoenix'
p1105
sg8
F0.11
sg9
S'Sandstorm'
p1106
sg11
S'http://steamcommunity.com/market/priceoverview/?currency=13&appid=730&market_hash_name=Tec-9%20%7C%20Sandstorm%20%28Field-Tested%29'
p1107
sg13
S'Tec-9'
p1108
sg15
I0
sg16
F0.12
sg17
g18
sg19
g20
sba(i__main__
skin
p1109
(dp1110
g6
I00
sg7
S'Phoenix'
p1111
sg8
F0.10000000000000001
sg9
S'Heaven Guard'
p1112
sg11
S'http://steamcommunity.com/market/priceoverview/?currency=13&appid=730&market_hash_name=MAG-7%20%7C%20Heaven%20Guard%20%28Field-Tested%29'
p1113
sg13
S'MAG-7'
p1114
sg15
I0
sg16
F0.12
sg17
g18
sg19
g20
sba(i__main__
skin
p1115
(dp1116
g6
I00
sg7
S'Phoenix'
p1117
sg8
F0.48999999999999999
sg9
S'Heat'
p1118
sg11
S'http://steamcommunity.com/market/priceoverview/?currency=13&appid=730&market_hash_name=MAC-10%20%7C%20Heat%20%28Field-Tested%29'
p1119
sg13
S'MAC-10'
p1120
sg15
I815
sg16
F0.53000000000000003
sg17
g18
sg19
g57
sba(i__main__
skin
p1121
(dp1122
g6
I00
sg7
S'Phoenix'
p1123
sg8
F0.52000000000000002
sg9
S'Pulse'
p1124
sg11
S'http://steamcommunity.com/market/priceoverview/?currency=13&appid=730&market_hash_name=SG 553%20%7C%20Pulse%20%28Field-Tested%29'
p1125
sg13
S'SG 553'
p1126
sg15
I0
sg16
F0.53000000000000003
sg17
g18
sg19
g57
sba(i__main__
skin
p1127
(dp1128
g6
I00
sg7
S'Phoenix'
p1129
sg8
F0.46999999999999997
sg9
S'Sergeant'
p1130
sg11
S'http://steamcommunity.com/market/priceoverview/?currency=13&appid=730&market_hash_name=FAMAS%20%7C%20Sergeant%20%28Field-Tested%29'
p1131
sg13
S'FAMAS'
p1132
sg15
I916
sg16
F0.5
sg17
g18
sg19
g57
sba(i__main__
skin
p1133
(dp1134
g6
I00
sg7
S'Phoenix'
p1135
sg8
F0.65000000000000002
sg9
S'Guardian'
p1136
sg11
S'http://steamcommunity.com/market/priceoverview/?currency=13&appid=730&market_hash_name=USP-S%20%7C%20Guardian%20%28Field-Tested%29'
p1137
sg13
S'USP-S'
p1138
sg15
I0
sg16
F0.70999999999999996
sg17
g18
sg19
g57
sba(i__main__
skin
p1139
(dp1140
g6
I00
sg7
S'Phoenix'
p1141
sg8
F6.2000000000000002
sg9
S'Redline'
p1142
sg11
S'http://steamcommunity.com/market/priceoverview/?currency=13&appid=730&market_hash_name=AK-47%20%7C%20Redline%20%28Field-Tested%29'
p1143
sg13
S'AK-47'
p1144
sg15
I0
sg16
F6
sg17
g82
sg19
g83
sba(i__main__
skin
p1145
(dp1146
g6
I00
sg7
S'Phoenix'
p1147
sg8
F3.02
sg9
S'Trigon'
p1148
sg11
S'http://steamcommunity.com/market/priceoverview/?currency=13&appid=730&market_hash_name=P90%20%7C%20Trigon%20%28Field-Tested%29'
p1149
sg13
S'P90'
p1150
sg15
I614
sg16
F3.0800000000000001
sg17
g82
sg19
g83
sba(i__main__
skin
p1151
(dp1152
g6
I00
sg7
S'Phoenix'
p1153
sg8
F3.6899999999999999
sg9
S'Antique'
p1154
sg11
S'http://steamcommunity.com/market/priceoverview/?currency=13&appid=730&market_hash_name=Nova%20%7C%20Antique%20%28Field-Tested%29'
p1155
sg13
S'Nova'
p1156
sg15
I44
sg16
F4.4100000000000001
sg17
g82
sg19
g83
sba(i__main__
skin
p1157
(dp1158
g6
I00
sg7
S'Phoenix'
p1159
sg9
S'Asiimov'
p1160
sg11
S'http://steamcommunity.com/market/priceoverview/?currency=13&appid=730&market_hash_name=AWP%20%7C%20Asiimov%20%28Field-Tested%29'
p1161
sg13
S'AWP'
p1162
sg17
g18
sg19
g102
sba(i__main__
skin
p1163
(dp1164
g6
I00
sg7
S'Phoenix'
p1165
sg9
S'Chameleon'
p1166
sg11
S'http://steamcommunity.com/market/priceoverview/?currency=13&appid=730&market_hash_name=AUG%20%7C%20Chameleon%20%28Field-Tested%29'
p1167
sg13
S'AUG'
p1168
sg17
g18
sg19
g102
sbasS'Huntsman'
p1169
(lp1170
(i__main__
skin
p1171
(dp1172
g6
I00
sg7
g1169
sg8
F0.45000000000000001
sg9
S'Isaac'
p1173
sg11
S'http://steamcommunity.com/market/priceoverview/?currency=13&appid=730&market_hash_name=Tec-9%20%7C%20Isaac%20%28Field-Tested%29'
p1174
sg13
S'Tec-9'
p1175
sg15
I958
sg16
F0.42999999999999999
sg17
g18
sg19
g20
sba(i__main__
skin
p1176
(dp1177
g6
I00
sg7
S'Huntsman'
p1178
sg8
F0.25
sg9
S'Slashed'
p1179
sg11
S'http://steamcommunity.com/market/priceoverview/?currency=13&appid=730&market_hash_name=SSG 08%20%7C%20Slashed%20%28Field-Tested%29'
p1180
sg13
S'SSG 08'
p1181
sg15
I0
sg16
F0.23999999999999999
sg17
g18
sg19
g20
sba(i__main__
skin
p1182
(dp1183
g6
I00
sg7
S'Huntsman'
p1184
sg9
S'Retribution **'
p1185
sg11
S'http://steamcommunity.com/market/priceoverview/?currency=13&appid=730&market_hash_name=Dual Berettas%20%7C%20Retribution%20%2A%2A%20%28Field-Tested%29'
p1186
sg13
S'Dual Berettas'
p1187
sg17
g18
sg19
g20
sba(i__main__
skin
p1188
(dp1189
g6
I00
sg7
S'Huntsman'
p1190
sg8
F0.13
sg9
S'Kami'
p1191
sg11
S'http://steamcommunity.com/market/priceoverview/?currency=13&appid=730&market_hash_name=Galil AR%20%7C%20Kami%20%28Field-Tested%29'
p1192
sg13
S'Galil AR'
p1193
sg15
I308
sg16
F0.14000000000000001
sg17
g18
sg19
g20
sba(i__main__
skin
p1194
(dp1195
g6
I00
sg7
S'Huntsman'
p1196
sg9
S'Desert Warfare **'
p1197
sg11
S'http://steamcommunity.com/market/priceoverview/?currency=13&appid=730&market_hash_name=P90%20%7C%20Desert%20Warfare%20%2A%2A%20%28Field-Tested%29'
p1198
sg13
S'P90'
p1199
sg17
g18
sg19
g20
sba(i__main__
skin
p1200
(dp1201
g6
I00
sg7
S'Huntsman'
p1202
sg9
S'Poison Dart **'
p1203
sg11
S'http://steamcommunity.com/market/priceoverview/?currency=13&appid=730&market_hash_name=CZ75-Auto%20%7C%20Poison%20Dart%20%2A%2A%20%28Field-Tested%29'
p1204
sg13
S'CZ75-Auto'
p1205
sg17
g18
sg19
g20
sba(i__main__
skin
p1206
(dp1207
g6
I00
sg7
S'Huntsman'
p1208
sg9
S'Twist *'
p1209
sg11
S'http://steamcommunity.com/market/priceoverview/?currency=13&appid=730&market_hash_name=CZ75-Auto%20%7C%20Twist%20%2A%20%28Field-Tested%29'
p1210
sg13
S'CZ75-Auto'
p1211
sg17
g18
sg19
g20
sba(i__main__
skin
p1212
(dp1213
g6
I00
sg7
S'Huntsman'
p1214
sg9
S'Module *'
p1215
sg11
S'http://steamcommunity.com/market/priceoverview/?currency=13&appid=730&market_hash_name=P90%20%7C%20Module%20%2A%20%28Field-Tested%29'
p1216
sg13
S'P90'
p1217
sg17
g18
sg19
g20
sba(i__main__
skin
p1218
(dp1219
g6
I00
sg7
S'Huntsman'
p1220
sg9
S'Pulse *'
p1221
sg11
S'http://steamcommunity.com/market/priceoverview/?currency=13&appid=730&market_hash_name=P2000%20%7C%20Pulse%20%2A%20%28Field-Tested%29'
p1222
sg13
S'P2000'
p1223
sg17
g18
sg19
g20
sba(i__main__
skin
p1224
(dp1225
g6
I00
sg7
S'Huntsman'
p1226
sg8
F0.81000000000000005
sg9
S'Torque'
p1227
sg11
S'http://steamcommunity.com/market/priceoverview/?currency=13&appid=730&market_hash_name=AUG%20%7C%20Torque%20%28Field-Tested%29'
p1228
sg13
S'AUG'
p1229
sg15
I174
sg16
F0.78000000000000003
sg17
g18
sg19
g57
sba(i__main__
skin
p1230
(dp1231
g6
I00
sg7
S'Huntsman'
p1232
sg8
F0.80000000000000004
sg9
S'Antique'
p1233
sg11
S'http://steamcommunity.com/market/priceoverview/?currency=13&appid=730&market_hash_name=PP-Bizon%20%7C%20Antique%20%28Field-Tested%29'
p1234
sg13
S'PP-Bizon'
p1235
sg15
I138
sg16
F0.81999999999999995
sg17
g18
sg19
g57
sba(i__main__
skin
p1236
(dp1237
g6
I00
sg7
S'Huntsman'
p1238
sg8
F0.78000000000000003
sg9
S'Heaven Guard'
p1239
sg11
S'http://steamcommunity.com/market/priceoverview/?currency=13&appid=730&market_hash_name=XM1014%20%7C%20Heaven%20Guard%20%28Field-Tested%29'
p1240
sg13
S'XM1014'
p1241
sg15
I141
sg16
F0.73999999999999999
sg17
g18
sg19
g57
sba(i__main__
skin
p1242
(dp1243
g6
I00
sg7
S'Huntsman'
p1244
sg9
S'Curse **'
p1245
sg11
S'http://steamcommunity.com/market/priceoverview/?currency=13&appid=730&market_hash_name=MAC-10%20%7C%20Curse%20%2A%2A%20%28Field-Tested%29'
p1246
sg13
S'MAC-10'
p1247
sg17
g18
sg19
g57
sba(i__main__
skin
p1248
(dp1249
g6
I00
sg7
S'Huntsman'
p1250
sg9
S'Tatter *'
p1251
sg11
S'http://steamcommunity.com/market/priceoverview/?currency=13&appid=730&market_hash_name=MAC-10%20%7C%20Tatter%20%2A%20%28Field-Tested%29'
p1252
sg13
S'MAC-10'
p1253
sg17
g18
sg19
g57
sba(i__main__
skin
p1254
(dp1255
g6
I00
sg7
S'Huntsman'
p1256
sg8
F3.1000000000000001
sg9
S'Atomic Alloy'
p1257
sg11
S'http://steamcommunity.com/market/priceoverview/?currency=13&appid=730&market_hash_name=M4A1-S%20%7C%20Atomic%20Alloy%20%28Field-Tested%29'
p1258
sg13
S'M4A1-S'
p1259
sg15
I855
sg16
F3.1899999999999999
sg17
g82
sg19
g83
sba(i__main__
skin
p1260
(dp1261
g6
I00
sg7
S'Huntsman'
p1262
sg8
F3.0099999999999998
sg9
S'Cyrex'
p1263
sg11
S'http://steamcommunity.com/market/priceoverview/?currency=13&appid=730&market_hash_name=SCAR-20%20%7C%20Cyrex%20%28Field-Tested%29'
p1264
sg13
S'SCAR-20'
p1265
sg15
I55
sg16
F3.0299999999999998
sg17
g82
sg19
g83
sba(i__main__
skin
p1266
(dp1267
g6
I00
sg7
S'Huntsman'
p1268
sg9
S'Orion **'
p1269
sg11
S'http://steamcommunity.com/market/priceoverview/?currency=13&appid=730&market_hash_name=USP-S%20%7C%20Orion%20%2A%2A%20%28Field-Tested%29'
p1270
sg13
S'USP-S'
p1271
sg17
g82
sg19
g83
sba(i__main__
skin
p1272
(dp1273
g6
I00
sg7
S'Huntsman'
p1274
sg9
S'Caiman *'
p1275
sg11
S'http://steamcommunity.com/market/priceoverview/?currency=13&appid=730&market_hash_name=USP-S%20%7C%20Caiman%20%2A%20%28Field-Tested%29'
p1276
sg13
S'USP-S'
p1277
sg17
g82
sg19
g83
sba(i__main__
skin
p1278
(dp1279
g6
I00
sg7
S'Huntsman'
p1280
sg9
S'Vulcan'
p1281
sg11
S'http://steamcommunity.com/market/priceoverview/?currency=13&appid=730&market_hash_name=AK-47%20%7C%20Vulcan%20%28Field-Tested%29'
p1282
sg13
S'AK-47'
p1283
sg17
g18
sg19
g102
sba(i__main__
skin
p1284
(dp1285
g6
I00
sg7
S'Huntsman'
p1286
sg9
S'Desert-Strike *'
p1287
sg11
S'http://steamcommunity.com/market/priceoverview/?currency=13&appid=730&market_hash_name=M4A4%20%7C%20Desert-Strike%20%2A%20%28Field-Tested%29'
p1288
sg13
S'M4A4'
p1289
sg17
g18
sg19
g102
sba(i__main__
skin
p1290
(dp1291
g6
I00
sg7
S'Huntsman'
p1292
sg9
S'Howl **'
p1293
sg11
S'http://steamcommunity.com/market/priceoverview/?currency=13&appid=730&market_hash_name=M4A4%20%7C%20Howl%20%2A%2A%20%28Field-Tested%29'
p1294
sg13
S'M4A4'
p1295
sg17
g18
sg19
S'Brown'
p1296
sbasS'Cobblestone'
p1297
(lp1298
(i__main__
skin
p1299
(dp1300
g6
I00
sg7
g1297
sg9
S'Dragon Lore'
p1301
sg11
S'http://steamcommunity.com/market/priceoverview/?currency=13&appid=730&market_hash_name=AWP%20%7C%20Dragon%20Lore%20%28Factory%20New%29'
p1302
sg13
S'AWP'
p1303
sg17
S'Factory%20New'
p1304
sg19
g102
sba(i__main__
skin
p1305
(dp1306
g6
I00
sg7
S'Cobblestone'
p1307
sg9
S'Knight'
p1308
sg11
S'http://steamcommunity.com/market/priceoverview/?currency=13&appid=730&market_hash_name=M4A1-S%20%7C%20Knight%20%28Field-Tested%29'
p1309
sg13
S'M4A1-S'
p1310
sg17
g82
sg19
g83
sba(i__main__
skin
p1311
(dp1312
g6
I00
sg7
S'Cobblestone'
p1313
sg9
S'Chalice'
p1314
sg11
S'http://steamcommunity.com/market/priceoverview/?currency=13&appid=730&market_hash_name=CZ75-Auto%20%7C%20Chalice%20%28Field-Tested%29'
p1315
sg13
S'CZ75-Auto'
p1316
sg17
g18
sg19
g57
sba(i__main__
skin
p1317
(dp1318
g6
I00
sg7
S'Cobblestone'
p1319
sg8
I-1
sg9
S'Hand Cannon'
p1320
sg11
S'http://steamcommunity.com/market/priceoverview/?currency=13&appid=730&market_hash_name=Desert Eagle%20%7C%20Hand%20Cannon%20%28Field-Tested%29'
p1321
sg13
S'Desert Eagle'
p1322
sg15
I0
sg16
F59.75
sg17
g18
sg19
g57
sba(i__main__
skin
p1323
(dp1324
g6
I00
sg7
S'Cobblestone'
p1325
sg8
I-1
sg9
S'Dark Age'
p1326
sg11
S'http://steamcommunity.com/market/priceoverview/?currency=13&appid=730&market_hash_name=MP9%20%7C%20Dark%20Age%20%28Field-Tested%29'
p1327
sg13
S'MP9'
p1328
sg15
I0
sg16
F8.5500000000000007
sg17
g18
sg19
g20
sba(i__main__
skin
p1329
(dp1330
g6
I00
sg7
S'Cobblestone'
p1331
sg8
F9.6899999999999995
sg9
S'Chainmail'
p1332
sg11
S'http://steamcommunity.com/market/priceoverview/?currency=13&appid=730&market_hash_name=P2000%20%7C%20Chainmail%20%28Field-Tested%29'
p1333
sg13
S'P2000'
p1334
sg15
I3
sg16
F10.17
sg17
g18
sg19
g20
sba(i__main__
skin
p1335
(dp1336
g6
I00
sg7
S'Cobblestone'
p1337
sg8
F0.81999999999999995
sg9
S'Rust Coat'
p1338
sg11
S'http://steamcommunity.com/market/priceoverview/?currency=13&appid=730&market_hash_name=Sawed-Off%20%7C%20Rust%20Coat%20%28Field-Tested%29'
p1339
sg13
S'Sawed-Off'
p1340
sg15
I64
sg16
F0.87
sg17
g18
sg19
g346
sba(i__main__
skin
p1341
(dp1342
g6
I00
sg7
S'Cobblestone'
p1343
sg9
S'Silver'
p1344
sg11
S'http://steamcommunity.com/market/priceoverview/?currency=13&appid=730&market_hash_name=MAG-7%20%7C%20Silver%20%28Field-Tested%29'
p1345
sg13
S'MAG-7'
p1346
sg17
g18
sg19
g346
sba(i__main__
skin
p1347
(dp1348
g6
I00
sg7
S'Cobblestone'
p1349
sg8
F0.93999999999999995
sg9
S'Green Apple'
p1350
sg11
S'http://steamcommunity.com/market/priceoverview/?currency=13&appid=730&market_hash_name=Nova%20%7C%20Green%20Apple%20%28Field-Tested%29'
p1351
sg13
S'Nova'
p1352
sg15
I14
sg16
F0.94999999999999996
sg17
g18
sg19
g346
sba(i__main__
skin
p1353
(dp1354
g6
I00
sg7
S'Cobblestone'
p1355
sg8
F0.82999999999999996
sg9
S'Royal Blue'
p1356
sg11
S'http://steamcommunity.com/market/priceoverview/?currency=13&appid=730&market_hash_name=USP-S%20%7C%20Royal%20Blue%20%28Field-Tested%29'
p1357
sg13
S'USP-S'
p1358
sg15
I228
sg16
F0.85999999999999999
sg17
g18
sg19
g346
sba(i__main__
skin
p1359
(dp1360
g6
I00
sg7
S'Cobblestone'
p1361
sg8
F0.14999999999999999
sg9
S'Briar'
p1362
sg11
S'http://steamcommunity.com/market/priceoverview/?currency=13&appid=730&market_hash_name=Dual Berettas%20%7C%20Briar%20%28Field-Tested%29'
p1363
sg13
S'Dual Berettas'
p1364
sg15
I33
sg16
F0.17000000000000001
sg17
g18
sg19
g383
sba(i__main__
skin
p1365
(dp1366
g6
I00
sg7
S'Cobblestone'
p1367
sg8
F0.11
sg9
S'Storm'
p1368
sg11
S'http://steamcommunity.com/market/priceoverview/?currency=13&appid=730&market_hash_name=SCAR-20%20%7C%20Storm%20%28Field-Tested%29'
p1369
sg13
S'SCAR-20'
p1370
sg15
I141
sg16
F0.12
sg17
g18
sg19
g383
sba(i__main__
skin
p1371
(dp1372
g6
I00
sg7
S'Cobblestone'
p1373
sg8
F0.12
sg9
S'Indigo'
p1374
sg11
S'http://steamcommunity.com/market/priceoverview/?currency=13&appid=730&market_hash_name=MAC-10%20%7C%20Indigo%20%28Field-Tested%29'
p1375
sg13
S'MAC-10'
p1376
sg15
I264
sg16
F0.14999999999999999
sg17
g18
sg19
g383
sba(i__main__
skin
p1377
(dp1378
g6
I00
sg7
S'Cobblestone'
p1379
sg8
F0.14000000000000001
sg9
S'Indigo'
p1380
sg11
S'http://steamcommunity.com/market/priceoverview/?currency=13&appid=730&market_hash_name=UMP-45%20%7C%20Indigo%20%28Field-Tested%29'
p1381
sg13
S'UMP-45'
p1382
sg15
I254
sg16
F0.14000000000000001
sg17
g18
sg19
g383
sba(i__main__
skin
p1383
(dp1384
g6
I00
sg7
S'Cobblestone'
p1385
sg8
F0.14000000000000001
sg9
S'Storm'
p1386
sg11
S'http://steamcommunity.com/market/priceoverview/?currency=13&appid=730&market_hash_name=P90%20%7C%20Storm%20%28Field-Tested%29'
p1387
sg13
S'P90'
p1388
sg15
I218
sg16
F0.14999999999999999
sg17
g18
sg19
g383
sbasS'Assault'
p1389
(lp1390
(i__main__
skin
p1391
(dp1392
g6
I00
sg7
g1389
sg9
S'Fade'
p1393
sg11
S'http://steamcommunity.com/market/priceoverview/?currency=13&appid=730&market_hash_name=Glock-18%20%7C%20Fade%20%28Field-Tested%29'
p1394
sg13
S'Glock-18'
p1395
sg17
g18
sg19
g57
sba(i__main__
skin
p1396
(dp1397
g6
I00
sg7
S'Assault'
p1398
sg8
F4.7800000000000002
sg9
S'Bulldozer'
p1399
sg11
S'http://steamcommunity.com/market/priceoverview/?currency=13&appid=730&market_hash_name=MP9%20%7C%20Bulldozer%20%28Field-Tested%29'
p1400
sg13
S'MP9'
p1401
sg15
I14
sg16
F4.96
sg17
g18
sg19
g57
sba(i__main__
skin
p1402
(dp1403
g6
I00
sg7
S'Assault'
p1404
sg9
S'Anodized Navy'
p1405
sg11
S'http://steamcommunity.com/market/priceoverview/?currency=13&appid=730&market_hash_name=Negev%20%7C%20Anodized%20Navy%20%28Field-Tested%29'
p1406
sg13
S'Negev'
p1407
sg17
g18
sg19
g20
sba(i__main__
skin
p1408
(dp1409
g6
I00
sg7
S'Assault'
p1410
sg9
S'Hot Rod'
p1411
sg11
S'http://steamcommunity.com/market/priceoverview/?currency=13&appid=730&market_hash_name=AUG%20%7C%20Hot%20Rod%20%28Field-Tested%29'
p1412
sg13
S'AUG'
p1413
sg17
g18
sg19
g20
sba(i__main__
skin
p1414
(dp1415
g6
I00
sg7
S'Assault'
p1416
sg9
S'Candy Apple *'
p1417
sg11
S'http://steamcommunity.com/market/priceoverview/?currency=13&appid=730&market_hash_name=Five-SeveN%20%7C%20Candy%20Apple%20%2A%20%28Field-Tested%29'
p1418
sg13
S'Five-SeveN'
p1419
sg17
g18
sg19
g346
sba(i__main__
skin
p1420
(dp1421
g6
I00
sg7
S'Assault'
p1422
sg8
F1.27
sg9
S'Caramel'
p1423
sg11
S'http://steamcommunity.com/market/priceoverview/?currency=13&appid=730&market_hash_name=UMP-45%20%7C%20Caramel%20%28Field-Tested%29'
p1424
sg13
S'UMP-45'
p1425
sg15
I34
sg16
F1.28
sg17
g18
sg19
g383
sba(i__main__
skin
p1426
(dp1427
g6
I00
sg7
S'Assault'
p1428
sg8
F1.5
sg9
S'Tornado'
p1429
sg11
S'http://steamcommunity.com/market/priceoverview/?currency=13&appid=730&market_hash_name=SG 553%20%7C%20Tornado%20%28Field-Tested%29'
p1430
sg13
S'SG 553'
p1431
sg15
I31
sg16
F1.3100000000000001
sg17
g18
sg19
g383
sbasS'Train'
p1432
(lp1433
(i__main__
skin
p1434
(dp1435
g6
I00
sg7
g1432
sg8
F0.38
sg9
S'Red Quartz'
p1436
sg11
S'http://steamcommunity.com/market/priceoverview/?currency=13&appid=730&market_hash_name=Tec-9%20%7C%20Red%20Quartz%20%28Field-Tested%29'
p1437
sg13
S'Tec-9'
p1438
sg15
I0
sg16
F0.35999999999999999
sg17
g18
sg19
g57
sba(i__main__
skin
p1439
(dp1440
g6
I00
sg7
S'Train'
p1441
sg8
F0.11
sg9
S'Urban Rubble'
p1442
sg11
S'http://steamcommunity.com/market/priceoverview/?currency=13&appid=730&market_hash_name=Desert Eagle%20%7C%20Urban%20Rubble%20%28Field-Tested%29'
p1443
sg13
S'Desert Eagle'
p1444
sg15
I669
sg16
F0.12
sg17
g18
sg19
g20
sba(i__main__
skin
p1445
(dp1446
g6
I00
sg7
S'Train'
p1447
sg8
F0.12
sg9
S'Amber Fade'
p1448
sg11
S'http://steamcommunity.com/market/priceoverview/?currency=13&appid=730&market_hash_name=Sawed-Off%20%7C%20Amber%20Fade%20%28Field-Tested%29'
p1449
sg13
S'Sawed-Off'
p1450
sg15
I365
sg16
F0.12
sg17
g18
sg19
g20
sba(i__main__
skin
p1451
(dp1452
g6
I00
sg7
S'Train'
p1453
sg9
S'Metallic DDPAT'
p1454
sg11
S'http://steamcommunity.com/market/priceoverview/?currency=13&appid=730&market_hash_name=P250%20%7C%20Metallic%20DDPAT%20%28Field-Tested%29'
p1455
sg13
S'P250'
p1456
sg17
g18
sg19
g346
sba(i__main__
skin
p1457
(dp1458
g6
I00
sg7
S'Train'
p1459
sg9
S'Metallic DDPAT'
p1460
sg11
S'http://steamcommunity.com/market/priceoverview/?currency=13&appid=730&market_hash_name=MAG-7%20%7C%20Metallic%20DDPAT%20%28Field-Tested%29'
p1461
sg13
S'MAG-7'
p1462
sg17
g18
sg19
g346
sba(i__main__
skin
p1463
(dp1464
g6
I00
sg7
S'Train'
p1465
sg9
S'Carbon Fiber'
p1466
sg11
S'http://steamcommunity.com/market/priceoverview/?currency=13&appid=730&market_hash_name=SCAR-20%20%7C%20Carbon%20Fiber%20%28Field-Tested%29'
p1467
sg13
S'SCAR-20'
p1468
sg17
g18
sg19
g346
sba(i__main__
skin
p1469
(dp1470
g6
I00
sg7
S'Train'
p1471
sg8
F0.050000000000000003
sg9
S'Ash Wood'
p1472
sg11
S'http://steamcommunity.com/market/priceoverview/?currency=13&appid=730&market_hash_name=P90%20%7C%20Ash%20Wood%20%28Field-Tested%29'
p1473
sg13
S'P90'
p1474
sg15
I0
sg16
F0.070000000000000007
sg17
g18
sg19
g346
sba(i__main__
skin
p1475
(dp1476
g6
I00
sg7
S'Train'
p1477
sg8
F0.059999999999999998
sg9
S'Candy Apple'
p1478
sg11
S'http://steamcommunity.com/market/priceoverview/?currency=13&appid=730&market_hash_name=MAC-10%20%7C%20Candy%20Apple%20%28Field-Tested%29'
p1479
sg13
S'MAC-10'
p1480
sg15
I444
sg16
F0.070000000000000007
sg17
g18
sg19
g346
sba(i__main__
skin
p1481
(dp1482
g6
I00
sg7
S'Train'
p1483
sg8
F0.089999999999999997
sg9
S'Urban DDPAT'
p1484
sg11
S'http://steamcommunity.com/market/priceoverview/?currency=13&appid=730&market_hash_name=M4A4%20%7C%20Urban%20DDPAT%20%28Field-Tested%29'
p1485
sg13
S'M4A4'
p1486
sg15
I0
sg16
F0.10000000000000001
sg17
g18
sg19
g346
sba(i__main__
skin
p1487
(dp1488
g6
I00
sg7
S'Train'
p1489
sg8
F0.02
sg9
S'Urban DDPAT'
p1490
sg11
S'http://steamcommunity.com/market/priceoverview/?currency=13&appid=730&market_hash_name=UMP-45%20%7C%20Urban%20DDPAT%20%28Field-Tested%29'
p1491
sg13
S'UMP-45'
p1492
sg15
I0
sg16
F0.040000000000000001
sg17
g18
sg19
g383
sba(i__main__
skin
p1493
(dp1494
g6
I00
sg7
S'Train'
p1495
sg8
F0.02
sg9
S'Colony'
p1496
sg11
S'http://steamcommunity.com/market/priceoverview/?currency=13&appid=730&market_hash_name=Dual Berettas%20%7C%20Colony%20%28Field-Tested%29'
p1497
sg13
S'Dual Berettas'
p1498
sg15
I0
sg16
F0.040000000000000001
sg17
g18
sg19
g383
sba(i__main__
skin
p1499
(dp1500
g6
I00
sg7
S'Train'
p1501
sg8
F0.02
sg9
S'Polar Camo'
p1502
sg11
S'http://steamcommunity.com/market/priceoverview/?currency=13&appid=730&market_hash_name=G3SG1%20%7C%20Polar%20Camo%20%28Field-Tested%29'
p1503
sg13
S'G3SG1'
p1504
sg15
I0
sg16
F0.040000000000000001
sg17
g18
sg19
g383
sba(i__main__
skin
p1505
(dp1506
g6
I00
sg7
S'Train'
p1507
sg8
F0.02
sg9
S'Forest Night'
p1508
sg11
S'http://steamcommunity.com/market/priceoverview/?currency=13&appid=730&market_hash_name=Five-SeveN%20%7C%20Forest%20Night%20%28Field-Tested%29'
p1509
sg13
S'Five-SeveN'
p1510
sg15
I0
sg16
F0.040000000000000001
sg17
g18
sg19
g383
sba(i__main__
skin
p1511
(dp1512
g6
I00
sg7
S'Train'
p1513
sg8
F0.02
sg9
S'Polar Mesh'
p1514
sg11
S'http://steamcommunity.com/market/priceoverview/?currency=13&appid=730&market_hash_name=Nova%20%7C%20Polar%20Mesh%20%28Field-Tested%29'
p1515
sg13
S'Nova'
p1516
sg15
I0
sg16
F0.040000000000000001
sg17
g18
sg19
g383
sba(i__main__
skin
p1517
(dp1518
g6
I00
sg7
S'Train'
p1519
sg8
F0.02
sg9
S'Urban Dashed'
p1520
sg11
S'http://steamcommunity.com/market/priceoverview/?currency=13&appid=730&market_hash_name=PP-Bizon%20%7C%20Urban%20Dashed%20%28Field-Tested%29'
p1521
sg13
S'PP-Bizon'
p1522
sg15
I0
sg16
F0.040000000000000001
sg17
g18
sg19
g383
sbasS'Dust'
p1523
(lp1524
(i__main__
skin
p1525
(dp1526
g6
I00
sg7
g1523
sg8
F2.3700000000000001
sg9
S'Brass'
p1527
sg11
S'http://steamcommunity.com/market/priceoverview/?currency=13&appid=730&market_hash_name=Glock-18%20%7C%20Brass%20%28Field-Tested%29'
p1528
sg13
S'Glock-18'
p1529
sg15
I97
sg16
F2.1600000000000001
sg17
g18
sg19
g57
sba(i__main__
skin
p1530
(dp1531
g6
I00
sg7
S'Dust'
p1532
sg9
S'Scorpion'
p1533
sg11
S'http://steamcommunity.com/market/priceoverview/?currency=13&appid=730&market_hash_name=P2000%20%7C%20Scorpion%20%28Field-Tested%29'
p1534
sg13
S'P2000'
p1535
sg17
g18
sg19
g57
sba(i__main__
skin
p1536
(dp1537
g6
I00
sg7
S'Dust'
p1538
sg9
S'Blaze'
p1539
sg11
S'http://steamcommunity.com/market/priceoverview/?currency=13&appid=730&market_hash_name=Desert Eagle%20%7C%20Blaze%20%28Field-Tested%29'
p1540
sg13
S'Desert Eagle'
p1541
sg17
g18
sg19
g57
sba(i__main__
skin
p1542
(dp1543
g6
I00
sg7
S'Dust'
p1544
sg8
F5.3799999999999999
sg9
S'Copper'
p1545
sg11
S'http://steamcommunity.com/market/priceoverview/?currency=13&appid=730&market_hash_name=Sawed-Off%20%7C%20Copper%20%28Field-Tested%29'
p1546
sg13
S'Sawed-Off'
p1547
sg15
I3
sg16
F5.4000000000000004
sg17
g18
sg19
g20
sba(i__main__
skin
p1548
(dp1549
g6
I00
sg7
S'Dust'
p1550
sg8
F5.8600000000000003
sg9
S'Copperhead'
p1551
sg11
S'http://steamcommunity.com/market/priceoverview/?currency=13&appid=730&market_hash_name=AUG%20%7C%20Copperhead%20%28Field-Tested%29'
p1552
sg13
S'AUG'
p1553
sg15
I16
sg16
F6.2400000000000002
sg17
g18
sg19
g20
sba(i__main__
skin
p1554
(dp1555
g6
I00
sg7
S'Dust'
p1556
sg8
F6.1799999999999997
sg9
S'Snake Camo'
p1557
sg11
S'http://steamcommunity.com/market/priceoverview/?currency=13&appid=730&market_hash_name=AWP%20%7C%20Snake%20Camo%20%28Field-Tested%29'
p1558
sg13
S'AWP'
p1559
sg15
I34
sg16
F6.2400000000000002
sg17
g18
sg19
g20
sba(i__main__
skin
p1560
(dp1561
g6
I00
sg7
S'Dust'
p1562
sg8
F0.63
sg9
S'Predator'
p1563
sg11
S'http://steamcommunity.com/market/priceoverview/?currency=13&appid=730&market_hash_name=AK-47%20%7C%20Predator%20%28Field-Tested%29'
p1564
sg13
S'AK-47'
p1565
sg15
I570
sg16
F0.59999999999999998
sg17
g18
sg19
g346
sba(i__main__
skin
p1566
(dp1567
g6
I00
sg7
S'Dust'
p1568
sg8
F0.55000000000000004
sg9
S'Palm'
p1569
sg11
S'http://steamcommunity.com/market/priceoverview/?currency=13&appid=730&market_hash_name=SCAR-20%20%7C%20Palm%20%28Field-Tested%29'
p1570
sg13
S'SCAR-20'
p1571
sg15
I17
sg16
F0.57999999999999996
sg17
g18
sg19
g346
sba(i__main__
skin
p1572
(dp1573
g6
I00
sg7
S'Dust'
p1574
sg8
F0.65000000000000002
sg9
S'Desert Storm'
p1575
sg11
S'http://steamcommunity.com/market/priceoverview/?currency=13&appid=730&market_hash_name=M4A4%20%7C%20Desert%20Storm%20%28Field-Tested%29'
p1576
sg13
S'M4A4'
p1577
sg15
I137
sg16
F0.60999999999999999
sg17
g18
sg19
g346
sbasS'Alpha'
p1578
(lp1579
(i__main__
skin
p1580
(dp1581
g6
I00
sg7
g1578
sg9
S'Emerald'
p1582
sg11
S'http://steamcommunity.com/market/priceoverview/?currency=13&appid=730&market_hash_name=SCAR-20%20%7C%20Emerald%20%28Field-Tested%29'
p1583
sg13
S'SCAR-20'
p1584
sg17
g18
sg19
g57
sba(i__main__
skin
p1585
(dp1586
g6
I00
sg7
S'Alpha'
p1587
sg8
F0.79000000000000004
sg9
S'Mayan Dreams'
p1588
sg11
S'http://steamcommunity.com/market/priceoverview/?currency=13&appid=730&market_hash_name=SSG 08%20%7C%20Mayan%20Dreams%20%28Field-Tested%29'
p1589
sg13
S'SSG 08'
p1590
sg15
I18
sg16
F0.81999999999999995
sg17
g18
sg19
g346
sba(i__main__
skin
p1591
(dp1592
g6
I00
sg7
S'Alpha'
p1593
sg8
F0.89000000000000001
sg9
S'Palm'
p1594
sg11
S'http://steamcommunity.com/market/priceoverview/?currency=13&appid=730&market_hash_name=Negev%20%7C%20Palm%20%28Field-Tested%29'
p1595
sg13
S'Negev'
p1596
sg15
I21
sg16
F0.89000000000000001
sg17
g18
sg19
g346
sba(i__main__
skin
p1597
(dp1598
g6
I00
sg7
S'Alpha'
p1599
sg8
F0.78000000000000003
sg9
S'Mosaico'
p1600
sg11
S'http://steamcommunity.com/market/priceoverview/?currency=13&appid=730&market_hash_name=Sawed-Off%20%7C%20Mosaico%20%28Field-Tested%29'
p1601
sg13
S'Sawed-Off'
p1602
sg15
I9
sg16
F0.81999999999999995
sg17
g18
sg19
g346
sba(i__main__
skin
p1603
(dp1604
g6
I00
sg7
S'Alpha'
p1605
sg8
F0.70999999999999996
sg9
S'Facets'
p1606
sg11
S'http://steamcommunity.com/market/priceoverview/?currency=13&appid=730&market_hash_name=P250%20%7C%20Facets%20%28Field-Tested%29'
p1607
sg13
S'P250'
p1608
sg15
I10
sg16
F0.72999999999999998
sg17
g18
sg19
g346
sba(i__main__
skin
p1609
(dp1610
g6
I00
sg7
S'Alpha'
p1611
sg9
S'Anodized Navy'
p1612
sg11
S'http://steamcommunity.com/market/priceoverview/?currency=13&appid=730&market_hash_name=AUG%20%7C%20Anodized%20Navy%20%28Field-Tested%29'
p1613
sg13
S'AUG'
p1614
sg17
g18
sg19
g20
sba(i__main__
skin
p1615
(dp1616
g6
I00
sg7
S'Alpha'
p1617
sg8
F4.4000000000000004
sg9
S'Hazard'
p1618
sg11
S'http://steamcommunity.com/market/priceoverview/?currency=13&appid=730&market_hash_name=MAG-7%20%7C%20Hazard%20%28Field-Tested%29'
p1619
sg13
S'MAG-7'
p1620
sg15
I1
sg16
F4.54
sg17
g18
sg19
g20
sba(i__main__
skin
p1621
(dp1622
g6
I00
sg7
S'Alpha'
p1623
sg8
F5.1600000000000001
sg9
S'Rust Coat'
p1624
sg11
S'http://steamcommunity.com/market/priceoverview/?currency=13&appid=730&market_hash_name=PP-Bizon%20%7C%20Rust%20Coat%20%28Field-Tested%29'
p1625
sg13
S'PP-Bizon'
p1626
sg15
I1
sg16
F5.1500000000000004
sg17
g18
sg19
g20
sba(i__main__
skin
p1627
(dp1628
g6
I00
sg7
S'Alpha'
p1629
sg8
F7.0899999999999999
sg9
S'Spitfire'
p1630
sg11
S'http://steamcommunity.com/market/priceoverview/?currency=13&appid=730&market_hash_name=FAMAS%20%7C%20Spitfire%20%28Field-Tested%29'
p1631
sg13
S'FAMAS'
p1632
sg15
I14
sg16
F7.0999999999999996
sg17
g18
sg19
g57
sba(i__main__
skin
p1633
(dp1634
g6
I00
sg7
S'Alpha'
p1635
sg8
F0.82999999999999996
sg9
S'Sand Dune'
p1636
sg11
S'http://steamcommunity.com/market/priceoverview/?currency=13&appid=730&market_hash_name=Glock-18%20%7C%20Sand%20Dune%20%28Field-Tested%29'
p1637
sg13
S'Glock-18'
p1638
sg15
I17
sg16
F0.81000000000000005
sg17
g18
sg19
g346
sba(i__main__
skin
p1639
(dp1640
g6
I00
sg7
S'Alpha'
p1641
sg8
F0.28999999999999998
sg9
S'Groundwater'
p1642
sg11
S'http://steamcommunity.com/market/priceoverview/?currency=13&appid=730&market_hash_name=MP7%20%7C%20Groundwater%20%28Field-Tested%29'
p1643
sg13
S'MP7'
p1644
sg15
I23
sg16
F0.32000000000000001
sg17
g18
sg19
g383
sba(i__main__
skin
p1645
(dp1646
g6
I00
sg7
S'Alpha'
p1647
sg8
F0.32000000000000001
sg9
S'Jungle'
p1648
sg11
S'http://steamcommunity.com/market/priceoverview/?currency=13&appid=730&market_hash_name=XM1014%20%7C%20Jungle%20%28Field-Tested%29'
p1649
sg13
S'XM1014'
p1650
sg15
I26
sg16
F0.31
sg17
g18
sg19
g383
sba(i__main__
skin
p1651
(dp1652
g6
I00
sg7
S'Alpha'
p1653
sg9
S'Anodized Gunmetal'
p1654
sg11
S'http://steamcommunity.com/market/priceoverview/?currency=13&appid=730&market_hash_name=Five-SeveN%20%7C%20Anodized%20Gunmetal%20%28Field-Tested%29'
p1655
sg13
S'Five-SeveN'
p1656
sg17
g18
sg19
g383
sba(i__main__
skin
p1657
(dp1658
g6
I00
sg7
S'Alpha'
p1659
sg8
F0.28999999999999998
sg9
S'Dry Season'
p1660
sg11
S'http://steamcommunity.com/market/priceoverview/?currency=13&appid=730&market_hash_name=MP9%20%7C%20Dry%20Season%20%28Field-Tested%29'
p1661
sg13
S'MP9'
p1662
sg15
I20
sg16
F0.26000000000000001
sg17
g18
sg19
g383
sba(i__main__
skin
p1663
(dp1664
g6
I00
sg7
S'Alpha'
p1665
sg8
F0.40999999999999998
sg9
S'Tornado'
p1666
sg11
S'http://steamcommunity.com/market/priceoverview/?currency=13&appid=730&market_hash_name=Tec-9%20%7C%20Tornado%20%28Field-Tested%29'
p1667
sg13
S'Tec-9'
p1668
sg15
I37
sg16
F0.47999999999999998
sg17
g18
sg19
g383
sba(i__main__
skin
p1669
(dp1670
g6
I00
sg7
S'Alpha'
p1671
sg8
F0.19
sg9
S'Jungle DDPAT'
p1672
sg11
S'http://steamcommunity.com/market/priceoverview/?currency=13&appid=730&market_hash_name=M249%20%7C%20Jungle%20DDPAT%20%28Field-Tested%29'
p1673
sg13
S'M249'
p1674
sg15
I4
sg16
F0.25
sg17
g18
sg19
g383
sbasS'Bank'
p1675
(lp1676
(i__main__
skin
p1677
(dp1678
g6
I00
sg7
g1675
sg8
F0.79000000000000004
sg9
S'Franklin'
p1679
sg11
S'http://steamcommunity.com/market/priceoverview/?currency=13&appid=730&market_hash_name=P250%20%7C%20Franklin%20%28Field-Tested%29'
p1680
sg13
S'P250'
p1681
sg15
I0
sg16
F0.82999999999999996
sg17
g117
sg19
g83
sba(i__main__
skin
p1682
(dp1683
g6
I00
sg7
S'Bank'
p1684
sg8
F1.4399999999999999
sg9
S'Emerald Pinstripe'
p1685
sg11
S'http://steamcommunity.com/market/priceoverview/?currency=13&appid=730&market_hash_name=AK-47%20%7C%20Emerald%20Pinstripe%20%28Field-Tested%29'
p1686
sg13
S'AK-47'
p1687
sg15
I0
sg16
F1.46
sg17
g117
sg19
g57
sba(i__main__
skin
p1688
(dp1689
g6
I00
sg7
S'Bank'
p1690
sg8
F0.14000000000000001
sg9
S'Tuxedo'
p1691
sg11
S'http://steamcommunity.com/market/priceoverview/?currency=13&appid=730&market_hash_name=CZ75-Auto%20%7C%20Tuxedo%20%28Field-Tested%29'
p1692
sg13
S'CZ75-Auto'
p1693
sg15
I542
sg16
F0.14999999999999999
sg17
g117
sg19
g20
sba(i__main__
skin
p1694
(dp1695
g6
I00
sg7
S'Bank'
p1696
sg8
F0.35999999999999999
sg9
S'Meteorite'
p1697
sg11
S'http://steamcommunity.com/market/priceoverview/?currency=13&appid=730&market_hash_name=Desert Eagle%20%7C%20Meteorite%20%28Field-Tested%29'
p1698
sg13
S'Desert Eagle'
p1699
sg15
I85
sg16
F0.32000000000000001
sg17
g117
sg19
g20
sba(i__main__
skin
p1700
(dp1701
g6
I00
sg7
S'Bank'
p1702
sg8
F0.14999999999999999
sg9
S'Tuxedo'
p1703
sg11
S'http://steamcommunity.com/market/priceoverview/?currency=13&appid=730&market_hash_name=Galil AR%20%7C%20Tuxedo%20%28Field-Tested%29'
p1704
sg13
S'Galil AR'
p1705
sg15
I467
sg16
F0.14999999999999999
sg17
g117
sg19
g20
sba(i__main__
skin
p1706
(dp1707
g6
I00
sg7
S'Bank'
p1708
sg8
F0.050000000000000003
sg9
S'Green Apple'
p1709
sg11
S'http://steamcommunity.com/market/priceoverview/?currency=13&appid=730&market_hash_name=G3SG1%20%7C%20Green%20Apple%20%28Field-Tested%29'
p1710
sg13
S'G3SG1'
p1711
sg15
I366
sg16
F0.059999999999999998
sg17
g117
sg19
g346
sba(i__main__
skin
p1712
(dp1713
g6
I00
sg7
S'Bank'
p1714
sg8
F0.050000000000000003
sg9
S'Death Rattle'
p1715
sg11
S'http://steamcommunity.com/market/priceoverview/?currency=13&appid=730&market_hash_name=Glock-18%20%7C%20Death%20Rattle%20%28Field-Tested%29'
p1716
sg13
S'Glock-18'
p1717
sg15
I0
sg16
F0.059999999999999998
sg17
g117
sg19
g346
sba(i__main__
skin
p1718
(dp1719
g6
I00
sg7
S'Bank'
p1720
sg9
S'Silver'
p1721
sg11
S'http://steamcommunity.com/market/priceoverview/?currency=13&appid=730&market_hash_name=MAC-10%20%7C%20Silver%20%28Field-Tested%29'
p1722
sg13
S'MAC-10'
p1723
sg17
g117
sg19
g346
sba(i__main__
skin
p1724
(dp1725
g6
I00
sg7
S'Bank'
p1726
sg8
F0.050000000000000003
sg9
S'Caged Steel'
p1727
sg11
S'http://steamcommunity.com/market/priceoverview/?currency=13&appid=730&market_hash_name=Nova%20%7C%20Caged%20Steel%20%28Field-Tested%29'
p1728
sg13
S'Nova'
p1729
sg15
I178
sg16
F0.059999999999999998
sg17
g117
sg19
g346
sba(i__main__
skin
p1730
(dp1731
g6
I00
sg7
S'Bank'
p1732
sg9
S'Carbon Fiber'
p1733
sg11
S'http://steamcommunity.com/market/priceoverview/?currency=13&appid=730&market_hash_name=UMP-45%20%7C%20Carbon%20Fiber%20%28Field-Tested%29'
p1734
sg13
S'UMP-45'
p1735
sg17
g117
sg19
g346
sba(i__main__
skin
p1736
(dp1737
g6
I00
sg7
S'Bank'
p1738
sg8
F0.02
sg9
S'Bone Mask'
p1739
sg11
S'http://steamcommunity.com/market/priceoverview/?currency=13&appid=730&market_hash_name=R8 Revolver%20%7C%20Bone%20Mask%20%28Field-Tested%29'
p1740
sg13
S'R8 Revolver'
p1741
sg15
I0
sg16
F0.040000000000000001
sg17
g117
sg19
g383
sba(i__main__
skin
p1742
(dp1743
g6
I00
sg7
S'Bank'
p1744
sg8
F0.02
sg9
S'Forest DDPAT'
p1745
sg11
S'http://steamcommunity.com/market/priceoverview/?currency=13&appid=730&market_hash_name=MP7%20%7C%20Forest%20DDPAT%20%28Field-Tested%29'
p1746
sg13
S'MP7'
p1747
sg15
I0
sg16
F0.040000000000000001
sg17
g117
sg19
g383
sba(i__main__
skin
p1748
(dp1749
g6
I00
sg7
S'Bank'
p1750
sg8
F0.02
sg9
S'Army Sheen'
p1751
sg11
S'http://steamcommunity.com/market/priceoverview/?currency=13&appid=730&market_hash_name=Negev%20%7C%20Army%20Sheen%20%28Field-Tested%29'
p1752
sg13
S'Negev'
p1753
sg15
I873
sg16
F0.040000000000000001
sg17
g117
sg19
g383
sba(i__main__
skin
p1754
(dp1755
g6
I00
sg7
S'Bank'
p1756
sg8
F0.050000000000000003
sg9
S'Forest DDPAT'
p1757
sg11
S'http://steamcommunity.com/market/priceoverview/?currency=13&appid=730&market_hash_name=Sawed-Off%20%7C%20Forest%20DDPAT%20%28Field-Tested%29'
p1758
sg13
S'Sawed-Off'
p1759
sg15
I0
sg16
F0.040000000000000001
sg17
g117
sg19
g383
sba(i__main__
skin
p1760
(dp1761
g6
I00
sg7
S'Bank'
p1762
sg8
F0.02
sg9
S'Army Sheen'
p1763
sg11
S'http://steamcommunity.com/market/priceoverview/?currency=13&appid=730&market_hash_name=SG 553%20%7C%20Army%20Sheen%20%28Field-Tested%29'
p1764
sg13
S'SG 553'
p1765
sg15
I704
sg16
F0.040000000000000001
sg17
g117
sg19
g383
sba(i__main__
skin
p1766
(dp1767
g6
I00
sg7
S'Bank'
p1768
sg8
F0.02
sg9
S'Urban DDPAT'
p1769
sg11
S'http://steamcommunity.com/market/priceoverview/?currency=13&appid=730&market_hash_name=Tec-9%20%7C%20Urban%20DDPAT%20%28Field-Tested%29'
p1770
sg13
S'Tec-9'
p1771
sg15
I0
sg16
F0.040000000000000001
sg17
g117
sg19
g383
sbasS'Dust 2'
p1772
(lp1773
(i__main__
skin
p1774
(dp1775
g6
I00
sg7
g1772
sg8
F1.23
sg9
S'Amber Fade'
p1776
sg11
S'http://steamcommunity.com/market/priceoverview/?currency=13&appid=730&market_hash_name=R8 Revolver%20%7C%20Amber%20Fade%20%28Field-Tested%29'
p1777
sg13
S'R8 Revolver'
p1778
sg15
I303
sg16
F1.23
sg17
g82
sg19
g83
sba(i__main__
skin
p1779
(dp1780
g6
I00
sg7
S'Dust 2'
p1781
sg8
F0.41999999999999998
sg9
S'Amber Fade'
p1782
sg11
S'http://steamcommunity.com/market/priceoverview/?currency=13&appid=730&market_hash_name=P2000%20%7C%20Amber%20Fade%20%28Field-Tested%29'
p1783
sg13
S'P2000'
p1784
sg15
I322
sg16
F0.42999999999999999
sg17
g18
sg19
g57
sba(i__main__
skin
p1785
(dp1786
g6
I00
sg7
S'Dust 2'
p1787
sg8
F0.12
sg9
S'Damascus Steel'
p1788
sg11
S'http://steamcommunity.com/market/priceoverview/?currency=13&appid=730&market_hash_name=SG 553%20%7C%20Damascus%20Steel%20%28Field-Tested%29'
p1789
sg13
S'SG 553'
p1790
sg15
I454
sg16
F0.12
sg17
g18
sg19
g20
sba(i__main__
skin
p1791
(dp1792
g6
I00
sg7
S'Dust 2'
p1793
sg8
F0.13
sg9
S'Brass'
p1794
sg11
S'http://steamcommunity.com/market/priceoverview/?currency=13&appid=730&market_hash_name=PP-Bizon%20%7C%20Brass%20%28Field-Tested%29'
p1795
sg13
S'PP-Bizon'
p1796
sg15
I543
sg16
F0.13
sg17
g18
sg19
g20
sba(i__main__
skin
p1797
(dp1798
g6
I00
sg7
S'Dust 2'
p1799
sg8
F0.34000000000000002
sg9
S'VariCamo'
p1800
sg11
S'http://steamcommunity.com/market/priceoverview/?currency=13&appid=730&market_hash_name=M4A1-S%20%7C%20VariCamo%20%28Field-Tested%29'
p1801
sg13
S'M4A1-S'
p1802
sg15
I0
sg16
F0.35999999999999999
sg17
g18
sg19
g20
sba(i__main__
skin
p1803
(dp1804
g6
I00
sg7
S'Dust 2'
p1805
sg8
F0.050000000000000003
sg9
S'Snake Camo'
p1806
sg11
S'http://steamcommunity.com/market/priceoverview/?currency=13&appid=730&market_hash_name=Sawed-Off%20%7C%20Snake%20Camo%20%28Field-Tested%29'
p1807
sg13
S'Sawed-Off'
p1808
sg15
I0
sg16
F0.070000000000000007
sg17
g18
sg19
g346
sba(i__main__
skin
p1809
(dp1810
g6
I00
sg7
S'Dust 2'
p1811
sg8
F0.13
sg9
S'Safari Mesh'
p1812
sg11
S'http://steamcommunity.com/market/priceoverview/?currency=13&appid=730&market_hash_name=AK-47%20%7C%20Safari%20Mesh%20%28Field-Tested%29'
p1813
sg13
S'AK-47'
p1814
sg15
I0
sg16
F0.13
sg17
g18
sg19
g346
sba(i__main__
skin
p1815
(dp1816
g6
I00
sg7
S'Dust 2'
p1817
sg8
F0.050000000000000003
sg9
S'Orange Peel'
p1818
sg11
S'http://steamcommunity.com/market/priceoverview/?currency=13&appid=730&market_hash_name=Five-SeveN%20%7C%20Orange%20Peel%20%28Field-Tested%29'
p1819
sg13
S'Five-SeveN'
p1820
sg15
I0
sg16
F0.070000000000000007
sg17
g18
sg19
g346
sba(i__main__
skin
p1821
(dp1822
g6
I00
sg7
S'Dust 2'
p1823
sg8
F0.050000000000000003
sg9
S'Palm'
p1824
sg11
S'http://steamcommunity.com/market/priceoverview/?currency=13&appid=730&market_hash_name=MAC-10%20%7C%20Palm%20%28Field-Tested%29'
p1825
sg13
S'MAC-10'
p1826
sg15
I0
sg16
F0.070000000000000007
sg17
g18
sg19
g346
sba(i__main__
skin
p1827
(dp1828
g6
I00
sg7
S'Dust 2'
p1829
sg8
F0.050000000000000003
sg9
S'VariCamo'
p1830
sg11
S'http://steamcommunity.com/market/priceoverview/?currency=13&appid=730&market_hash_name=Tec-9%20%7C%20VariCamo%20%28Field-Tested%29'
p1831
sg13
S'Tec-9'
p1832
sg15
I0
sg16
F0.070000000000000007
sg17
g18
sg19
g346
sba(i__main__
skin
p1833
(dp1834
g6
I00
sg7
S'Dust 2'
p1835
sg8
F0.02
sg9
S'Desert Storm'
p1836
sg11
S'http://steamcommunity.com/market/priceoverview/?currency=13&appid=730&market_hash_name=G3SG1%20%7C%20Desert%20Storm%20%28Field-Tested%29'
p1837
sg13
S'G3SG1'
p1838
sg15
I0
sg16
F0.040000000000000001
sg17
g18
sg19
g383
sba(i__main__
skin
p1839
(dp1840
g6
I00
sg7
S'Dust 2'
p1841
sg8
F0.029999999999999999
sg9
S'Sand Dune'
p1842
sg11
S'http://steamcommunity.com/market/priceoverview/?currency=13&appid=730&market_hash_name=P250%20%7C%20Sand%20Dune%20%28Field-Tested%29'
p1843
sg13
S'P250'
p1844
sg15
I0
sg16
F0.040000000000000001
sg17
g18
sg19
g383
sba(i__main__
skin
p1845
(dp1846
g6
I00
sg7
S'Dust 2'
p1847
sg8
F0.02
sg9
S'Sand Mesh'
p1848
sg11
S'http://steamcommunity.com/market/priceoverview/?currency=13&appid=730&market_hash_name=SCAR-20%20%7C%20Sand%20Mesh%20%28Field-Tested%29'
p1849
sg13
S'SCAR-20'
p1850
sg15
I0
sg16
F0.040000000000000001
sg17
g18
sg19
g383
sba(i__main__
skin
p1851
(dp1852
g6
I00
sg7
S'Dust 2'
p1853
sg8
F0.02
sg9
S'Sand Spray'
p1854
sg11
S'http://steamcommunity.com/market/priceoverview/?currency=13&appid=730&market_hash_name=P90%20%7C%20Sand%20Spray%20%28Field-Tested%29'
p1855
sg13
S'P90'
p1856
sg15
I0
sg16
F0.040000000000000001
sg17
g18
sg19
g383
sba(i__main__
skin
p1857
(dp1858
g6
I00
sg7
S'Dust 2'
p1859
sg8
F0.02
sg9
S'Sand Dashed'
p1860
sg11
S'http://steamcommunity.com/market/priceoverview/?currency=13&appid=730&market_hash_name=MP9%20%7C%20Sand%20Dashed%20%28Field-Tested%29'
p1861
sg13
S'MP9'
p1862
sg15
I0
sg16
F0.040000000000000001
sg17
g18
sg19
g383
sba(i__main__
skin
p1863
(dp1864
g6
I00
sg7
S'Dust 2'
p1865
sg8
F0.02
sg9
S'Predator'
p1866
sg11
S'http://steamcommunity.com/market/priceoverview/?currency=13&appid=730&market_hash_name=Nova%20%7C%20Predator%20%28Field-Tested%29'
p1867
sg13
S'Nova'
p1868
sg15
I0
sg16
F0.040000000000000001
sg17
g18
sg19
g383
sbasS'Aztec'
p1869
(lp1870
(i__main__
skin
p1871
(dp1872
g6
I00
sg7
g1869
sg9
S'Ossified'
p1873
sg11
S'http://steamcommunity.com/market/priceoverview/?currency=13&appid=730&market_hash_name=Tec-9%20%7C%20Ossified%20%28Field-Tested%29'
p1874
sg13
S'Tec-9'
p1875
sg17
g18
sg19
g20
sba(i__main__
skin
p1876
(dp1877
g6
I00
sg7
S'Aztec'
p1878
sg8
F0.55000000000000004
sg9
S'Jungle Tiger'
p1879
sg11
S'http://steamcommunity.com/market/priceoverview/?currency=13&appid=730&market_hash_name=M4A4%20%7C%20Jungle%20Tiger%20%28Field-Tested%29'
p1880
sg13
S'M4A4'
p1881
sg15
I186
sg16
F0.56999999999999995
sg17
g18
sg19
g346
sba(i__main__
skin
p1882
(dp1883
g6
I00
sg7
S'Aztec'
p1884
sg8
F0.57999999999999996
sg9
S'Jungle Spray'
p1885
sg11
S'http://steamcommunity.com/market/priceoverview/?currency=13&appid=730&market_hash_name=AK-47%20%7C%20Jungle%20Spray%20%28Field-Tested%29'
p1886
sg13
S'AK-47'
p1887
sg15
I274
sg16
F0.58999999999999997
sg17
g18
sg19
g346
sba(i__main__
skin
p1888
(dp1889
g6
I00
sg7
S'Aztec'
p1890
sg8
F0.23000000000000001
sg9
S'Lichen Dashed'
p1891
sg11
S'http://steamcommunity.com/market/priceoverview/?currency=13&appid=730&market_hash_name=SSG 08%20%7C%20Lichen%20Dashed%20%28Field-Tested%29'
p1892
sg13
S'SSG 08'
p1893
sg15
I64
sg16
F0.20000000000000001
sg17
g18
sg19
g383
sba(i__main__
skin
p1894
(dp1895
g6
I00
sg7
S'Aztec'
p1896
sg8
F0.23999999999999999
sg9
S'Jungle'
p1897
sg11
S'http://steamcommunity.com/market/priceoverview/?currency=13&appid=730&market_hash_name=Five-SeveN%20%7C%20Jungle%20%28Field-Tested%29'
p1898
sg13
S'Five-SeveN'
p1899
sg15
I76
sg16
F0.20999999999999999
sg17
g18
sg19
g383
sba(i__main__
skin
p1900
(dp1901
g6
I00
sg7
S'Aztec'
p1902
sg8
F0.27000000000000002
sg9
S'Forest Leaves'
p1903
sg11
S'http://steamcommunity.com/market/priceoverview/?currency=13&appid=730&market_hash_name=Nova%20%7C%20Forest%20Leaves%20%28Field-Tested%29'
p1904
sg13
S'Nova'
p1905
sg15
I26
sg16
F0.27000000000000002
sg17
g18
sg19
g383
sbasS'Arms Deal 3'
p1906
(lp1907
(i__main__
skin
p1908
(dp1909
g6
I00
sg7
g1906
sg8
F0.33000000000000002
sg9
S'Crimson Web'
p1910
sg11
S'http://steamcommunity.com/market/priceoverview/?currency=13&appid=730&market_hash_name=CZ75-Auto%20%7C%20Crimson%20Web%20%28Field-Tested%29'
p1911
sg13
S'CZ75-Auto'
p1912
sg15
I312
sg16
F0.31
sg17
g18
sg19
g20
sba(i__main__
skin
p1913
(dp1914
g6
I00
sg7
S'Arms Deal 3'
p1915
sg8
F0.29999999999999999
sg9
S'Red FragCam'
p1916
sg11
S'http://steamcommunity.com/market/priceoverview/?currency=13&appid=730&market_hash_name=P2000%20%7C%20Red%20FragCam%20%28Field-Tested%29'
p1917
sg13
S'P2000'
p1918
sg15
I113
sg16
F0.28999999999999998
sg17
g18
sg19
g20
sba(i__main__
skin
p1919
(dp1920
g6
I00
sg7
S'Arms Deal 3'
p1921
sg8
F0.33000000000000002
sg9
S'Panther'
p1922
sg11
S'http://steamcommunity.com/market/priceoverview/?currency=13&appid=730&market_hash_name=Dual Berettas%20%7C%20Panther%20%28Field-Tested%29'
p1923
sg13
S'Dual Berettas'
p1924
sg15
I151
sg16
F0.34000000000000002
sg17
g18
sg19
g20
sba(i__main__
skin
p1925
(dp1926
g6
I00
sg7
S'Arms Deal 3'
p1927
sg8
F1.21
sg9
S'Stainless'
p1928
sg11
S'http://steamcommunity.com/market/priceoverview/?currency=13&appid=730&market_hash_name=USP-S%20%7C%20Stainless%20%28Field-Tested%29'
p1929
sg13
S'USP-S'
p1930
sg15
I562
sg16
F1.22
sg17
g18
sg19
g20
sba(i__main__
skin
p1931
(dp1932
g6
I00
sg7
S'Arms Deal 3'
p1933
sg8
F0.54000000000000004
sg9
S'Blue Fissure'
p1934
sg11
S'http://steamcommunity.com/market/priceoverview/?currency=13&appid=730&market_hash_name=Glock-18%20%7C%20Blue%20Fissure%20%28Field-Tested%29'
p1935
sg13
S'Glock-18'
p1936
sg15
I622
sg16
F0.53000000000000003
sg17
g18
sg19
g20
sba(i__main__
skin
p1937
(dp1938
g6
I00
sg7
S'Arms Deal 3'
p1939
sg8
F1.1699999999999999
sg9
S'Tread Plate'
p1940
sg11
S'http://steamcommunity.com/market/priceoverview/?currency=13&appid=730&market_hash_name=CZ75-Auto%20%7C%20Tread%20Plate%20%28Field-Tested%29'
p1941
sg13
S'CZ75-Auto'
p1942
sg15
I4
sg16
F1.1699999999999999
sg17
g18
sg19
g57
sba(i__main__
skin
p1943
(dp1944
g6
I00
sg7
S'Arms Deal 3'
p1945
sg8
F1.3999999999999999
sg9
S'Titanium Bit'
p1946
sg11
S'http://steamcommunity.com/market/priceoverview/?currency=13&appid=730&market_hash_name=Tec-9%20%7C%20Titanium%20Bit%20%28Field-Tested%29'
p1947
sg13
S'Tec-9'
p1948
sg15
I9
sg16
F1.4299999999999999
sg17
g18
sg19
g57
sba(i__main__
skin
p1949
(dp1950
g6
I00
sg7
S'Arms Deal 3'
p1951
sg8
F0.69999999999999996
sg9
S'Heirloom'
p1952
sg11
S'http://steamcommunity.com/market/priceoverview/?currency=13&appid=730&market_hash_name=Desert Eagle%20%7C%20Heirloom%20%28Field-Tested%29'
p1953
sg13
S'Desert Eagle'
p1954
sg15
I244
sg16
F0.76000000000000001
sg17
g18
sg19
g57
sba(i__main__
skin
p1955
(dp1956
g6
I00
sg7
S'Arms Deal 3'
p1957
sg8
F1.8200000000000001
sg9
S'Copper Galaxy'
p1958
sg11
S'http://steamcommunity.com/market/priceoverview/?currency=13&appid=730&market_hash_name=Five-SeveN%20%7C%20Copper%20Galaxy%20%28Field-Tested%29'
p1959
sg13
S'Five-SeveN'
p1960
sg15
I16
sg16
F1.76
sg17
g18
sg19
g57
sba(i__main__
skin
p1961
(dp1962
g6
I00
sg7
S'Arms Deal 3'
p1963
sg8
F2.9399999999999999
sg9
S'The Fuschia Is Now'
p1964
sg11
S'http://steamcommunity.com/market/priceoverview/?currency=13&appid=730&market_hash_name=CZ75-Auto%20%7C%20The%20Fuschia%20Is%20Now%20%28Field-Tested%29'
p1965
sg13
S'CZ75-Auto'
p1966
sg15
I36
sg16
F2.9399999999999999
sg17
g82
sg19
g83
sba(i__main__
skin
p1967
(dp1968
g6
I00
sg7
S'Arms Deal 3'
p1969
sg8
F3.52
sg9
S'Undertow'
p1970
sg11
S'http://steamcommunity.com/market/priceoverview/?currency=13&appid=730&market_hash_name=P250%20%7C%20Undertow%20%28Field-Tested%29'
p1971
sg13
S'P250'
p1972
sg15
I1
sg16
F3.6200000000000001
sg17
g82
sg19
g83
sba(i__main__
skin
p1973
(dp1974
g6
I00
sg7
S'Arms Deal 3'
p1975
sg9
S'Victoria'
p1976
sg11
S'http://steamcommunity.com/market/priceoverview/?currency=13&appid=730&market_hash_name=CZ75-Auto%20%7C%20Victoria%20%28Field-Tested%29'
p1977
sg13
S'CZ75-Auto'
p1978
sg17
g18
sg19
g102
sbasS'Vanguard'
p1979
(lp1980
(i__main__
skin
p1981
(dp1982
g6
I00
sg7
g1979
sg8
F0.31
sg9
S'Murky'
p1983
sg11
S'http://steamcommunity.com/market/priceoverview/?currency=13&appid=730&market_hash_name=G3SG1%20%7C%20Murky%20%28Field-Tested%29'
p1984
sg13
S'G3SG1'
p1985
sg15
I95
sg16
I-1
sg17
g18
sg19
g20
sba(i__main__
skin
p1986
(dp1987
g6
I00
sg7
S'Vanguard'
p1988
sg8
F0.25
sg9
S'Firestarter'
p1989
sg11
S'http://steamcommunity.com/market/priceoverview/?currency=13&appid=730&market_hash_name=MAG-7%20%7C%20Firestarter%20%28Field-Tested%29'
p1990
sg13
S'MAG-7'
p1991
sg15
I182
sg16
F0.25
sg17
g18
sg19
g20
sba(i__main__
skin
p1992
(dp1993
g6
I00
sg7
S'Vanguard'
p1994
sg8
F0.28999999999999998
sg9
S'Dart'
p1995
sg11
S'http://steamcommunity.com/market/priceoverview/?currency=13&appid=730&market_hash_name=MP9%20%7C%20Dart%20%28Field-Tested%29'
p1996
sg13
S'MP9'
p1997
sg15
I158
sg16
F0.27000000000000002
sg17
g18
sg19
g20
sba(i__main__
skin
p1998
(dp1999
g6
I00
sg7
S'Vanguard'
p2000
sg8
F0.71999999999999997
sg9
S'Urban Hazard'
p2001
sg11
S'http://steamcommunity.com/market/priceoverview/?currency=13&appid=730&market_hash_name=Five-SeveN%20%7C%20Urban%20Hazard%20%28Field-Tested%29'
p2002
sg13
S'Five-SeveN'
p2003
sg15
I180
sg16
F0.69999999999999996
sg17
g18
sg19
g20
sba(i__main__
skin
p2004
(dp2005
g6
I00
sg7
S'Vanguard'
p2006
sg8
F0.22
sg9
S'Delusion'
p2007
sg11
S'http://steamcommunity.com/market/priceoverview/?currency=13&appid=730&market_hash_name=UMP-45%20%7C%20Delusion%20%28Field-Tested%29'
p2008
sg13
S'UMP-45'
p2009
sg15
I155
sg16
F0.23000000000000001
sg17
g18
sg19
g20
sba(i__main__
skin
p2010
(dp2011
g6
I00
sg7
S'Vanguard'
p2012
sg8
F0.68000000000000005
sg9
S'Grinder'
p2013
sg11
S'http://steamcommunity.com/market/priceoverview/?currency=13&appid=730&market_hash_name=Glock-18%20%7C%20Grinder%20%28Field-Tested%29'
p2014
sg13
S'Glock-18'
p2015
sg15
I137
sg16
F0.73999999999999999
sg17
g18
sg19
g57
sba(i__main__
skin
p2016
(dp2017
g6
I00
sg7
S'Vanguard'
p2018
sg8
F1.6399999999999999
sg9
S'Basilisk'
p2019
sg11
S'http://steamcommunity.com/market/priceoverview/?currency=13&appid=730&market_hash_name=M4A1-S%20%7C%20Basilisk%20%28Field-Tested%29'
p2020
sg13
S'M4A1-S'
p2021
sg15
I0
sg16
F1.6100000000000001
sg17
g18
sg19
g57
sba(i__main__
skin
p2022
(dp2023
g6
I00
sg7
S'Vanguard'
p2024
sg8
F1.1799999999999999
sg9
S'Griffin'
p2025
sg11
S'http://steamcommunity.com/market/priceoverview/?currency=13&appid=730&market_hash_name=M4A4%20%7C%20Griffin%20%28Field-Tested%29'
p2026
sg13
S'M4A4'
p2027
sg15
I0
sg16
F1.1699999999999999
sg17
g18
sg19
g57
sba(i__main__
skin
p2028
(dp2029
g6
I00
sg7
S'Vanguard'
p2030
sg8
F0.42999999999999999
sg9
S'Highwayman'
p2031
sg11
S'http://steamcommunity.com/market/priceoverview/?currency=13&appid=730&market_hash_name=Sawed-Off%20%7C%20Highwayman%20%28Field-Tested%29'
p2032
sg13
S'Sawed-Off'
p2033
sg15
I108
sg16
F0.5
sg17
g18
sg19
g57
sba(i__main__
skin
p2034
(dp2035
g6
I00
sg7
S'Vanguard'
p2036
sg8
F2.5
sg9
S'Cartel'
p2037
sg11
S'http://steamcommunity.com/market/priceoverview/?currency=13&appid=730&market_hash_name=P250%20%7C%20Cartel%20%28Field-Tested%29'
p2038
sg13
S'P250'
p2039
sg15
I175
sg16
F2.77
sg17
g82
sg19
g83
sba(i__main__
skin
p2040
(dp2041
g6
I00
sg7
S'Vanguard'
p2042
sg8
F2.75
sg9
S'Cardiac'
p2043
sg11
S'http://steamcommunity.com/market/priceoverview/?currency=13&appid=730&market_hash_name=SCAR-20%20%7C%20Cardiac%20%28Field-Tested%29'
p2044
sg13
S'SCAR-20'
p2045
sg15
I129
sg16
F2.6899999999999999
sg17
g82
sg19
g83
sba(i__main__
skin
p2046
(dp2047
g6
I00
sg7
S'Vanguard'
p2048
sg8
F2.46
sg9
S'Tranquility'
p2049
sg11
S'http://steamcommunity.com/market/priceoverview/?currency=13&appid=730&market_hash_name=XM1014%20%7C%20Tranquility%20%28Field-Tested%29'
p2050
sg13
S'XM1014'
p2051
sg15
I47
sg16
F2.71
sg17
g82
sg19
g83
sba(i__main__
skin
p2052
(dp2053
g6
I00
sg7
S'Vanguard'
p2054
sg9
S'Wasteland Rebel'
p2055
sg11
S'http://steamcommunity.com/market/priceoverview/?currency=13&appid=730&market_hash_name=AK-47%20%7C%20Wasteland%20Rebel%20%28Field-Tested%29'
p2056
sg13
S'AK-47'
p2057
sg17
g18
sg19
g102
sba(i__main__
skin
p2058
(dp2059
g6
I00
sg7
S'Vanguard'
p2060
sg9
S'Fire Elemental'
p2061
sg11
S'http://steamcommunity.com/market/priceoverview/?currency=13&appid=730&market_hash_name=P2000%20%7C%20Fire%20Elemental%20%28Field-Tested%29'
p2062
sg13
S'P2000'
p2063
sg17
g18
sg19
g102
sbasS'Militia'
p2064
(lp2065
(i__main__
skin
p2066
(dp2067
g6
I00
sg7
g2064
sg8
F2.6299999999999999
sg9
S'Splash Jam'
p2068
sg11
S'http://steamcommunity.com/market/priceoverview/?currency=13&appid=730&market_hash_name=SCAR-20%20%7C%20Splash%20Jam%20%28Field-Tested%29'
p2069
sg13
S'SCAR-20'
p2070
sg15
I30
sg16
F2.6400000000000001
sg17
g117
sg19
g83
sba(i__main__
skin
p2071
(dp2072
g6
I00
sg7
S'Militia'
p2073
sg9
S'Modern Hunter *'
p2074
sg11
S'http://steamcommunity.com/market/priceoverview/?currency=13&appid=730&market_hash_name=M4A4%20%7C%20Modern%20Hunter%20%2A%20%28Field-Tested%29'
p2075
sg13
S'M4A4'
p2076
sg17
g117
sg19
g57
sba(i__main__
skin
p2077
(dp2078
g6
I00
sg7
S'Militia'
p2079
sg8
F2.3199999999999998
sg9
S'Modern Hunter'
p2080
sg11
S'http://steamcommunity.com/market/priceoverview/?currency=13&appid=730&market_hash_name=PP-Bizon%20%7C%20Modern%20Hunter%20%28Field-Tested%29'
p2081
sg13
S'PP-Bizon'
p2082
sg15
I2
sg16
F2.5299999999999998
sg17
g117
sg19
g20
sba(i__main__
skin
p2083
(dp2084
g6
I00
sg7
S'Militia'
p2085
sg8
F2.0099999999999998
sg9
S'Blaze Orange'
p2086
sg11
S'http://steamcommunity.com/market/priceoverview/?currency=13&appid=730&market_hash_name=XM1014%20%7C%20Blaze%20Orange%20%28Field-Tested%29'
p2087
sg13
S'XM1014'
p2088
sg15
I3
sg16
F2.25
sg17
g117
sg19
g20
sba(i__main__
skin
p2089
(dp2090
g6
I00
sg7
S'Militia'
p2091
sg8
F2.6899999999999999
sg9
S'Modern Hunter'
p2092
sg11
S'http://steamcommunity.com/market/priceoverview/?currency=13&appid=730&market_hash_name=P250%20%7C%20Modern%20Hunter%20%28Field-Tested%29'
p2093
sg13
S'P250'
p2094
sg15
I6
sg16
F2.4199999999999999
sg17
g117
sg19
g20
sba(i__main__
skin
p2095
(dp2096
g6
I00
sg7
S'Militia'
p2097
sg8
F2.54
sg9
S'Blaze Orange'
p2098
sg11
S'http://steamcommunity.com/market/priceoverview/?currency=13&appid=730&market_hash_name=Nova%20%7C%20Blaze%20Orange%20%28Field-Tested%29'
p2099
sg13
S'Nova'
p2100
sg15
I2
sg16
F2.3300000000000001
sg17
g117
sg19
g20
sba(i__main__
skin
p2101
(dp2102
g6
I00
sg7
S'Militia'
p2103
sg8
F2.0899999999999999
sg9
S'Modern Hunter'
p2104
sg11
S'http://steamcommunity.com/market/priceoverview/?currency=13&appid=730&market_hash_name=Nova%20%7C%20Modern%20Hunter%20%28Field-Tested%29'
p2105
sg13
S'Nova'
p2106
sg15
I2
sg16
F2.2000000000000002
sg17
g117
sg19
g20
sba(i__main__
skin
p2107
(dp2108
g6
I00
sg7
S'Militia'
p2109
sg9
S'Grassland Leaves *'
p2110
sg11
S'http://steamcommunity.com/market/priceoverview/?currency=13&appid=730&market_hash_name=P2000%20%7C%20Grassland%20Leaves%20%2A%20%28Field-Tested%29'
p2111
sg13
S'P2000'
p2112
sg17
g117
sg19
g346
sba(i__main__
skin
p2113
(dp2114
g6
I00
sg7
S'Militia'
p2115
sg8
F0.16
sg9
S'Forest Leaves'
p2116
sg11
S'http://steamcommunity.com/market/priceoverview/?currency=13&appid=730&market_hash_name=PP-Bizon%20%7C%20Forest%20Leaves%20%28Field-Tested%29'
p2117
sg13
S'PP-Bizon'
p2118
sg15
I19
sg16
F0.14999999999999999
sg17
g117
sg19
g383
sba(i__main__
skin
p2119
(dp2120
g6
I00
sg7
S'Militia'
p2121
sg8
F0.17000000000000001
sg9
S'Tornado'
p2122
sg11
S'http://steamcommunity.com/market/priceoverview/?currency=13&appid=730&market_hash_name=MAC-10%20%7C%20Tornado%20%28Field-Tested%29'
p2123
sg13
S'MAC-10'
p2124
sg15
I21
sg16
F0.14999999999999999
sg17
g117
sg19
g383
sba(i__main__
skin
p2125
(dp2126
g6
I00
sg7
S'Militia'
p2127
sg8
F0.11
sg9
S'Grassland'
p2128
sg11
S'http://steamcommunity.com/market/priceoverview/?currency=13&appid=730&market_hash_name=XM1014%20%7C%20Grassland%20%28Field-Tested%29'
p2129
sg13
S'XM1014'
p2130
sg15
I54
sg16
F0.16
sg17
g117
sg19
g383
sbasS'Revolver Content'
p2131
(lp2132
(i__main__
skin
p2133
(dp2134
g6
I00
sg7
g2131
sg8
F0.14999999999999999
sg9
S'Crimson Web'
p2135
sg11
S'http://steamcommunity.com/market/priceoverview/?currency=13&appid=730&market_hash_name=R8 Revolver%20%7C%20Crimson%20Web%20%28Field-Tested%29'
p2136
sg13
S'R8 Revolver'
p2137
sg15
I0
sg16
F0.14999999999999999
sg17
g18
sg19
g20
sba(i__main__
skin
p2138
(dp2139
g6
I00
sg7
S'Revolver Content'
p2140
sg8
F0.16
sg9
S'Ricochet'
p2141
sg11
S'http://steamcommunity.com/market/priceoverview/?currency=13&appid=730&market_hash_name=AUG%20%7C%20Ricochet%20%28Field-Tested%29'
p2142
sg13
S'AUG'
p2143
sg15
I0
sg16
F0.16
sg17
g18
sg19
g20
sba(i__main__
skin
p2144
(dp2145
g6
I00
sg7
S'Revolver Content'
p2146
sg8
F0.32000000000000001
sg9
S'Corinthian'
p2147
sg11
S'http://steamcommunity.com/market/priceoverview/?currency=13&appid=730&market_hash_name=Desert Eagle%20%7C%20Corinthian%20%28Field-Tested%29'
p2148
sg13
S'Desert Eagle'
p2149
sg15
I0
sg16
F0.32000000000000001
sg17
g18
sg19
g20
sba(i__main__
skin
p2150
(dp2151
g6
I00
sg7
S'Revolver Content'
p2152
sg8
F0.28999999999999998
sg9
S'Imperial'
p2153
sg11
S'http://steamcommunity.com/market/priceoverview/?currency=13&appid=730&market_hash_name=P2000%20%7C%20Imperial%20%28Field-Tested%29'
p2154
sg13
S'P2000'
p2155
sg15
I365
sg16
F0.26000000000000001
sg17
g18
sg19
g20
sba(i__main__
skin
p2156
(dp2157
g6
I00
sg7
S'Revolver Content'
p2158
sg8
F0.13
sg9
S'Yorick'
p2159
sg11
S'http://steamcommunity.com/market/priceoverview/?currency=13&appid=730&market_hash_name=Sawed-Off%20%7C%20Yorick%20%28Field-Tested%29'
p2160
sg13
S'Sawed-Off'
p2161
sg15
I881
sg16
F0.13
sg17
g18
sg19
g20
sba(i__main__
skin
p2162
(dp2163
g6
I00
sg7
S'Revolver Content'
p2164
sg8
F0.98999999999999999
sg9
S'Fuel Rod'
p2165
sg11
S'http://steamcommunity.com/market/priceoverview/?currency=13&appid=730&market_hash_name=PP-Bizon%20%7C%20Fuel%20Rod%20%28Field-Tested%29'
p2166
sg13
S'PP-Bizon'
p2167
sg15
I405
sg16
F1.03
sg17
g18
sg19
g57
sba(i__main__
skin
p2168
(dp2169
g6
I00
sg7
S'Revolver Content'
p2170
sg8
F1.1200000000000001
sg9
S'Retrobution'
p2171
sg11
S'http://steamcommunity.com/market/priceoverview/?currency=13&appid=730&market_hash_name=Five-SeveN%20%7C%20Retrobution%20%28Field-Tested%29'
p2172
sg13
S'Five-SeveN'
p2173
sg15
I683
sg16
F1.1000000000000001
sg17
g18
sg19
g57
sba(i__main__
skin
p2174
(dp2175
g6
I00
sg7
S'Revolver Content'
p2176
sg8
F0.91000000000000003
sg9
S'Power Loader'
p2177
sg11
S'http://steamcommunity.com/market/priceoverview/?currency=13&appid=730&market_hash_name=Negev%20%7C%20Power%20Loader%20%28Field-Tested%29'
p2178
sg13
S'Negev'
p2179
sg15
I303
sg16
F0.98999999999999999
sg17
g18
sg19
g57
sba(i__main__
skin
p2180
(dp2181
g6
I00
sg7
S'Revolver Content'
p2182
sg8
F0.94999999999999996
sg9
S'Tiger Moth'
p2183
sg11
S'http://steamcommunity.com/market/priceoverview/?currency=13&appid=730&market_hash_name=SG 553%20%7C%20Tiger%20Moth%20%28Field-Tested%29'
p2184
sg13
S'SG 553'
p2185
sg15
I372
sg16
F0.96999999999999997
sg17
g18
sg19
g57
sba(i__main__
skin
p2186
(dp2187
g6
I00
sg7
S'Revolver Content'
p2188
sg8
F2.0600000000000001
sg9
S'Avalanche'
p2189
sg11
S'http://steamcommunity.com/market/priceoverview/?currency=13&appid=730&market_hash_name=Tec-9%20%7C%20Avalanche%20%28Field-Tested%29'
p2190
sg13
S'Tec-9'
p2191
sg15
I616
sg16
F2.1400000000000001
sg17
g18
sg19
g57
sba(i__main__
skin
p2192
(dp2193
g6
I00
sg7
S'Revolver Content'
p2194
sg8
F0.87
sg9
S'Teclu Burner'
p2195
sg11
S'http://steamcommunity.com/market/priceoverview/?currency=13&appid=730&market_hash_name=XM1014%20%7C%20Teclu%20Burner%20%28Field-Tested%29'
p2196
sg13
S'XM1014'
p2197
sg15
I396
sg16
F0.93000000000000005
sg17
g18
sg19
g57
sba(i__main__
skin
p2198
(dp2199
g6
I00
sg7
S'Revolver Content'
p2200
sg8
F15.16
sg9
S'Point Disarray'
p2201
sg11
S'http://steamcommunity.com/market/priceoverview/?currency=13&appid=730&market_hash_name=AK-47%20%7C%20Point%20Disarray%20%28Field-Tested%29'
p2202
sg13
S'AK-47'
p2203
sg15
I537
sg16
F15.130000000000001
sg17
g82
sg19
g83
sba(i__main__
skin
p2204
(dp2205
g6
I00
sg7
S'Revolver Content'
p2206
sg8
F1.8200000000000001
sg9
S'The Executioner'
p2207
sg11
S'http://steamcommunity.com/market/priceoverview/?currency=13&appid=730&market_hash_name=G3SG1%20%7C%20The%20Executioner%20%28Field-Tested%29'
p2208
sg13
S'G3SG1'
p2209
sg15
I281
sg16
F1.8999999999999999
sg17
g82
sg19
g83
sba(i__main__
skin
p2210
(dp2211
g6
I00
sg7
S'Revolver Content'
p2212
sg8
F1.98
sg9
S'Shapewood'
p2213
sg11
S'http://steamcommunity.com/market/priceoverview/?currency=13&appid=730&market_hash_name=P90%20%7C%20Shapewood%20%28Field-Tested%29'
p2214
sg13
S'P90'
p2215
sg15
I374
sg16
F2.04
sg17
g82
sg19
g83
sba(i__main__
skin
p2216
(dp2217
g6
I00
sg7
S'Revolver Content'
p2218
sg9
S'Royal Paladin'
p2219
sg11
S'http://steamcommunity.com/market/priceoverview/?currency=13&appid=730&market_hash_name=M4A4%20%7C%20Royal%20Paladin%20%28Field-Tested%29'
p2220
sg13
S'M4A4'
p2221
sg17
g18
sg19
g102
sba(i__main__
skin
p2222
(dp2223
g6
I00
sg7
S'Revolver Content'
p2224
sg9
S'Fade'
p2225
sg11
S'http://steamcommunity.com/market/priceoverview/?currency=13&appid=730&market_hash_name=R8 Revolver%20%7C%20Fade%20%28Field-Tested%29'
p2226
sg13
S'R8 Revolver'
p2227
sg17
g18
sg19
g102
sbasS'Gods and Monsters'
p2228
(lp2229
(i__main__
skin
p2230
(dp2231
g6
I00
sg7
g2228
sg8
F0.19
sg9
S'Asterion'
p2232
sg11
S'http://steamcommunity.com/market/priceoverview/?currency=13&appid=730&market_hash_name=MP7%20%7C%20Asterion%20%28Field-Tested%29'
p2233
sg13
S'MP7'
p2234
sg15
I774
sg16
F0.17000000000000001
sg17
S'Field-Tested'
p2235
sg19
g383
sba(i__main__
skin
p2236
(dp2237
g6
I00
sg7
S'Gods and Monsters'
p2238
sg8
F0.23000000000000001
sg9
S'Daedalus'
p2239
sg11
S'http://steamcommunity.com/market/priceoverview/?currency=13&appid=730&market_hash_name=AUG%20%7C%20Daedalus%20%28Field-Tested%29'
p2240
sg13
S'AUG'
p2241
sg15
I846
sg16
F0.19
sg17
g2235
sg19
g383
sba(i__main__
skin
p2242
(dp2243
g6
I00
sg7
S'Gods and Monsters'
p2244
sg8
F0.19
sg9
S'Moon in Libra'
p2245
sg11
S'http://steamcommunity.com/market/priceoverview/?currency=13&appid=730&market_hash_name=Dual Berettas%20%7C%20Moon%20in%20Libra%20%28Field-Tested%29'
p2246
sg13
S'Dual Berettas'
p2247
sg15
I704
sg16
F0.17000000000000001
sg17
g2235
sg19
g383
sba(i__main__
skin
p2248
(dp2249
g6
I00
sg7
S'Gods and Monsters'
p2250
sg8
F0.17999999999999999
sg9
S'Moon in Libra'
p2251
sg11
S'http://steamcommunity.com/market/priceoverview/?currency=13&appid=730&market_hash_name=Nova%20%7C%20Moon%20in%20Libra%20%28Field-Tested%29'
p2252
sg13
S'Nova'
p2253
sg15
I783
sg16
F0.19
sg17
g2235
sg19
g383
sba(i__main__
skin
p2254
(dp2255
g6
I00
sg7
S'Gods and Monsters'
p2256
sg8
F0.95999999999999996
sg9
S'Hades'
p2257
sg11
S'http://steamcommunity.com/market/priceoverview/?currency=13&appid=730&market_hash_name=Tec-9%20%7C%20Hades%20%28Field-Tested%29'
p2258
sg13
S'Tec-9'
p2259
sg15
I218
sg16
F1.01
sg17
g2235
sg19
g346
sba(i__main__
skin
p2260
(dp2261
g6
I00
sg7
S'Gods and Monsters'
p2262
sg8
F1.0800000000000001
sg9
S'Pathfinder'
p2263
sg11
S'http://steamcommunity.com/market/priceoverview/?currency=13&appid=730&market_hash_name=P2000%20%7C%20Pathfinder%20%28Field-Tested%29'
p2264
sg13
S'P2000'
p2265
sg15
I134
sg16
F1.04
sg17
g2235
sg19
g346
sba(i__main__
skin
p2266
(dp2267
g6
I00
sg7
S'Gods and Monsters'
p2268
sg8
F3.9900000000000002
sg9
S'Sun in Leo'
p2269
sg11
S'http://steamcommunity.com/market/priceoverview/?currency=13&appid=730&market_hash_name=AWP%20%7C%20Sun%20in%20Leo%20%28Field-Tested%29'
p2270
sg13
S'AWP'
p2271
sg15
I0
sg16
F4.0999999999999996
sg17
g2235
sg19
g346
sba(i__main__
skin
p2272
(dp2273
g6
I00
sg7
S'Gods and Monsters'
p2274
sg8
F0.84999999999999998
sg9
S'Shipping Forecast'
p2275
sg11
S'http://steamcommunity.com/market/priceoverview/?currency=13&appid=730&market_hash_name=M249%20%7C%20Shipping%20Forecast%20%28Field-Tested%29'
p2276
sg13
S'M249'
p2277
sg15
I293
sg16
F0.93999999999999995
sg17
g2235
sg19
g346
sba(i__main__
skin
p2278
(dp2279
g6
I00
sg7
S'Gods and Monsters'
p2280
sg8
F9.25
sg9
S"Minotaur's Labyrinth"
p2281
sg11
S'http://steamcommunity.com/market/priceoverview/?currency=13&appid=730&market_hash_name=UMP-45%20%7C%20Minotaur%27s%20Labyrinth%20%28Field-Tested%29'
p2282
sg13
S'UMP-45'
p2283
sg15
I73
sg16
F8.2899999999999991
sg17
g2235
sg19
g20
sba(i__main__
skin
p2284
(dp2285
g6
I00
sg7
S'Gods and Monsters'
p2286
sg8
F10.800000000000001
sg9
S"Pandora's Box"
p2287
sg11
S'http://steamcommunity.com/market/priceoverview/?currency=13&appid=730&market_hash_name=MP9%20%7C%20Pandora%27s%20Box%20%28Field-Tested%29'
p2288
sg13
S'MP9'
p2289
sg15
I22
sg16
F12.44
sg17
g2235
sg19
g20
sba(i__main__
skin
p2290
(dp2291
g6
I00
sg7
S'Gods and Monsters'
p2292
sg8
F26.399999999999999
sg9
S'Chronos'
p2293
sg11
S'http://steamcommunity.com/market/priceoverview/?currency=13&appid=730&market_hash_name=G3SG1%20%7C%20Chronos%20%28Field-Tested%29'
p2294
sg13
S'G3SG1'
p2295
sg15
I29
sg16
F39.18
sg17
g2235
sg19
g57
sba(i__main__
skin
p2296
(dp2297
g6
I00
sg7
S'Gods and Monsters'
p2298
sg9
S'Icarus Fell'
p2299
sg11
S'http://steamcommunity.com/market/priceoverview/?currency=13&appid=730&market_hash_name=M4A1-S%20%7C%20Icarus%20Fell%20%28Field-Tested%29'
p2300
sg13
S'M4A1-S'
p2301
sg17
g2235
sg19
g57
sba(i__main__
skin
p2302
(dp2303
g6
I00
sg7
S'Gods and Monsters'
p2304
sg8
I-1
sg9
S'Poseidon'
p2305
sg11
S'http://steamcommunity.com/market/priceoverview/?currency=13&appid=730&market_hash_name=M4A4%20%7C%20Poseidon%20%28Field-Tested%29'
p2306
sg13
S'M4A4'
p2307
sg15
I0
sg16
F176.28999999999999
sg17
g2235
sg19
g83
sba(i__main__
skin
p2308
(dp2309
g6
I00
sg7
S'Gods and Monsters'
p2310
sg8
I-1
sg9
S'Medusa'
p2311
sg11
S'http://steamcommunity.com/market/priceoverview/?currency=13&appid=730&market_hash_name=AWP%20%7C%20Medusa%20%28Field-Tested%29'
p2312
sg13
S'AWP'
p2313
sg15
I0
sg16
I-1
sg17
g2235
sg19
g102
sbasS'Vertigo'
p2314
(lp2315
(i__main__
skin
p2316
(dp2317
g6
I00
sg7
g2314
sg8
F1.6699999999999999
sg9
S'Demolition'
p2318
sg11
S'http://steamcommunity.com/market/priceoverview/?currency=13&appid=730&market_hash_name=Dual Berettas%20%7C%20Demolition%20%28Field-Tested%29'
p2319
sg13
S'Dual Berettas'
p2320
sg15
I22
sg16
F1.79
sg17
g18
sg19
g57
sba(i__main__
skin
p2321
(dp2322
g6
I00
sg7
S'Vertigo'
p2323
sg8
F7.0899999999999999
sg9
S'Black Laminate'
p2324
sg11
S'http://steamcommunity.com/market/priceoverview/?currency=13&appid=730&market_hash_name=AK-47%20%7C%20Black%20Laminate%20%28Field-Tested%29'
p2325
sg13
S'AK-47'
p2326
sg15
I91
sg16
F7.04
sg17
g18
sg19
g20
sba(i__main__
skin
p2327
(dp2328
g6
I00
sg7
S'Vertigo'
p2329
sg8
F1.25
sg9
S'Glacier Mesh'
p2330
sg11
S'http://steamcommunity.com/market/priceoverview/?currency=13&appid=730&market_hash_name=P90%20%7C%20Glacier%20Mesh%20%28Field-Tested%29'
p2331
sg13
S'P90'
p2332
sg15
I9
sg16
F1.52
sg17
g18
sg19
g20
sba(i__main__
skin
p2333
(dp2334
g6
I00
sg7
S'Vertigo'
p2335
sg9
S'Carbon Fiber'
p2336
sg11
S'http://steamcommunity.com/market/priceoverview/?currency=13&appid=730&market_hash_name=PP-Bizon%20%7C%20Carbon%20Fiber%20%28Field-Tested%29'
p2337
sg13
S'PP-Bizon'
p2338
sg17
g18
sg19
g346
sba(i__main__
skin
p2339
(dp2340
g6
I00
sg7
S'Vertigo'
p2341
sg8
F0.68999999999999995
sg9
S'Urban DDPAT'
p2342
sg11
S'http://steamcommunity.com/market/priceoverview/?currency=13&appid=730&market_hash_name=MAC-10%20%7C%20Urban%20DDPAT%20%28Field-Tested%29'
p2343
sg13
S'MAC-10'
p2344
sg15
I12
sg16
F0.65000000000000002
sg17
g18
sg19
g383
sba(i__main__
skin
p2345
(dp2346
g6
I00
sg7
S'Vertigo'
p2347
sg8
F0.60999999999999999
sg9
S'Urban Perforated'
p2348
sg11
S'http://steamcommunity.com/market/priceoverview/?currency=13&appid=730&market_hash_name=XM1014%20%7C%20Urban%20Perforated%20%28Field-Tested%29'
p2349
sg13
S'XM1014'
p2350
sg15
I26
sg16
F0.68999999999999995
sg17
g18
sg19
g383
sbasS'Overpass'
p2351
(lp2352
(i__main__
skin
p2353
(dp2354
g6
I00
sg7
g2351
sg8
F83.590000000000003
sg9
S'Master Piece'
p2355
sg11
S'http://steamcommunity.com/market/priceoverview/?currency=13&appid=730&market_hash_name=M4A1-S%20%7C%20Master%20Piece%20%28Field-Tested%29'
p2356
sg13
S'M4A1-S'
p2357
sg15
I21
sg16
F76.040000000000006
sg17
g82
sg19
g83
sba(i__main__
skin
p2358
(dp2359
g6
I00
sg7
S'Overpass'
p2360
sg8
F21.399999999999999
sg9
S'Road Rash'
p2361
sg11
S'http://steamcommunity.com/market/priceoverview/?currency=13&appid=730&market_hash_name=USP-S%20%7C%20Road%20Rash%20%28Field-Tested%29'
p2362
sg13
S'USP-S'
p2363
sg15
I20
sg16
F21.5
sg17
g18
sg19
g57
sba(i__main__
skin
p2364
(dp2365
g6
I00
sg7
S'Overpass'
p2366
sg8
F22.100000000000001
sg9
S'Pink DDPAT'
p2367
sg11
S'http://steamcommunity.com/market/priceoverview/?currency=13&appid=730&market_hash_name=AWP%20%7C%20Pink%20DDPAT%20%28Field-Tested%29'
p2368
sg13
S'AWP'
p2369
sg15
I116
sg16
F22.690000000000001
sg17
g18
sg19
g57
sba(i__main__
skin
p2370
(dp2371
g6
I00
sg7
S'Overpass'
p2372
sg8
F4.54
sg9
S'VariCamo Blue'
p2373
sg11
S'http://steamcommunity.com/market/priceoverview/?currency=13&appid=730&market_hash_name=XM1014%20%7C%20VariCamo%20Blue%20%28Field-Tested%29'
p2374
sg13
S'XM1014'
p2375
sg15
I4
sg16
F5.4000000000000004
sg17
g18
sg19
g20
sba(i__main__
skin
p2376
(dp2377
g6
I00
sg7
S'Overpass'
p2378
sg8
F5.4299999999999997
sg9
S'Detour'
p2379
sg11
S'http://steamcommunity.com/market/priceoverview/?currency=13&appid=730&market_hash_name=SSG 08%20%7C%20Detour%20%28Field-Tested%29'
p2380
sg13
S'SSG 08'
p2381
sg15
I25
sg16
F5.4400000000000004
sg17
g18
sg19
g20
sba(i__main__
skin
p2382
(dp2383
g6
I00
sg7
S'Overpass'
p2384
sg8
F4.5800000000000001
sg9
S'Nitro'
p2385
sg11
S'http://steamcommunity.com/market/priceoverview/?currency=13&appid=730&market_hash_name=CZ75-Auto%20%7C%20Nitro%20%28Field-Tested%29'
p2386
sg13
S'CZ75-Auto'
p2387
sg15
I32
sg16
F5.4100000000000001
sg17
g18
sg19
g20
sba(i__main__
skin
p2388
(dp2389
g6
I00
sg7
S'Overpass'
p2390
sg8
F0.58999999999999997
sg9
S'Grassland'
p2391
sg11
S'http://steamcommunity.com/market/priceoverview/?currency=13&appid=730&market_hash_name=P2000%20%7C%20Grassland%20%28Field-Tested%29'
p2392
sg13
S'P2000'
p2393
sg15
I60
sg16
F0.63
sg17
g18
sg19
g346
sba(i__main__
skin
p2394
(dp2395
g6
I00
sg7
S'Overpass'
p2396
sg8
F0.63
sg9
S'Night'
p2397
sg11
S'http://steamcommunity.com/market/priceoverview/?currency=13&appid=730&market_hash_name=Glock-18%20%7C%20Night%20%28Field-Tested%29'
p2398
sg13
S'Glock-18'
p2399
sg15
I157
sg16
F0.64000000000000001
sg17
g18
sg19
g346
sba(i__main__
skin
p2400
(dp2401
g6
I00
sg7
S'Overpass'
p2402
sg8
F0.67000000000000004
sg9
S'Gunsmoke'
p2403
sg11
S'http://steamcommunity.com/market/priceoverview/?currency=13&appid=730&market_hash_name=MP7%20%7C%20Gunsmoke%20%28Field-Tested%29'
p2404
sg13
S'MP7'
p2405
sg15
I92
sg16
F0.66000000000000003
sg17
g18
sg19
g346
sba(i__main__
skin
p2406
(dp2407
g6
I00
sg7
S'Overpass'
p2408
sg8
F0.62
sg9
S'Urban DDPAT'
p2409
sg11
S'http://steamcommunity.com/market/priceoverview/?currency=13&appid=730&market_hash_name=Desert Eagle%20%7C%20Urban%20DDPAT%20%28Field-Tested%29'
p2410
sg13
S'Desert Eagle'
p2411
sg15
I136
sg16
F0.64000000000000001
sg17
g18
sg19
g346
sba(i__main__
skin
p2412
(dp2413
g6
I00
sg7
S'Overpass'
p2414
sg8
F0.080000000000000002
sg9
S'Storm'
p2415
sg11
S'http://steamcommunity.com/market/priceoverview/?currency=13&appid=730&market_hash_name=MP9%20%7C%20Storm%20%28Field-Tested%29'
p2416
sg13
S'MP9'
p2417
sg15
I153
sg16
F0.089999999999999997
sg17
g18
sg19
g383
sba(i__main__
skin
p2418
(dp2419
g6
I00
sg7
S'Overpass'
p2420
sg8
F0.080000000000000002
sg9
S'Storm'
p2421
sg11
S'http://steamcommunity.com/market/priceoverview/?currency=13&appid=730&market_hash_name=MAG-7%20%7C%20Storm%20%28Field-Tested%29'
p2422
sg13
S'MAG-7'
p2423
sg15
I187
sg16
F0.080000000000000002
sg17
g18
sg19
g383
sba(i__main__
skin
p2424
(dp2425
g6
I00
sg7
S'Overpass'
p2426
sg8
F0.080000000000000002
sg9
S'Contrast Spray'
p2427
sg11
S'http://steamcommunity.com/market/priceoverview/?currency=13&appid=730&market_hash_name=M249%20%7C%20Contrast%20Spray%20%28Field-Tested%29'
p2428
sg13
S'M249'
p2429
sg15
I133
sg16
F0.089999999999999997
sg17
g18
sg19
g383
sba(i__main__
skin
p2430
(dp2431
g6
I00
sg7
S'Overpass'
p2432
sg8
F0.080000000000000002
sg9
S'Scorched'
p2433
sg11
S'http://steamcommunity.com/market/priceoverview/?currency=13&appid=730&market_hash_name=UMP-45%20%7C%20Scorched%20%28Field-Tested%29'
p2434
sg13
S'UMP-45'
p2435
sg15
I171
sg16
F0.080000000000000002
sg17
g18
sg19
g383
sba(i__main__
skin
p2436
(dp2437
g6
I00
sg7
S'Overpass'
p2438
sg8
F0.080000000000000002
sg9
S'Sage Spray'
p2439
sg11
S'http://steamcommunity.com/market/priceoverview/?currency=13&appid=730&market_hash_name=Sawed-Off%20%7C%20Sage%20Spray%20%28Field-Tested%29'
p2440
sg13
S'Sawed-Off'
p2441
sg15
I137
sg16
F0.080000000000000002
sg17
g18
sg19
g383
sbasS'Arms Deal Two'
p2442
(lp2443
(i__main__
skin
p2444
(dp2445
g6
I00
sg7
g2442
sg9
S'Blue Titanium'
p2446
sg11
S'http://steamcommunity.com/market/priceoverview/?currency=13&appid=730&market_hash_name=Tec-9%20%7C%20Blue%20Titanium%20%28Field-Tested%29'
p2447
sg13
S'Tec-9'
p2448
sg17
g18
sg19
g20
sba(i__main__
skin
p2449
(dp2450
g6
I00
sg7
S'Arms Deal Two'
p2451
sg8
F1.75
sg9
S'Blood Tiger'
p2452
sg11
S'http://steamcommunity.com/market/priceoverview/?currency=13&appid=730&market_hash_name=M4A1-S%20%7C%20Blood%20Tiger%20%28Field-Tested%29'
p2453
sg13
S'M4A1-S'
p2454
sg15
I156
sg16
F1.8899999999999999
sg17
g18
sg19
g20
sba(i__main__
skin
p2455
(dp2456
g6
I00
sg7
S'Arms Deal Two'
p2457
sg8
F0.53000000000000003
sg9
S'Hexane'
p2458
sg11
S'http://steamcommunity.com/market/priceoverview/?currency=13&appid=730&market_hash_name=FAMAS%20%7C%20Hexane%20%28Field-Tested%29'
p2459
sg13
S'FAMAS'
p2460
sg15
I99
sg16
F0.82999999999999996
sg17
g18
sg19
g20
sba(i__main__
skin
p2461
(dp2462
g6
I00
sg7
S'Arms Deal Two'
p2463
sg8
F0.93999999999999995
sg9
S'Hive'
p2464
sg11
S'http://steamcommunity.com/market/priceoverview/?currency=13&appid=730&market_hash_name=P250%20%7C%20Hive%20%28Field-Tested%29'
p2465
sg13
S'P250'
p2466
sg15
I36
sg16
F0.97999999999999998
sg17
g18
sg19
g20
sba(i__main__
skin
p2467
(dp2468
g6
I00
sg7
S'Arms Deal Two'
p2469
sg8
F0.77000000000000002
sg9
S'Crimson Web'
p2470
sg11
S'http://steamcommunity.com/market/priceoverview/?currency=13&appid=730&market_hash_name=SCAR-20%20%7C%20Crimson%20Web%20%28Field-Tested%29'
p2471
sg13
S'SCAR-20'
p2472
sg15
I147
sg16
F0.81999999999999995
sg17
g18
sg19
g20
sba(i__main__
skin
p2473
(dp2474
g6
I00
sg7
S'Arms Deal Two'
p2475
sg8
F4.6200000000000001
sg9
S'Case Hardened'
p2476
sg11
S'http://steamcommunity.com/market/priceoverview/?currency=13&appid=730&market_hash_name=Five-SeveN%20%7C%20Case%20Hardened%20%28Field-Tested%29'
p2477
sg13
S'Five-SeveN'
p2478
sg15
I252
sg16
F4.46
sg17
g18
sg19
g57
sba(i__main__
skin
p2479
(dp2480
g6
I00
sg7
S'Arms Deal Two'
p2481
sg9
S'Hypnotic'
p2482
sg11
S'http://steamcommunity.com/market/priceoverview/?currency=13&appid=730&market_hash_name=MP9%20%7C%20Hypnotic%20%28Field-Tested%29'
p2483
sg13
S'MP9'
p2484
sg17
g18
sg19
g57
sba(i__main__
skin
p2485
(dp2486
g6
I00
sg7
S'Arms Deal Two'
p2487
sg9
S'Graphite'
p2488
sg11
S'http://steamcommunity.com/market/priceoverview/?currency=13&appid=730&market_hash_name=Nova%20%7C%20Graphite%20%28Field-Tested%29'
p2489
sg13
S'Nova'
p2490
sg17
g18
sg19
g57
sba(i__main__
skin
p2491
(dp2492
g6
I00
sg7
S'Arms Deal Two'
p2493
sg8
F1.28
sg9
S'Hemoglobin'
p2494
sg11
S'http://steamcommunity.com/market/priceoverview/?currency=13&appid=730&market_hash_name=Dual Berettas%20%7C%20Hemoglobin%20%28Field-Tested%29'
p2495
sg13
S'Dual Berettas'
p2496
sg15
I19
sg16
F1.4099999999999999
sg17
g18
sg19
g57
sba(i__main__
skin
p2497
(dp2498
g6
I00
sg7
S'Arms Deal Two'
p2499
sg9
S'Cold Blooded'
p2500
sg11
S'http://steamcommunity.com/market/priceoverview/?currency=13&appid=730&market_hash_name=P90%20%7C%20Cold%20Blooded%20%28Field-Tested%29'
p2501
sg13
S'P90'
p2502
sg17
g82
sg19
g83
sba(i__main__
skin
p2503
(dp2504
g6
I00
sg7
S'Arms Deal Two'
p2505
sg8
F5.71
sg9
S'Serum'
p2506
sg11
S'http://steamcommunity.com/market/priceoverview/?currency=13&appid=730&market_hash_name=USP-S%20%7C%20Serum%20%28Field-Tested%29'
p2507
sg13
S'USP-S'
p2508
sg15
I6
sg16
F5.6900000000000004
sg17
g82
sg19
g83
sba(i__main__
skin
p2509
(dp2510
g6
I00
sg7
S'Arms Deal Two'
p2511
sg9
S'Blood in the Water'
p2512
sg11
S'http://steamcommunity.com/market/priceoverview/?currency=13&appid=730&market_hash_name=SSG 08%20%7C%20Blood%20in%20the%20Water%20%28Field-Tested%29'
p2513
sg13
S'SSG 08'
p2514
sg17
g18
sg19
g102
sbasS'Office'
p2515
(lp2516
(i__main__
skin
p2517
(dp2518
g6
I00
sg7
g2515
sg8
F2.23
sg9
S'Whiteout'
p2519
sg11
S'http://steamcommunity.com/market/priceoverview/?currency=13&appid=730&market_hash_name=MP7%20%7C%20Whiteout%20%28Field-Tested%29'
p2520
sg13
S'MP7'
p2521
sg15
I48
sg16
F2.0699999999999998
sg17
g18
sg19
g20
sba(i__main__
skin
p2522
(dp2523
g6
I00
sg7
S'Office'
p2524
sg9
S'Silver'
p2525
sg11
S'http://steamcommunity.com/market/priceoverview/?currency=13&appid=730&market_hash_name=P2000%20%7C%20Silver%20%28Field-Tested%29'
p2526
sg13
S'P2000'
p2527
sg17
g18
sg19
g20
sba(i__main__
skin
p2528
(dp2529
g6
I00
sg7
S'Office'
p2530
sg8
F1.3899999999999999
sg9
S'Blizzard Marbleized'
p2531
sg11
S'http://steamcommunity.com/market/priceoverview/?currency=13&appid=730&market_hash_name=M249%20%7C%20Blizzard%20Marbleized%20%28Field-Tested%29'
p2532
sg13
S'M249'
p2533
sg15
I3
sg16
F1.3400000000000001
sg17
g18
sg19
g346
sba(i__main__
skin
p2534
(dp2535
g6
I00
sg7
S'Office'
p2536
sg8
F1.1899999999999999
sg9
S'Arctic Camo'
p2537
sg11
S'http://steamcommunity.com/market/priceoverview/?currency=13&appid=730&market_hash_name=G3SG1%20%7C%20Arctic%20Camo%20%28Field-Tested%29'
p2538
sg13
S'G3SG1'
p2539
sg15
I8
sg16
F1.3799999999999999
sg17
g18
sg19
g346
sba(i__main__
skin
p2540
(dp2541
g6
I00
sg7
S'Office'
p2542
sg8
F1.3500000000000001
sg9
S'Winter Forest'
p2543
sg11
S'http://steamcommunity.com/market/priceoverview/?currency=13&appid=730&market_hash_name=Galil AR%20%7C%20Winter%20Forest%20%28Field-Tested%29'
p2544
sg13
S'Galil AR'
p2545
sg15
I8
sg16
F1.3400000000000001
sg17
g18
sg19
g346
sba(i__main__
skin
p2546
(dp2547
g6
I00
sg7
S'Office'
p2548
sg8
F0.35999999999999999
sg9
S'Contrast Spray'
p2549
sg11
S'http://steamcommunity.com/market/priceoverview/?currency=13&appid=730&market_hash_name=FAMAS%20%7C%20Contrast%20Spray%20%28Field-Tested%29'
p2550
sg13
S'FAMAS'
p2551
sg15
I25
sg16
F0.37
sg17
g18
sg19
g383
sbasS'Baggage'
p2552
(lp2553
(i__main__
skin
p2554
(dp2555
g6
I00
sg7
g2552
sg8
F39.630000000000003
sg9
S'Jet Set'
p2556
sg11
S'http://steamcommunity.com/market/priceoverview/?currency=13&appid=730&market_hash_name=AK-47%20%7C%20Jet%20Set%20%28Field-Tested%29'
p2557
sg13
S'AK-47'
p2558
sg15
I7
sg16
F38.659999999999997
sg17
g117
sg19
g83
sba(i__main__
skin
p2559
(dp2560
g6
I00
sg7
S'Baggage'
p2561
sg8
F9.6699999999999999
sg9
S'Pilot'
p2562
sg11
S'http://steamcommunity.com/market/priceoverview/?currency=13&appid=730&market_hash_name=Desert Eagle%20%7C%20Pilot%20%28Field-Tested%29'
p2563
sg13
S'Desert Eagle'
p2564
sg15
I20
sg16
F9.7200000000000006
sg17
g117
sg19
g57
sba(i__main__
skin
p2565
(dp2566
g6
I00
sg7
S'Baggage'
p2567
sg8
F8.6300000000000008
sg9
S'First Class'
p2568
sg11
S'http://steamcommunity.com/market/priceoverview/?currency=13&appid=730&market_hash_name=AK-47%20%7C%20First%20Class%20%28Field-Tested%29'
p2569
sg13
S'AK-47'
p2570
sg15
I20
sg16
F9.2599999999999998
sg17
g117
sg19
g57
sba(i__main__
skin
p2571
(dp2572
g6
I00
sg7
S'Baggage'
p2573
sg8
F2.0899999999999999
sg9
S'Red Leather'
p2574
sg11
S'http://steamcommunity.com/market/priceoverview/?currency=13&appid=730&market_hash_name=XM1014%20%7C%20Red%20Leather%20%28Field-Tested%29'
p2575
sg13
S'XM1014'
p2576
sg15
I4
sg16
F2.3399999999999999
sg17
g117
sg19
g20
sba(i__main__
skin
p2577
(dp2578
g6
I00
sg7
S'Baggage'
p2579
sg8
F2.3900000000000001
sg9
S'Business Class'
p2580
sg11
S'http://steamcommunity.com/market/priceoverview/?currency=13&appid=730&market_hash_name=USP-S%20%7C%20Business%20Class%20%28Field-Tested%29'
p2581
sg13
S'USP-S'
p2582
sg15
I75
sg16
F2.8100000000000001
sg17
g117
sg19
g20
sba(i__main__
skin
p2583
(dp2584
g6
I00
sg7
S'Baggage'
p2585
sg8
F2.3599999999999999
sg9
S'First Class'
p2586
sg11
S'http://steamcommunity.com/market/priceoverview/?currency=13&appid=730&market_hash_name=Sawed-Off%20%7C%20First%20Class%20%28Field-Tested%29'
p2587
sg13
S'Sawed-Off'
p2588
sg15
I3
sg16
F2.6400000000000001
sg17
g117
sg19
g20
sba(i__main__
skin
p2589
(dp2590
g6
I00
sg7
S'Baggage'
p2591
sg8
F0.38
sg9
S'Coach Class'
p2592
sg11
S'http://steamcommunity.com/market/priceoverview/?currency=13&appid=730&market_hash_name=P2000%20%7C%20Coach%20Class%20%28Field-Tested%29'
p2593
sg13
S'P2000'
p2594
sg15
I27
sg16
F0.38
sg17
g117
sg19
g346
sba(i__main__
skin
p2595
(dp2596
g6
I00
sg7
S'Baggage'
p2597
sg8
F0.35999999999999999
sg9
S'Commuter'
p2598
sg11
S'http://steamcommunity.com/market/priceoverview/?currency=13&appid=730&market_hash_name=MAC-10%20%7C%20Commuter%20%28Field-Tested%29'
p2599
sg13
S'MAC-10'
p2600
sg15
I11
sg16
F0.34999999999999998
sg17
g117
sg19
g346
sba(i__main__
skin
p2601
(dp2602
g6
I00
sg7
S'Baggage'
p2603
sg8
F0.60999999999999999
sg9
S'Leather'
p2604
sg11
S'http://steamcommunity.com/market/priceoverview/?currency=13&appid=730&market_hash_name=P90%20%7C%20Leather%20%28Field-Tested%29'
p2605
sg13
S'P90'
p2606
sg15
I111
sg16
F0.64000000000000001
sg17
g117
sg19
g346
sba(i__main__
skin
p2607
(dp2608
g6
I00
sg7
S'Baggage'
p2609
sg8
F0.47999999999999998
sg9
S'Traveler'
p2610
sg11
S'http://steamcommunity.com/market/priceoverview/?currency=13&appid=730&market_hash_name=SG 553%20%7C%20Traveler%20%28Field-Tested%29'
p2611
sg13
S'SG 553'
p2612
sg15
I47
sg16
F0.41999999999999998
sg17
g117
sg19
g346
sba(i__main__
skin
p2613
(dp2614
g6
I00
sg7
S'Baggage'
p2615
sg8
F0.28000000000000003
sg9
S'Sand Dune'
p2616
sg11
S'http://steamcommunity.com/market/priceoverview/?currency=13&appid=730&market_hash_name=SSG 08%20%7C%20Sand%20Dune%20%28Field-Tested%29'
p2617
sg13
S'SSG 08'
p2618
sg15
I60
sg16
F0.27000000000000002
sg17
g117
sg19
g383
sba(i__main__
skin
p2619
(dp2620
g6
I00
sg7
S'Baggage'
p2621
sg8
F0.27000000000000002
sg9
S'Green Plaid'
p2622
sg11
S'http://steamcommunity.com/market/priceoverview/?currency=13&appid=730&market_hash_name=MP9%20%7C%20Green%20Plaid%20%28Field-Tested%29'
p2623
sg13
S'MP9'
p2624
sg15
I15
sg16
F0.26000000000000001
sg17
g117
sg19
g383
sba(i__main__
skin
p2625
(dp2626
g6
I00
sg7
S'Baggage'
p2627
sg8
F0.23999999999999999
sg9
S'Green Plaid'
p2628
sg11
S'http://steamcommunity.com/market/priceoverview/?currency=13&appid=730&market_hash_name=CZ75-Auto%20%7C%20Green%20Plaid%20%28Field-Tested%29'
p2629
sg13
S'CZ75-Auto'
p2630
sg15
I30
sg16
F0.29999999999999999
sg17
g117
sg19
g383
sba(i__main__
skin
p2631
(dp2632
g6
I00
sg7
S'Baggage'
p2633
sg8
F0.26000000000000001
sg9
S'Olive Plaid'
p2634
sg11
S'http://steamcommunity.com/market/priceoverview/?currency=13&appid=730&market_hash_name=MP7%20%7C%20Olive%20Plaid%20%28Field-Tested%29'
p2635
sg13
S'MP7'
p2636
sg15
I28
sg16
F0.27000000000000002
sg17
g117
sg19
g383
sba(i__main__
skin
p2637
(dp2638
g6
I00
sg7
S'Baggage'
p2639
sg8
F0.19
sg9
S'Contractor'
p2640
sg11
S'http://steamcommunity.com/market/priceoverview/?currency=13&appid=730&market_hash_name=G3SG1%20%7C%20Contractor%20%28Field-Tested%29'
p2641
sg13
S'G3SG1'
p2642
sg15
I21
sg16
F0.26000000000000001
sg17
g117
sg19
g383
sbasS'Safehouse'
p2643
(lp2644
(i__main__
skin
p2645
(dp2646
g6
I00
sg7
g2643
sg8
F1.71
sg9
S'Nitro'
p2647
sg11
S'http://steamcommunity.com/market/priceoverview/?currency=13&appid=730&market_hash_name=M4A1-S%20%7C%20Nitro%20%28Field-Tested%29'
p2648
sg13
S'M4A1-S'
p2649
sg15
I0
sg16
F1.79
sg17
g18
sg19
g57
sba(i__main__
skin
p2650
(dp2651
g6
I00
sg7
S'Safehouse'
p2652
sg9
S'Acid Fade'
p2653
sg11
S'http://steamcommunity.com/market/priceoverview/?currency=13&appid=730&market_hash_name=SSG 08%20%7C%20Acid%20Fade%20%28Field-Tested%29'
p2654
sg13
S'SSG 08'
p2655
sg17
g18
sg19
g20
sba(i__main__
skin
p2656
(dp2657
g6
I00
sg7
S'Safehouse'
p2658
sg8
F0.28999999999999998
sg9
S'Silver Quartz'
p2659
sg11
S'http://steamcommunity.com/market/priceoverview/?currency=13&appid=730&market_hash_name=Five-SeveN%20%7C%20Silver%20Quartz%20%28Field-Tested%29'
p2660
sg13
S'Five-SeveN'
p2661
sg15
I625
sg16
F0.27000000000000002
sg17
g18
sg19
g20
sba(i__main__
skin
p2662
(dp2663
g6
I00
sg7
S'Safehouse'
p2664
sg8
F0.23999999999999999
sg9
S'Teardown'
p2665
sg11
S'http://steamcommunity.com/market/priceoverview/?currency=13&appid=730&market_hash_name=FAMAS%20%7C%20Teardown%20%28Field-Tested%29'
p2666
sg13
S'FAMAS'
p2667
sg15
I621
sg16
F0.23000000000000001
sg17
g18
sg19
g20
sba(i__main__
skin
p2668
(dp2669
g6
I00
sg7
S'Safehouse'
p2670
sg8
F0.050000000000000003
sg9
S'VariCamo'
p2671
sg11
S'http://steamcommunity.com/market/priceoverview/?currency=13&appid=730&market_hash_name=G3SG1%20%7C%20VariCamo%20%28Field-Tested%29'
p2672
sg13
S'G3SG1'
p2673
sg15
I813
sg16
F0.070000000000000007
sg17
g18
sg19
g346
sba(i__main__
skin
p2674
(dp2675
g6
I00
sg7
S'Safehouse'
p2676
sg8
F0.050000000000000003
sg9
S'Gator Mesh'
p2677
sg11
S'http://steamcommunity.com/market/priceoverview/?currency=13&appid=730&market_hash_name=M249%20%7C%20Gator%20Mesh%20%28Field-Tested%29'
p2678
sg13
S'M249'
p2679
sg15
I837
sg16
F0.070000000000000007
sg17
g18
sg19
g346
sba(i__main__
skin
p2680
(dp2681
g6
I00
sg7
S'Safehouse'
p2682
sg8
F0.050000000000000003
sg9
S'VariCamo'
p2683
sg11
S'http://steamcommunity.com/market/priceoverview/?currency=13&appid=730&market_hash_name=Galil AR%20%7C%20VariCamo%20%28Field-Tested%29'
p2684
sg13
S'Galil AR'
p2685
sg15
I909
sg16
F0.070000000000000007
sg17
g18
sg19
g346
sba(i__main__
skin
p2686
(dp2687
g6
I00
sg7
S'Safehouse'
p2688
sg8
F0.059999999999999998
sg9
S'Forest Leaves'
p2689
sg11
S'http://steamcommunity.com/market/priceoverview/?currency=13&appid=730&market_hash_name=USP-S%20%7C%20Forest%20Leaves%20%28Field-Tested%29'
p2690
sg13
S'USP-S'
p2691
sg15
I0
sg16
F0.070000000000000007
sg17
g18
sg19
g346
sba(i__main__
skin
p2692
(dp2693
g6
I00
sg7
S'Safehouse'
p2694
sg8
F0.059999999999999998
sg9
S'Condemned'
p2695
sg11
S'http://steamcommunity.com/market/priceoverview/?currency=13&appid=730&market_hash_name=AUG%20%7C%20Condemned%20%28Field-Tested%29'
p2696
sg13
S'AUG'
p2697
sg15
I0
sg16
F0.080000000000000002
sg17
g18
sg19
g346
sba(i__main__
skin
p2698
(dp2699
g6
I00
sg7
S'Safehouse'
p2700
sg8
F0.050000000000000003
sg9
S'Orange Peel'
p2701
sg11
S'http://steamcommunity.com/market/priceoverview/?currency=13&appid=730&market_hash_name=MP9%20%7C%20Orange%20Peel%20%28Field-Tested%29'
p2702
sg13
S'MP9'
p2703
sg15
I0
sg16
F0.070000000000000007
sg17
g18
sg19
g346
sba(i__main__
skin
p2704
(dp2705
g6
I00
sg7
S'Safehouse'
p2706
sg8
F0.02
sg9
S'Contractor'
p2707
sg11
S'http://steamcommunity.com/market/priceoverview/?currency=13&appid=730&market_hash_name=SCAR-20%20%7C%20Contractor%20%28Field-Tested%29'
p2708
sg13
S'SCAR-20'
p2709
sg15
I0
sg16
F0.040000000000000001
sg17
g18
sg19
g383
sba(i__main__
skin
p2710
(dp2711
g6
I00
sg7
S'Safehouse'
p2712
sg8
F0.02
sg9
S'Blue Spruce'
p2713
sg11
S'http://steamcommunity.com/market/priceoverview/?currency=13&appid=730&market_hash_name=SSG 08%20%7C%20Blue%20Spruce%20%28Field-Tested%29'
p2714
sg13
S'SSG 08'
p2715
sg15
I0
sg16
F0.040000000000000001
sg17
g18
sg19
g383
sba(i__main__
skin
p2716
(dp2717
g6
I00
sg7
S'Safehouse'
p2718
sg8
F0.02
sg9
S'Army Mesh'
p2719
sg11
S'http://steamcommunity.com/market/priceoverview/?currency=13&appid=730&market_hash_name=Tec-9%20%7C%20Army%20Mesh%20%28Field-Tested%29'
p2720
sg13
S'Tec-9'
p2721
sg15
I0
sg16
F0.040000000000000001
sg17
g18
sg19
g383
sba(i__main__
skin
p2722
(dp2723
g6
I00
sg7
S'Safehouse'
p2724
sg8
F0.02
sg9
S'Army Recon'
p2725
sg11
S'http://steamcommunity.com/market/priceoverview/?currency=13&appid=730&market_hash_name=MP7%20%7C%20Army%20Recon%20%28Field-Tested%29'
p2726
sg13
S'MP7'
p2727
sg15
I0
sg16
F0.040000000000000001
sg17
g18
sg19
g383
sba(i__main__
skin
p2728
(dp2729
g6
I00
sg7
S'Safehouse'
p2730
sg8
F0.02
sg9
S'Contractor'
p2731
sg11
S'http://steamcommunity.com/market/priceoverview/?currency=13&appid=730&market_hash_name=Dual Berettas%20%7C%20Contractor%20%28Field-Tested%29'
p2732
sg13
S'Dual Berettas'
p2733
sg15
I0
sg16
F0.040000000000000001
sg17
g18
sg19
g383
sbasS'Bravo'
p2734
(lp2735
(i__main__
skin
p2736
(dp2737
g6
I00
sg7
g2734
sg8
F1.02
sg9
S'Tempest'
p2738
sg11
S'http://steamcommunity.com/market/priceoverview/?currency=13&appid=730&market_hash_name=Nova%20%7C%20Tempest%20%28Field-Tested%29'
p2739
sg13
S'Nova'
p2740
sg15
I12
sg16
F1.05
sg17
g18
sg19
g20
sba(i__main__
skin
p2741
(dp2742
g6
I00
sg7
S'Bravo'
p2743
sg8
F0.81000000000000005
sg9
S'Black Limba'
p2744
sg11
S'http://steamcommunity.com/market/priceoverview/?currency=13&appid=730&market_hash_name=Dual Berettas%20%7C%20Black%20Limba%20%28Field-Tested%29'
p2745
sg13
S'Dual Berettas'
p2746
sg15
I32
sg16
F0.78000000000000003
sg17
g18
sg19
g20
sba(i__main__
skin
p2747
(dp2748
g6
I00
sg7
S'Bravo'
p2749
sg8
F0.81000000000000005
sg9
S'Bone Pile'
p2750
sg11
S'http://steamcommunity.com/market/priceoverview/?currency=13&appid=730&market_hash_name=UMP-45%20%7C%20Bone%20Pile%20%28Field-Tested%29'
p2751
sg13
S'UMP-45'
p2752
sg15
I23
sg16
F0.80000000000000004
sg17
g18
sg19
g20
sba(i__main__
skin
p2753
(dp2754
g6
I00
sg7
S'Bravo'
p2755
sg8
F0.65000000000000002
sg9
S'Wave Spray'
p2756
sg11
S'http://steamcommunity.com/market/priceoverview/?currency=13&appid=730&market_hash_name=SG 553%20%7C%20Wave%20Spray%20%28Field-Tested%29'
p2757
sg13
S'SG 553'
p2758
sg15
I17
sg16
F0.73999999999999999
sg17
g18
sg19
g20
sba(i__main__
skin
p2759
(dp2760
g6
I00
sg7
S'Bravo'
p2761
sg8
F0.69999999999999996
sg9
S'Shattered'
p2762
sg11
S'http://steamcommunity.com/market/priceoverview/?currency=13&appid=730&market_hash_name=Galil AR%20%7C%20Shattered%20%28Field-Tested%29'
p2763
sg13
S'Galil AR'
p2764
sg15
I44
sg16
F0.81000000000000005
sg17
g18
sg19
g20
sba(i__main__
skin
p2765
(dp2766
g6
I00
sg7
S'Bravo'
p2767
sg8
F0.80000000000000004
sg9
S'Demeter'
p2768
sg11
S'http://steamcommunity.com/market/priceoverview/?currency=13&appid=730&market_hash_name=G3SG1%20%7C%20Demeter%20%28Field-Tested%29'
p2769
sg13
S'G3SG1'
p2770
sg15
I44
sg16
F0.71999999999999997
sg17
g18
sg19
g20
sba(i__main__
skin
p2771
(dp2772
g6
I00
sg7
S'Bravo'
p2773
sg8
F4.9800000000000004
sg9
S'Bright Water'
p2774
sg11
S'http://steamcommunity.com/market/priceoverview/?currency=13&appid=730&market_hash_name=M4A1-S%20%7C%20Bright%20Water%20%28Field-Tested%29'
p2775
sg13
S'M4A1-S'
p2776
sg15
I101
sg16
F5.6100000000000003
sg17
g18
sg19
g57
sba(i__main__
skin
p2777
(dp2778
g6
I00
sg7
S'Bravo'
p2779
sg8
F4.6799999999999997
sg9
S'Zirka'
p2780
sg11
S'http://steamcommunity.com/market/priceoverview/?currency=13&appid=730&market_hash_name=M4A4%20%7C%20Zirka%20%28Field-Tested%29'
p2781
sg13
S'M4A4'
p2782
sg15
I27
sg16
F5.2199999999999998
sg17
g18
sg19
g57
sba(i__main__
skin
p2783
(dp2784
g6
I00
sg7
S'Bravo'
p2785
sg8
F4.7800000000000002
sg9
S'Graven'
p2786
sg11
S'http://steamcommunity.com/market/priceoverview/?currency=13&appid=730&market_hash_name=MAC-10%20%7C%20Graven%20%28Field-Tested%29'
p2787
sg13
S'MAC-10'
p2788
sg15
I22
sg16
F4.9100000000000001
sg17
g18
sg19
g57
sba(i__main__
skin
p2789
(dp2790
g6
I00
sg7
S'Bravo'
p2791
sg8
F5.04
sg9
S'Overgrowth'
p2792
sg11
S'http://steamcommunity.com/market/priceoverview/?currency=13&appid=730&market_hash_name=USP-S%20%7C%20Overgrowth%20%28Field-Tested%29'
p2793
sg13
S'USP-S'
p2794
sg15
I88
sg16
F5.0800000000000001
sg17
g18
sg19
g57
sba(i__main__
skin
p2795
(dp2796
g6
I00
sg7
S'Bravo'
p2797
sg8
F32.640000000000001
sg9
S'Emerald Dragon'
p2798
sg11
S'http://steamcommunity.com/market/priceoverview/?currency=13&appid=730&market_hash_name=P90%20%7C%20Emerald%20Dragon%20%28Field-Tested%29'
p2799
sg13
S'P90'
p2800
sg15
I8
sg16
F33.409999999999997
sg17
g82
sg19
g83
sba(i__main__
skin
p2801
(dp2802
g6
I00
sg7
S'Bravo'
p2803
sg9
S'Ocean Foam'
p2804
sg11
S'http://steamcommunity.com/market/priceoverview/?currency=13&appid=730&market_hash_name=P2000%20%7C%20Ocean%20Foam%20%28Field-Tested%29'
p2805
sg13
S'P2000'
p2806
sg17
g82
sg19
g83
sba(i__main__
skin
p2807
(dp2808
g6
I00
sg7
S'Bravo'
p2809
sg9
S'Graphite'
p2810
sg11
S'http://steamcommunity.com/market/priceoverview/?currency=13&appid=730&market_hash_name=AWP%20%7C%20Graphite%20%28Field-Tested%29'
p2811
sg13
S'AWP'
p2812
sg17
g82
sg19
g83
sba(i__main__
skin
p2813
(dp2814
g6
I00
sg7
S'Bravo'
p2815
sg9
S'Golden Koi'
p2816
sg11
S'http://steamcommunity.com/market/priceoverview/?currency=13&appid=730&market_hash_name=Desert Eagle%20%7C%20Golden%20Koi%20%28Field-Tested%29'
p2817
sg13
S'Desert Eagle'
p2818
sg17
g18
sg19
g102
sba(i__main__
skin
p2819
(dp2820
g6
I00
sg7
S'Bravo'
p2821
sg9
S'Fire Serpent'
p2822
sg11
S'http://steamcommunity.com/market/priceoverview/?currency=13&appid=730&market_hash_name=AK-47%20%7C%20Fire%20Serpent%20%28Field-Tested%29'
p2823
sg13
S'AK-47'
p2824
sg17
g18
sg19
g102
sbasS'Winter Offensive'
p2825
(lp2826
(i__main__
skin
p2827
(dp2828
g6
I00
sg7
g2825
sg8
F0.17000000000000001
sg9
S'Cobalt Halftone'
p2829
sg11
S'http://steamcommunity.com/market/priceoverview/?currency=13&appid=730&market_hash_name=PP-Bizon%20%7C%20Cobalt%20Halftone%20%28Field-Tested%29'
p2830
sg13
S'PP-Bizon'
p2831
sg15
I118
sg16
F0.20000000000000001
sg17
g18
sg19
g20
sba(i__main__
skin
p2832
(dp2833
g6
I00
sg7
S'Winter Offensive'
p2834
sg8
F0.17999999999999999
sg9
S'Magma'
p2835
sg11
S'http://steamcommunity.com/market/priceoverview/?currency=13&appid=730&market_hash_name=M249%20%7C%20Magma%20%28Field-Tested%29'
p2836
sg13
S'M249'
p2837
sg15
I121
sg16
F0.20999999999999999
sg17
g18
sg19
g20
sba(i__main__
skin
p2838
(dp2839
g6
I00
sg7
S'Winter Offensive'
p2840
sg8
F0.53000000000000003
sg9
S'Kami'
p2841
sg11
S'http://steamcommunity.com/market/priceoverview/?currency=13&appid=730&market_hash_name=Five-SeveN%20%7C%20Kami%20%28Field-Tested%29'
p2842
sg13
S'Five-SeveN'
p2843
sg15
I110
sg16
F0.51000000000000001
sg17
g18
sg19
g20
sba(i__main__
skin
p2844
(dp2845
g6
I00
sg7
S'Winter Offensive'
p2846
sg8
F0.25
sg9
S'Sandstorm'
p2847
sg11
S'http://steamcommunity.com/market/priceoverview/?currency=13&appid=730&market_hash_name=Galil AR%20%7C%20Sandstorm%20%28Field-Tested%29'
p2848
sg13
S'Galil AR'
p2849
sg15
I231
sg16
F0.25
sg17
g18
sg19
g20
sba(i__main__
skin
p2850
(dp2851
g6
I00
sg7
S'Winter Offensive'
p2852
sg8
F1.5900000000000001
sg9
S'Rising Skull'
p2853
sg11
S'http://steamcommunity.com/market/priceoverview/?currency=13&appid=730&market_hash_name=Nova%20%7C%20Rising%20Skull%20%28Field-Tested%29'
p2854
sg13
S'Nova'
p2855
sg15
I36
sg16
F1.5600000000000001
sg17
g18
sg19
g57
sba(i__main__
skin
p2856
(dp2857
g6
I00
sg7
S'Winter Offensive'
p2858
sg8
F1.8
sg9
S'Rose Iron'
p2859
sg11
S'http://steamcommunity.com/market/priceoverview/?currency=13&appid=730&market_hash_name=MP9%20%7C%20Rose%20Iron%20%28Field-Tested%29'
p2860
sg13
S'MP9'
p2861
sg15
I16
sg16
F2.0699999999999998
sg17
g18
sg19
g57
sba(i__main__
skin
p2862
(dp2863
g6
I00
sg7
S'Winter Offensive'
p2864
sg8
F1.51
sg9
S'Marina'
p2865
sg11
S'http://steamcommunity.com/market/priceoverview/?currency=13&appid=730&market_hash_name=Dual Berettas%20%7C%20Marina%20%28Field-Tested%29'
p2866
sg13
S'Dual Berettas'
p2867
sg15
I30
sg16
F1.54
sg17
g18
sg19
g57
sba(i__main__
skin
p2868
(dp2869
g6
I00
sg7
S'Winter Offensive'
p2870
sg8
F1.5900000000000001
sg9
S'Pulse'
p2871
sg11
S'http://steamcommunity.com/market/priceoverview/?currency=13&appid=730&market_hash_name=FAMAS%20%7C%20Pulse%20%28Field-Tested%29'
p2872
sg13
S'FAMAS'
p2873
sg15
I91
sg16
F1.52
sg17
g18
sg19
g57
sba(i__main__
skin
p2874
(dp2875
g6
I00
sg7
S'Winter Offensive'
p2876
sg8
F11.43
sg9
S'Redline'
p2877
sg11
S'http://steamcommunity.com/market/priceoverview/?currency=13&appid=730&market_hash_name=AWP%20%7C%20Redline%20%28Field-Tested%29'
p2878
sg13
S'AWP'
p2879
sg15
I717
sg16
F10.32
sg17
g82
sg19
g83
sba(i__main__
skin
p2880
(dp2881
g6
I00
sg7
S'Winter Offensive'
p2882
sg8
F4.5899999999999999
sg9
S'Mehndi'
p2883
sg11
S'http://steamcommunity.com/market/priceoverview/?currency=13&appid=730&market_hash_name=P250%20%7C%20Mehndi%20%28Field-Tested%29'
p2884
sg13
S'P250'
p2885
sg15
I56
sg16
F4.54
sg17
g82
sg19
g83
sba(i__main__
skin
p2886
(dp2887
g6
I00
sg7
S'Winter Offensive'
p2888
sg8
F5.7000000000000002
sg9
S'Guardian'
p2889
sg11
S'http://steamcommunity.com/market/priceoverview/?currency=13&appid=730&market_hash_name=M4A1-S%20%7C%20Guardian%20%28Field-Tested%29'
p2890
sg13
S'M4A1-S'
p2891
sg15
I393
sg16
F5.9500000000000002
sg17
g82
sg19
g83
sba(i__main__
skin
p2892
(dp2893
g6
I00
sg7
S'Winter Offensive'
p2894
sg9
S'The Kraken'
p2895
sg11
S'http://steamcommunity.com/market/priceoverview/?currency=13&appid=730&market_hash_name=Sawed-Off%20%7C%20The%20Kraken%20%28Field-Tested%29'
p2896
sg13
S'Sawed-Off'
p2897
sg17
g18
sg19
g102
sba(i__main__
skin
p2898
(dp2899
g6
I00
sg7
S'Winter Offensive'
p2900
sg9
S'Asiimov'
p2901
sg11
S'http://steamcommunity.com/market/priceoverview/?currency=13&appid=730&market_hash_name=M4A4%20%7C%20Asiimov%20%28Field-Tested%29'
p2902
sg13
S'M4A4'
p2903
sg17
g18
sg19
g102
sbasS'Falchion Case'
p2904
(lp2905
(i__main__
skin
p2906
(dp2907
g6
I00
sg7
g2904
sg8
F0.12
sg9
S'Rocket Pop'
p2908
sg11
S'http://steamcommunity.com/market/priceoverview/?currency=13&appid=730&market_hash_name=Galil AR%20%7C%20Rocket%20Pop%20%28Field-Tested%29'
p2909
sg13
S'Galil AR'
p2910
sg15
I0
sg16
F0.13
sg17
g18
sg19
g20
sba(i__main__
skin
p2911
(dp2912
g6
I00
sg7
S'Falchion Case'
p2913
sg8
F0.14999999999999999
sg9
S'Bunsen Burner'
p2914
sg11
S'http://steamcommunity.com/market/priceoverview/?currency=13&appid=730&market_hash_name=Glock-18%20%7C%20Bunsen%20Burner%20%28Field-Tested%29'
p2915
sg13
S'Glock-18'
p2916
sg15
I0
sg16
F0.14000000000000001
sg17
g18
sg19
g20
sba(i__main__
skin
p2917
(dp2918
g6
I00
sg7
S'Falchion Case'
p2919
sg8
F0.11
sg9
S'Ranger'
p2920
sg11
S'http://steamcommunity.com/market/priceoverview/?currency=13&appid=730&market_hash_name=Nova%20%7C%20Ranger%20%28Field-Tested%29'
p2921
sg13
S'Nova'
p2922
sg15
I971
sg16
F0.12
sg17
g18
sg19
g20
sba(i__main__
skin
p2923
(dp2924
g6
I00
sg7
S'Falchion Case'
p2925
sg8
F0.13
sg9
S'Elite Build'
p2926
sg11
S'http://steamcommunity.com/market/priceoverview/?currency=13&appid=730&market_hash_name=P90%20%7C%20Elite%20Build%20%28Field-Tested%29'
p2927
sg13
S'P90'
p2928
sg15
I0
sg16
F0.13
sg17
g18
sg19
g20
sba(i__main__
skin
p2929
(dp2930
g6
I00
sg7
S'Falchion Case'
p2931
sg8
F0.11
sg9
S'Riot'
p2932
sg11
S'http://steamcommunity.com/market/priceoverview/?currency=13&appid=730&market_hash_name=UMP-45%20%7C%20Riot%20%28Field-Tested%29'
p2933
sg13
S'UMP-45'
p2934
sg15
I0
sg16
F0.12
sg17
g18
sg19
g20
sba(i__main__
skin
p2935
(dp2936
g6
I00
sg7
S'Falchion Case'
p2937
sg8
F0.26000000000000001
sg9
S'Torque'
p2938
sg11
S'http://steamcommunity.com/market/priceoverview/?currency=13&appid=730&market_hash_name=USP-S%20%7C%20Torque%20%28Field-Tested%29'
p2939
sg13
S'USP-S'
p2940
sg15
I0
sg16
F0.26000000000000001
sg17
g18
sg19
g20
sba(i__main__
skin
p2941
(dp2942
g6
I00
sg7
S'Falchion Case'
p2943
sg8
F0.40000000000000002
sg9
S'Neural Net'
p2944
sg11
S'http://steamcommunity.com/market/priceoverview/?currency=13&appid=730&market_hash_name=FAMAS%20%7C%20Neural%20Net%20%28Field-Tested%29'
p2945
sg13
S'FAMAS'
p2946
sg15
I711
sg16
F0.40000000000000002
sg17
g18
sg19
g57
sba(i__main__
skin
p2947
(dp2948
g6
I00
sg7
S'Falchion Case'
p2949
sg8
F0.95999999999999996
sg9
S'Evil Daimyo'
p2950
sg11
S'http://steamcommunity.com/market/priceoverview/?currency=13&appid=730&market_hash_name=M4A4%20%7C%20Evil%20Daimyo%20%28Field-Tested%29'
p2951
sg13
S'M4A4'
p2952
sg15
I0
sg16
F0.96999999999999997
sg17
g18
sg19
g57
sba(i__main__
skin
p2953
(dp2954
g6
I00
sg7
S'Falchion Case'
p2955
sg8
F0.40000000000000002
sg9
S'Ruby Poison Dart'
p2956
sg11
S'http://steamcommunity.com/market/priceoverview/?currency=13&appid=730&market_hash_name=MP9%20%7C%20Ruby%20Poison%20Dart%20%28Field-Tested%29'
p2957
sg13
S'MP9'
p2958
sg15
I527
sg16
F0.39000000000000001
sg17
g18
sg19
g57
sba(i__main__
skin
p2959
(dp2960
g6
I00
sg7
S'Falchion Case'
p2961
sg8
F0.38
sg9
S'Loudmouth'
p2962
sg11
S'http://steamcommunity.com/market/priceoverview/?currency=13&appid=730&market_hash_name=Negev%20%7C%20Loudmouth%20%28Field-Tested%29'
p2963
sg13
S'Negev'
p2964
sg15
I982
sg16
F0.39000000000000001
sg17
g18
sg19
g57
sba(i__main__
skin
p2965
(dp2966
g6
I00
sg7
S'Falchion Case'
p2967
sg8
F0.41999999999999998
sg9
S'Handgun'
p2968
sg11
S'http://steamcommunity.com/market/priceoverview/?currency=13&appid=730&market_hash_name=P2000%20%7C%20Handgun%20%28Field-Tested%29'
p2969
sg13
S'P2000'
p2970
sg15
I0
sg16
F0.39000000000000001
sg17
g18
sg19
g57
sba(i__main__
skin
p2971
(dp2972
g6
I00
sg7
S'Falchion Case'
p2973
sg8
F2.8900000000000001
sg9
S'Yellow Jacket'
p2974
sg11
S'http://steamcommunity.com/market/priceoverview/?currency=13&appid=730&market_hash_name=CZ75-Auto%20%7C%20Yellow%20Jacket%20%28Field-Tested%29'
p2975
sg13
S'CZ75-Auto'
p2976
sg15
I300
sg16
F3.0600000000000001
sg17
g82
sg19
g83
sba(i__main__
skin
p2977
(dp2978
g6
I00
sg7
S'Falchion Case'
p2979
sg8
F3.3900000000000001
sg9
S'Nemesis'
p2980
sg11
S'http://steamcommunity.com/market/priceoverview/?currency=13&appid=730&market_hash_name=MP7%20%7C%20Nemesis%20%28Field-Tested%29'
p2981
sg13
S'MP7'
p2982
sg15
I133
sg16
F3.3300000000000001
sg17
g82
sg19
g83
sba(i__main__
skin
p2983
(dp2984
g6
I00
sg7
S'Falchion Case'
p2985
sg8
F2.9199999999999999
sg9
S'Cyrex'
p2986
sg11
S'http://steamcommunity.com/market/priceoverview/?currency=13&appid=730&market_hash_name=SG 553%20%7C%20Cyrex%20%28Field-Tested%29'
p2987
sg13
S'SG 553'
p2988
sg15
I383
sg16
F2.8300000000000001
sg17
g82
sg19
g83
sba(i__main__
skin
p2989
(dp2990
g6
I00
sg7
S'Falchion Case'
p2991
sg9
S'Aquamarine Revenge'
p2992
sg11
S'http://steamcommunity.com/market/priceoverview/?currency=13&appid=730&market_hash_name=AK-47%20%7C%20Aquamarine%20Revenge%20%28Field-Tested%29'
p2993
sg13
S'AK-47'
p2994
sg17
g18
sg19
g102
sba(i__main__
skin
p2995
(dp2996
g6
I00
sg7
S'Falchion Case'
p2997
sg9
S'Hyper Beast'
p2998
sg11
S'http://steamcommunity.com/market/priceoverview/?currency=13&appid=730&market_hash_name=AWP%20%7C%20Hyper%20Beast%20%28Field-Tested%29'
p2999
sg13
S'AWP'
p3000
sg17
g18
sg19
g102
sbasS'eSports 2013 Winter'
p3001
(lp3002
(i__main__
skin
p3003
(dp3004
g6
I00
sg7
g3001
sg9
S'Blue Titanium'
p3005
sg11
S'http://steamcommunity.com/market/priceoverview/?currency=13&appid=730&market_hash_name=Galil AR%20%7C%20Blue%20Titanium%20%28Field-Tested%29'
p3006
sg13
S'Galil AR'
p3007
sg17
g18
sg19
g20
sba(i__main__
skin
p3008
(dp3009
g6
I00
sg7
S'eSports 2013 Winter'
p3010
sg8
F0.38
sg9
S'Nightshade'
p3011
sg11
S'http://steamcommunity.com/market/priceoverview/?currency=13&appid=730&market_hash_name=Five-SeveN%20%7C%20Nightshade%20%28Field-Tested%29'
p3012
sg13
S'Five-SeveN'
p3013
sg15
I102
sg16
F0.34000000000000002
sg17
g18
sg19
g20
sba(i__main__
skin
p3014
(dp3015
g6
I00
sg7
S'eSports 2013 Winter'
p3016
sg8
F0.33000000000000002
sg9
S'Water Sigil'
p3017
sg11
S'http://steamcommunity.com/market/priceoverview/?currency=13&appid=730&market_hash_name=PP-Bizon%20%7C%20Water%20Sigil%20%28Field-Tested%29'
p3018
sg13
S'PP-Bizon'
p3019
sg15
I66
sg16
F0.34999999999999998
sg17
g18
sg19
g20
sba(i__main__
skin
p3020
(dp3021
g6
I00
sg7
S'eSports 2013 Winter'
p3022
sg8
F0.33000000000000002
sg9
S'Ghost Camo'
p3023
sg11
S'http://steamcommunity.com/market/priceoverview/?currency=13&appid=730&market_hash_name=Nova%20%7C%20Ghost%20Camo%20%28Field-Tested%29'
p3024
sg13
S'Nova'
p3025
sg15
I75
sg16
F0.39000000000000001
sg17
g18
sg19
g20
sba(i__main__
skin
p3026
(dp3027
g6
I00
sg7
S'eSports 2013 Winter'
p3028
sg8
F0.41999999999999998
sg9
S'Azure Zebra'
p3029
sg11
S'http://steamcommunity.com/market/priceoverview/?currency=13&appid=730&market_hash_name=G3SG1%20%7C%20Azure%20Zebra%20%28Field-Tested%29'
p3030
sg13
S'G3SG1'
p3031
sg15
I19
sg16
F0.46000000000000002
sg17
g18
sg19
g20
sba(i__main__
skin
p3032
(dp3033
g6
I00
sg7
S'eSports 2013 Winter'
p3034
sg8
F0.46999999999999997
sg9
S'Steel Disruption'
p3035
sg11
S'http://steamcommunity.com/market/priceoverview/?currency=13&appid=730&market_hash_name=P250%20%7C%20Steel%20Disruption%20%28Field-Tested%29'
p3036
sg13
S'P250'
p3037
sg15
I9
sg16
F0.40999999999999998
sg17
g18
sg19
g20
sba(i__main__
skin
p3038
(dp3039
g6
I00
sg7
S'eSports 2013 Winter'
p3040
sg8
F2.3500000000000001
sg9
S'Blue Laminate'
p3041
sg11
S'http://steamcommunity.com/market/priceoverview/?currency=13&appid=730&market_hash_name=AK-47%20%7C%20Blue%20Laminate%20%28Field-Tested%29'
p3042
sg13
S'AK-47'
p3043
sg15
I968
sg16
F2.2599999999999998
sg17
g18
sg19
g57
sba(i__main__
skin
p3044
(dp3045
g6
I00
sg7
S'eSports 2013 Winter'
p3046
sg8
F1.23
sg9
S'Blind Spot'
p3047
sg11
S'http://steamcommunity.com/market/priceoverview/?currency=13&appid=730&market_hash_name=P90%20%7C%20Blind%20Spot%20%28Field-Tested%29'
p3048
sg13
S'P90'
p3049
sg15
I80
sg16
F1.23
sg17
g18
sg19
g57
sba(i__main__
skin
p3050
(dp3051
g6
I00
sg7
S'eSports 2013 Winter'
p3052
sg8
F3.23
sg9
S'Afterimage'
p3053
sg11
S'http://steamcommunity.com/market/priceoverview/?currency=13&appid=730&market_hash_name=FAMAS%20%7C%20Afterimage%20%28Field-Tested%29'
p3054
sg13
S'FAMAS'
p3055
sg15
I28
sg16
F3.25
sg17
g82
sg19
g83
sba(i__main__
skin
p3056
(dp3057
g6
I00
sg7
S'eSports 2013 Winter'
p3058
sg8
F11.65
sg9
S'Electric Hive'
p3059
sg11
S'http://steamcommunity.com/market/priceoverview/?currency=13&appid=730&market_hash_name=AWP%20%7C%20Electric%20Hive%20%28Field-Tested%29'
p3060
sg13
S'AWP'
p3061
sg15
I209
sg16
F10.4
sg17
g82
sg19
g83
sba(i__main__
skin
p3062
(dp3063
g6
I00
sg7
S'eSports 2013 Winter'
p3064
sg8
F6.4400000000000004
sg9
S'Cobalt Disruption'
p3065
sg11
S'http://steamcommunity.com/market/priceoverview/?currency=13&appid=730&market_hash_name=Desert Eagle%20%7C%20Cobalt%20Disruption%20%28Field-Tested%29'
p3066
sg13
S'Desert Eagle'
p3067
sg15
I6
sg16
F6.5599999999999996
sg17
g82
sg19
g83
sba(i__main__
skin
p3068
(dp3069
g6
I00
sg7
S'eSports 2013 Winter'
p3070
sg9
S'X-Ray'
p3071
sg11
S'http://steamcommunity.com/market/priceoverview/?currency=13&appid=730&market_hash_name=M4A4%20%7C%20X-Ray%20%28Field-Tested%29'
p3072
sg13
S'M4A4'
p3073
sg17
g18
sg19
g102
sbasS'Chop Shop'
p3074
(lp3075
(i__main__
skin
p3076
(dp3077
g6
I00
sg7
g3074
sg8
F25.84
sg9
S'Duelist'
p3078
sg11
S'http://steamcommunity.com/market/priceoverview/?currency=13&appid=730&market_hash_name=Dual Berettas%20%7C%20Duelist%20%28Field-Tested%29'
p3079
sg13
S'Dual Berettas'
p3080
sg15
I1
sg16
F25.32
sg17
g18
sg19
g57
sba(i__main__
skin
p3081
(dp3082
g6
I00
sg7
S'Chop Shop'
p3083
sg8
F24.91
sg9
S'Twilight Galaxy'
p3084
sg11
S'http://steamcommunity.com/market/priceoverview/?currency=13&appid=730&market_hash_name=Glock-18%20%7C%20Twilight%20Galaxy%20%28Field-Tested%29'
p3085
sg13
S'Glock-18'
p3086
sg15
I1
sg16
F26.350000000000001
sg17
g82
sg19
g83
sba(i__main__
skin
p3087
(dp3088
g6
I00
sg7
S'Chop Shop'
p3089
sg9
S'Hot Rod'
p3090
sg11
S'http://steamcommunity.com/market/priceoverview/?currency=13&appid=730&market_hash_name=M4A1-S%20%7C%20Hot%20Rod%20%28Field-Tested%29'
p3091
sg13
S'M4A1-S'
p3092
sg17
g82
sg19
g83
sba(i__main__
skin
p3093
(dp3094
g6
I00
sg7
S'Chop Shop'
p3095
sg8
F20.23
sg9
S'Bulldozer'
p3096
sg11
S'http://steamcommunity.com/market/priceoverview/?currency=13&appid=730&market_hash_name=SG 553%20%7C%20Bulldozer%20%28Field-Tested%29'
p3097
sg13
S'SG 553'
p3098
sg15
I2
sg16
F23.5
sg17
g18
sg19
g57
sba(i__main__
skin
p3099
(dp3100
g6
I00
sg7
S'Chop Shop'
p3101
sg9
S'Emerald'
p3102
sg11
S'http://steamcommunity.com/market/priceoverview/?currency=13&appid=730&market_hash_name=CZ75-Auto%20%7C%20Emerald%20%28Field-Tested%29'
p3103
sg13
S'CZ75-Auto'
p3104
sg17
g18
sg19
g20
sba(i__main__
skin
p3105
(dp3106
g6
I00
sg7
S'Chop Shop'
p3107
sg8
F2.8700000000000001
sg9
S'Nitro'
p3108
sg11
S'http://steamcommunity.com/market/priceoverview/?currency=13&appid=730&market_hash_name=Five-SeveN%20%7C%20Nitro%20%28Field-Tested%29'
p3109
sg13
S'Five-SeveN'
p3110
sg15
I24
sg16
F3.1800000000000002
sg17
g18
sg19
g20
sba(i__main__
skin
p3111
(dp3112
g6
I00
sg7
S'Chop Shop'
p3113
sg8
F2.3599999999999999
sg9
S'Full Stop'
p3114
sg11
S'http://steamcommunity.com/market/priceoverview/?currency=13&appid=730&market_hash_name=MP7%20%7C%20Full%20Stop%20%28Field-Tested%29'
p3115
sg13
S'MP7'
p3116
sg15
I5
sg16
F3.23
sg17
g18
sg19
g20
sba(i__main__
skin
p3117
(dp3118
g6
I00
sg7
S'Chop Shop'
p3119
sg8
F3.5299999999999998
sg9
S'Whiteout'
p3120
sg11
S'http://steamcommunity.com/market/priceoverview/?currency=13&appid=730&market_hash_name=P250%20%7C%20Whiteout%20%28Field-Tested%29'
p3121
sg13
S'P250'
p3122
sg15
I48
sg16
F3.5699999999999998
sg17
g18
sg19
g20
sba(i__main__
skin
p3123
(dp3124
g6
I00
sg7
S'Chop Shop'
p3125
sg9
S'Fade'
p3126
sg11
S'http://steamcommunity.com/market/priceoverview/?currency=13&appid=730&market_hash_name=MAC-10%20%7C%20Fade%20%28Field-Tested%29'
p3127
sg13
S'MAC-10'
p3128
sg17
g18
sg19
g20
sba(i__main__
skin
p3129
(dp3130
g6
I00
sg7
S'Chop Shop'
p3131
sg8
F0.73999999999999999
sg9
S'Para Green'
p3132
sg11
S'http://steamcommunity.com/market/priceoverview/?currency=13&appid=730&market_hash_name=USP-S%20%7C%20Para%20Green%20%28Field-Tested%29'
p3133
sg13
S'USP-S'
p3134
sg15
I127
sg16
F0.75
sg17
g18
sg19
g346
sba(i__main__
skin
p3135
(dp3136
g6
I00
sg7
S'Chop Shop'
p3137
sg8
F0.64000000000000001
sg9
S'Urban Rubble'
p3138
sg11
S'http://steamcommunity.com/market/priceoverview/?currency=13&appid=730&market_hash_name=Galil AR%20%7C%20Urban%20Rubble%20%28Field-Tested%29'
p3139
sg13
S'Galil AR'
p3140
sg15
I21
sg16
F0.76000000000000001
sg17
g18
sg19
g346
sba(i__main__
skin
p3141
(dp3142
g6
I00
sg7
S'Chop Shop'
p3143
sg8
F0.66000000000000003
sg9
S'Night'
p3144
sg11
S'http://steamcommunity.com/market/priceoverview/?currency=13&appid=730&market_hash_name=Desert Eagle%20%7C%20Night%20%28Field-Tested%29'
p3145
sg13
S'Desert Eagle'
p3146
sg15
I152
sg16
F0.76000000000000001
sg17
g18
sg19
g346
sba(i__main__
skin
p3147
(dp3148
g6
I00
sg7
S'Chop Shop'
p3149
sg8
F40.530000000000001
sg9
S'Seabird'
p3150
sg11
S'http://steamcommunity.com/market/priceoverview/?currency=13&appid=730&market_hash_name=MAG-7%20%7C%20Seabird%20%28Field-Tested%29'
p3151
sg13
S'MAG-7'
p3152
sg15
I132
sg16
F0.14999999999999999
sg17
g18
sg19
g383
sba(i__main__
skin
p3153
(dp3154
g6
I00
sg7
S'Chop Shop'
p3155
sg8
F0.13
sg9
S'Impact Drill'
p3156
sg11
S'http://steamcommunity.com/market/priceoverview/?currency=13&appid=730&market_hash_name=M249%20%7C%20Impact%20Drill%20%28Field-Tested%29'
p3157
sg13
S'M249'
p3158
sg15
I114
sg16
F0.17000000000000001
sg17
g18
sg19
g383
sba(i__main__
skin
p3159
(dp3160
g6
I00
sg7
S'Chop Shop'
p3161
sg8
F0.20000000000000001
sg9
S'Army Sheen'
p3162
sg11
S'http://steamcommunity.com/market/priceoverview/?currency=13&appid=730&market_hash_name=CZ75-Auto%20%7C%20Army%20Sheen%20%28Field-Tested%29'
p3163
sg13
S'CZ75-Auto'
p3164
sg15
I83
sg16
F0.17999999999999999
sg17
g18
sg19
g383
sba(i__main__
skin
p3165
(dp3166
g6
I00
sg7
S'Chop Shop'
p3167
sg8
F0.20000000000000001
sg9
S'Army Sheen'
p3168
sg11
S'http://steamcommunity.com/market/priceoverview/?currency=13&appid=730&market_hash_name=SCAR-20%20%7C%20Army%20Sheen%20%28Field-Tested%29'
p3169
sg13
S'SCAR-20'
p3170
sg15
I35
sg16
F0.17000000000000001
sg17
g18
sg19
g383
sbasS'Mirage'
p3171
(lp3172
(i__main__
skin
p3173
(dp3174
g6
I00
sg7
g3171
sg8
F0.56999999999999995
sg9
S'Bulldozer'
p3175
sg11
S'http://steamcommunity.com/market/priceoverview/?currency=13&appid=730&market_hash_name=MAG-7%20%7C%20Bulldozer%20%28Field-Tested%29'
p3176
sg13
S'MAG-7'
p3177
sg15
I105
sg16
F0.65000000000000002
sg17
g18
sg19
g57
sba(i__main__
skin
p3178
(dp3179
g6
I00
sg7
S'Mirage'
p3180
sg8
F1.3799999999999999
sg9
S'Amber Fade'
p3181
sg11
S'http://steamcommunity.com/market/priceoverview/?currency=13&appid=730&market_hash_name=MAC-10%20%7C%20Amber%20Fade%20%28Field-Tested%29'
p3182
sg13
S'MAC-10'
p3183
sg15
I14
sg16
F1.3400000000000001
sg17
g18
sg19
g20
sba(i__main__
skin
p3184
(dp3185
g6
I00
sg7
S'Mirage'
p3186
sg9
S'Blaze'
p3187
sg11
S'http://steamcommunity.com/market/priceoverview/?currency=13&appid=730&market_hash_name=UMP-45%20%7C%20Blaze%20%28Field-Tested%29'
p3188
sg13
S'UMP-45'
p3189
sg17
g18
sg19
g20
sba(i__main__
skin
p3190
(dp3191
g6
I00
sg7
S'Mirage'
p3192
sg9
S'Hot Rod'
p3193
sg11
S'http://steamcommunity.com/market/priceoverview/?currency=13&appid=730&market_hash_name=MP9%20%7C%20Hot%20Rod%20%28Field-Tested%29'
p3194
sg13
S'MP9'
p3195
sg17
g18
sg19
g20
sba(i__main__
skin
p3196
(dp3197
g6
I00
sg7
S'Mirage'
p3198
sg8
F0.63
sg9
S'CaliCamo'
p3199
sg11
S'http://steamcommunity.com/market/priceoverview/?currency=13&appid=730&market_hash_name=Negev%20%7C%20CaliCamo%20%28Field-Tested%29'
p3200
sg13
S'Negev'
p3201
sg15
I8
sg16
F0.63
sg17
g18
sg19
g346
sba(i__main__
skin
p3202
(dp3203
g6
I00
sg7
S'Mirage'
p3204
sg8
F0.57999999999999996
sg9
S'Tropical Storm'
p3205
sg11
S'http://steamcommunity.com/market/priceoverview/?currency=13&appid=730&market_hash_name=SSG 08%20%7C%20Tropical%20Storm%20%28Field-Tested%29'
p3206
sg13
S'SSG 08'
p3207
sg15
I23
sg16
F0.69999999999999996
sg17
g18
sg19
g346
sba(i__main__
skin
p3208
(dp3209
g6
I00
sg7
S'Mirage'
p3210
sg8
F0.68000000000000005
sg9
S'Gator Mesh'
p3211
sg11
S'http://steamcommunity.com/market/priceoverview/?currency=13&appid=730&market_hash_name=SG 553%20%7C%20Gator%20Mesh%20%28Field-Tested%29'
p3212
sg13
S'SG 553'
p3213
sg15
I18
sg16
F0.75
sg17
g18
sg19
g346
sba(i__main__
skin
p3214
(dp3215
g6
I00
sg7
S'Mirage'
p3216
sg8
F0.55000000000000004
sg9
S'Groundwater'
p3217
sg11
S'http://steamcommunity.com/market/priceoverview/?currency=13&appid=730&market_hash_name=Glock-18%20%7C%20Groundwater%20%28Field-Tested%29'
p3218
sg13
S'Glock-18'
p3219
sg15
I32
sg16
F0.63
sg17
g18
sg19
g346
sba(i__main__
skin
p3220
(dp3221
g6
I00
sg7
S'Mirage'
p3222
sg8
F0.76000000000000001
sg9
S'Orange Peel'
p3223
sg11
S'http://steamcommunity.com/market/priceoverview/?currency=13&appid=730&market_hash_name=MP7%20%7C%20Orange%20Peel%20%28Field-Tested%29'
p3224
sg13
S'MP7'
p3225
sg15
I24
sg16
F0.73999999999999999
sg17
g18
sg19
g346
sba(i__main__
skin
p3226
(dp3227
g6
I00
sg7
S'Mirage'
p3228
sg8
F0.10000000000000001
sg9
S'Bone Mask'
p3229
sg11
S'http://steamcommunity.com/market/priceoverview/?currency=13&appid=730&market_hash_name=P250%20%7C%20Bone%20Mask%20%28Field-Tested%29'
p3230
sg13
S'P250'
p3231
sg15
I42
sg16
F0.11
sg17
g18
sg19
g383
sba(i__main__
skin
p3232
(dp3233
g6
I00
sg7
S'Mirage'
p3234
sg8
F0.17000000000000001
sg9
S'Contractor'
p3235
sg11
S'http://steamcommunity.com/market/priceoverview/?currency=13&appid=730&market_hash_name=Five-SeveN%20%7C%20Contractor%20%28Field-Tested%29'
p3236
sg13
S'Five-SeveN'
p3237
sg15
I124
sg16
F0.17999999999999999
sg17
g18
sg19
g383
sba(i__main__
skin
p3238
(dp3239
g6
I00
sg7
S'Mirage'
p3240
sg8
F0.089999999999999997
sg9
S'Colony'
p3241
sg11
S'http://steamcommunity.com/market/priceoverview/?currency=13&appid=730&market_hash_name=AUG%20%7C%20Colony%20%28Field-Tested%29'
p3242
sg13
S'AUG'
p3243
sg15
I80
sg16
F0.10000000000000001
sg17
g18
sg19
g383
sba(i__main__
skin
p3244
(dp3245
g6
I00
sg7
S'Mirage'
p3246
sg8
F0.10000000000000001
sg9
S'Safari Mesh'
p3247
sg11
S'http://steamcommunity.com/market/priceoverview/?currency=13&appid=730&market_hash_name=G3SG1%20%7C%20Safari%20Mesh%20%28Field-Tested%29'
p3248
sg13
S'G3SG1'
p3249
sg15
I34
sg16
F0.11
sg17
g18
sg19
g383
sba(i__main__
skin
p3250
(dp3251
g6
I00
sg7
S'Mirage'
p3252
sg8
F0.13
sg9
S'Scorched'
p3253
sg11
S'http://steamcommunity.com/market/priceoverview/?currency=13&appid=730&market_hash_name=P90%20%7C%20Scorched%20%28Field-Tested%29'
p3254
sg13
S'P90'
p3255
sg15
I76
sg16
F0.12
sg17
g18
sg19
g383
sba(i__main__
skin
p3256
(dp3257
g6
I00
sg7
S'Mirage'
p3258
sg8
F0.13
sg9
S'Hunting Blind'
p3259
sg11
S'http://steamcommunity.com/market/priceoverview/?currency=13&appid=730&market_hash_name=Galil AR%20%7C%20Hunting%20Blind%20%28Field-Tested%29'
p3260
sg13
S'Galil AR'
p3261
sg15
I66
sg16
F0.12
sg17
g18
sg19
g383
sbasS'Nuke'
p3262
(lp3263
(i__main__
skin
p3264
(dp3265
g6
I00
sg7
g3262
sg8
F21.690000000000001
sg9
S'Nuclear Threat'
p3266
sg11
S'http://steamcommunity.com/market/priceoverview/?currency=13&appid=730&market_hash_name=Tec-9%20%7C%20Nuclear%20Threat%20%28Field-Tested%29'
p3267
sg13
S'Tec-9'
p3268
sg15
I20
sg16
F22.140000000000001
sg17
g18
sg19
g57
sba(i__main__
skin
p3269
(dp3270
g6
I00
sg7
S'Nuke'
p3271
sg8
F6.7300000000000004
sg9
S'Nuclear Threat'
p3272
sg11
S'http://steamcommunity.com/market/priceoverview/?currency=13&appid=730&market_hash_name=P250%20%7C%20Nuclear%20Threat%20%28Field-Tested%29'
p3273
sg13
S'P250'
p3274
sg15
I19
sg16
F6.8600000000000003
sg17
g18
sg19
g57
sba(i__main__
skin
p3275
(dp3276
g6
I00
sg7
S'Nuke'
p3277
sg8
F5.4800000000000004
sg9
S'Radiation Hazard'
p3278
sg11
S'http://steamcommunity.com/market/priceoverview/?currency=13&appid=730&market_hash_name=M4A4%20%7C%20Radiation%20Hazard%20%28Field-Tested%29'
p3279
sg13
S'M4A4'
p3280
sg15
I51
sg16
F5.4699999999999998
sg17
g18
sg19
g20
sba(i__main__
skin
p3281
(dp3282
g6
I00
sg7
S'Nuke'
p3283
sg8
F1.6399999999999999
sg9
S'Fallout Warning'
p3284
sg11
S'http://steamcommunity.com/market/priceoverview/?currency=13&appid=730&market_hash_name=XM1014%20%7C%20Fallout%20Warning%20%28Field-Tested%29'
p3285
sg13
S'XM1014'
p3286
sg15
I15
sg16
F1.6399999999999999
sg17
g18
sg19
g346
sba(i__main__
skin
p3287
(dp3288
g6
I00
sg7
S'Nuke'
p3289
sg8
F1.45
sg9
S'Fallout Warning'
p3290
sg11
S'http://steamcommunity.com/market/priceoverview/?currency=13&appid=730&market_hash_name=UMP-45%20%7C%20Fallout%20Warning%20%28Field-Tested%29'
p3291
sg13
S'UMP-45'
p3292
sg15
I29
sg16
F1.6200000000000001
sg17
g18
sg19
g346
sba(i__main__
skin
p3293
(dp3294
g6
I00
sg7
S'Nuke'
p3295
sg8
F1.6000000000000001
sg9
S'Fallout Warning'
p3296
sg11
S'http://steamcommunity.com/market/priceoverview/?currency=13&appid=730&market_hash_name=P90%20%7C%20Fallout%20Warning%20%28Field-Tested%29'
p3297
sg13
S'P90'
p3298
sg15
I30
sg16
F1.4399999999999999
sg17
g18
sg19
g346
sba(i__main__
skin
p3299
(dp3300
g6
I00
sg7
S'Nuke'
p3301
sg8
F0.23999999999999999
sg9
S'Irradiated Alert'
p3302
sg11
S'http://steamcommunity.com/market/priceoverview/?currency=13&appid=730&market_hash_name=PP-Bizon%20%7C%20Irradiated%20Alert%20%28Field-Tested%29'
p3303
sg13
S'PP-Bizon'
p3304
sg15
I37
sg16
F0.28999999999999998
sg17
g18
sg19
g383
sba(i__main__
skin
p3305
(dp3306
g6
I00
sg7
S'Nuke'
p3307
sg8
F0.27000000000000002
sg9
S'Irradiated Alert'
p3308
sg11
S'http://steamcommunity.com/market/priceoverview/?currency=13&appid=730&market_hash_name=Sawed-Off%20%7C%20Irradiated%20Alert%20%28Field-Tested%29'
p3309
sg13
S'Sawed-Off'
p3310
sg15
I60
sg16
F0.29999999999999999
sg17
g18
sg19
g383
sba(i__main__
skin
p3311
(dp3312
g6
I00
sg7
S'Nuke'
p3313
sg8
F0.32000000000000001
sg9
S'Irradiated Alert'
p3314
sg11
S'http://steamcommunity.com/market/priceoverview/?currency=13&appid=730&market_hash_name=MAG-7%20%7C%20Irradiated%20Alert%20%28Field-Tested%29'
p3315
sg13
S'MAG-7'
p3316
sg15
I65
sg16
F0.29999999999999999
sg17
g18
sg19
g383
sbas.